
C:\Users\Henry\Desktop\4de Jaar\E-Design2018\edesign19231865\Debug\edesign19231865.elf:     file format elf32-littlearm

Sections:
Idx Name          Size      VMA       LMA       File off  Algn
  0 .isr_vector   00000188  08000000  08000000  00010000  2**0
                  CONTENTS, ALLOC, LOAD, READONLY, DATA
  1 .text         00005590  08000190  08000190  00010190  2**4
                  CONTENTS, ALLOC, LOAD, READONLY, CODE
  2 .rodata       000000c0  08005720  08005720  00015720  2**2
                  CONTENTS, ALLOC, LOAD, READONLY, DATA
  3 .ARM          00000008  080057e0  080057e0  000157e0  2**2
                  CONTENTS, ALLOC, LOAD, READONLY, DATA
  4 .init_array   00000004  080057e8  080057e8  000157e8  2**2
                  CONTENTS, ALLOC, LOAD, DATA
  5 .fini_array   00000004  080057ec  080057ec  000157ec  2**2
                  CONTENTS, ALLOC, LOAD, DATA
  6 .data         00000098  20000000  080057f0  00020000  2**2
                  CONTENTS, ALLOC, LOAD, DATA
  7 .ccmram       00000000  10000000  10000000  00020098  2**0
                  CONTENTS
  8 .bss          000002a0  20000098  20000098  00020098  2**3
                  ALLOC
  9 ._user_heap_stack 00000600  20000338  20000338  00020098  2**0
                  ALLOC
 10 .ARM.attributes 00000030  00000000  00000000  00020098  2**0
                  CONTENTS, READONLY
 11 .debug_info   000281a7  00000000  00000000  000200c8  2**0
                  CONTENTS, READONLY, DEBUGGING
 12 .debug_abbrev 000040ed  00000000  00000000  0004826f  2**0
                  CONTENTS, READONLY, DEBUGGING
 13 .debug_loc    000109a4  00000000  00000000  0004c35c  2**0
                  CONTENTS, READONLY, DEBUGGING
 14 .debug_aranges 00000cb0  00000000  00000000  0005cd00  2**3
                  CONTENTS, READONLY, DEBUGGING
 15 .debug_ranges 00002118  00000000  00000000  0005d9b0  2**3
                  CONTENTS, READONLY, DEBUGGING
 16 .debug_macro  000216ac  00000000  00000000  0005fac8  2**0
                  CONTENTS, READONLY, DEBUGGING
 17 .debug_line   000109c3  00000000  00000000  00081174  2**0
                  CONTENTS, READONLY, DEBUGGING
 18 .debug_str    000b1065  00000000  00000000  00091b37  2**0
                  CONTENTS, READONLY, DEBUGGING
 19 .comment      0000007c  00000000  00000000  00142b9c  2**0
                  CONTENTS, READONLY
 20 .debug_frame  00003180  00000000  00000000  00142c18  2**2
                  CONTENTS, READONLY, DEBUGGING

Disassembly of section .text:

08000190 <__do_global_dtors_aux>:
 8000190:	b510      	push	{r4, lr}
 8000192:	4c05      	ldr	r4, [pc, #20]	; (80001a8 <__do_global_dtors_aux+0x18>)
 8000194:	7823      	ldrb	r3, [r4, #0]
 8000196:	b933      	cbnz	r3, 80001a6 <__do_global_dtors_aux+0x16>
 8000198:	4b04      	ldr	r3, [pc, #16]	; (80001ac <__do_global_dtors_aux+0x1c>)
 800019a:	b113      	cbz	r3, 80001a2 <__do_global_dtors_aux+0x12>
 800019c:	4804      	ldr	r0, [pc, #16]	; (80001b0 <__do_global_dtors_aux+0x20>)
 800019e:	f3af 8000 	nop.w
 80001a2:	2301      	movs	r3, #1
 80001a4:	7023      	strb	r3, [r4, #0]
 80001a6:	bd10      	pop	{r4, pc}
 80001a8:	20000098 	.word	0x20000098
 80001ac:	00000000 	.word	0x00000000
 80001b0:	08005708 	.word	0x08005708

080001b4 <frame_dummy>:
 80001b4:	b508      	push	{r3, lr}
 80001b6:	4b03      	ldr	r3, [pc, #12]	; (80001c4 <frame_dummy+0x10>)
 80001b8:	b11b      	cbz	r3, 80001c2 <frame_dummy+0xe>
 80001ba:	4903      	ldr	r1, [pc, #12]	; (80001c8 <frame_dummy+0x14>)
 80001bc:	4803      	ldr	r0, [pc, #12]	; (80001cc <frame_dummy+0x18>)
 80001be:	f3af 8000 	nop.w
 80001c2:	bd08      	pop	{r3, pc}
 80001c4:	00000000 	.word	0x00000000
 80001c8:	2000009c 	.word	0x2000009c
 80001cc:	08005708 	.word	0x08005708

080001d0 <strlen>:
 80001d0:	4603      	mov	r3, r0
 80001d2:	f813 2b01 	ldrb.w	r2, [r3], #1
 80001d6:	2a00      	cmp	r2, #0
 80001d8:	d1fb      	bne.n	80001d2 <strlen+0x2>
 80001da:	1a18      	subs	r0, r3, r0
 80001dc:	3801      	subs	r0, #1
 80001de:	4770      	bx	lr

080001e0 <memchr>:
 80001e0:	f001 01ff 	and.w	r1, r1, #255	; 0xff
 80001e4:	2a10      	cmp	r2, #16
 80001e6:	db2b      	blt.n	8000240 <memchr+0x60>
 80001e8:	f010 0f07 	tst.w	r0, #7
 80001ec:	d008      	beq.n	8000200 <memchr+0x20>
 80001ee:	f810 3b01 	ldrb.w	r3, [r0], #1
 80001f2:	3a01      	subs	r2, #1
 80001f4:	428b      	cmp	r3, r1
 80001f6:	d02d      	beq.n	8000254 <memchr+0x74>
 80001f8:	f010 0f07 	tst.w	r0, #7
 80001fc:	b342      	cbz	r2, 8000250 <memchr+0x70>
 80001fe:	d1f6      	bne.n	80001ee <memchr+0xe>
 8000200:	b4f0      	push	{r4, r5, r6, r7}
 8000202:	ea41 2101 	orr.w	r1, r1, r1, lsl #8
 8000206:	ea41 4101 	orr.w	r1, r1, r1, lsl #16
 800020a:	f022 0407 	bic.w	r4, r2, #7
 800020e:	f07f 0700 	mvns.w	r7, #0
 8000212:	2300      	movs	r3, #0
 8000214:	e8f0 5602 	ldrd	r5, r6, [r0], #8
 8000218:	3c08      	subs	r4, #8
 800021a:	ea85 0501 	eor.w	r5, r5, r1
 800021e:	ea86 0601 	eor.w	r6, r6, r1
 8000222:	fa85 f547 	uadd8	r5, r5, r7
 8000226:	faa3 f587 	sel	r5, r3, r7
 800022a:	fa86 f647 	uadd8	r6, r6, r7
 800022e:	faa5 f687 	sel	r6, r5, r7
 8000232:	b98e      	cbnz	r6, 8000258 <memchr+0x78>
 8000234:	d1ee      	bne.n	8000214 <memchr+0x34>
 8000236:	bcf0      	pop	{r4, r5, r6, r7}
 8000238:	f001 01ff 	and.w	r1, r1, #255	; 0xff
 800023c:	f002 0207 	and.w	r2, r2, #7
 8000240:	b132      	cbz	r2, 8000250 <memchr+0x70>
 8000242:	f810 3b01 	ldrb.w	r3, [r0], #1
 8000246:	3a01      	subs	r2, #1
 8000248:	ea83 0301 	eor.w	r3, r3, r1
 800024c:	b113      	cbz	r3, 8000254 <memchr+0x74>
 800024e:	d1f8      	bne.n	8000242 <memchr+0x62>
 8000250:	2000      	movs	r0, #0
 8000252:	4770      	bx	lr
 8000254:	3801      	subs	r0, #1
 8000256:	4770      	bx	lr
 8000258:	2d00      	cmp	r5, #0
 800025a:	bf06      	itte	eq
 800025c:	4635      	moveq	r5, r6
 800025e:	3803      	subeq	r0, #3
 8000260:	3807      	subne	r0, #7
 8000262:	f015 0f01 	tst.w	r5, #1
 8000266:	d107      	bne.n	8000278 <memchr+0x98>
 8000268:	3001      	adds	r0, #1
 800026a:	f415 7f80 	tst.w	r5, #256	; 0x100
 800026e:	bf02      	ittt	eq
 8000270:	3001      	addeq	r0, #1
 8000272:	f415 3fc0 	tsteq.w	r5, #98304	; 0x18000
 8000276:	3001      	addeq	r0, #1
 8000278:	bcf0      	pop	{r4, r5, r6, r7}
 800027a:	3801      	subs	r0, #1
 800027c:	4770      	bx	lr
 800027e:	bf00      	nop

08000280 <__aeabi_drsub>:
 8000280:	f081 4100 	eor.w	r1, r1, #2147483648	; 0x80000000
 8000284:	e002      	b.n	800028c <__adddf3>
 8000286:	bf00      	nop

08000288 <__aeabi_dsub>:
 8000288:	f083 4300 	eor.w	r3, r3, #2147483648	; 0x80000000

0800028c <__adddf3>:
 800028c:	b530      	push	{r4, r5, lr}
 800028e:	ea4f 0441 	mov.w	r4, r1, lsl #1
 8000292:	ea4f 0543 	mov.w	r5, r3, lsl #1
 8000296:	ea94 0f05 	teq	r4, r5
 800029a:	bf08      	it	eq
 800029c:	ea90 0f02 	teqeq	r0, r2
 80002a0:	bf1f      	itttt	ne
 80002a2:	ea54 0c00 	orrsne.w	ip, r4, r0
 80002a6:	ea55 0c02 	orrsne.w	ip, r5, r2
 80002aa:	ea7f 5c64 	mvnsne.w	ip, r4, asr #21
 80002ae:	ea7f 5c65 	mvnsne.w	ip, r5, asr #21
 80002b2:	f000 80e2 	beq.w	800047a <__adddf3+0x1ee>
 80002b6:	ea4f 5454 	mov.w	r4, r4, lsr #21
 80002ba:	ebd4 5555 	rsbs	r5, r4, r5, lsr #21
 80002be:	bfb8      	it	lt
 80002c0:	426d      	neglt	r5, r5
 80002c2:	dd0c      	ble.n	80002de <__adddf3+0x52>
 80002c4:	442c      	add	r4, r5
 80002c6:	ea80 0202 	eor.w	r2, r0, r2
 80002ca:	ea81 0303 	eor.w	r3, r1, r3
 80002ce:	ea82 0000 	eor.w	r0, r2, r0
 80002d2:	ea83 0101 	eor.w	r1, r3, r1
 80002d6:	ea80 0202 	eor.w	r2, r0, r2
 80002da:	ea81 0303 	eor.w	r3, r1, r3
 80002de:	2d36      	cmp	r5, #54	; 0x36
 80002e0:	bf88      	it	hi
 80002e2:	bd30      	pophi	{r4, r5, pc}
 80002e4:	f011 4f00 	tst.w	r1, #2147483648	; 0x80000000
 80002e8:	ea4f 3101 	mov.w	r1, r1, lsl #12
 80002ec:	f44f 1c80 	mov.w	ip, #1048576	; 0x100000
 80002f0:	ea4c 3111 	orr.w	r1, ip, r1, lsr #12
 80002f4:	d002      	beq.n	80002fc <__adddf3+0x70>
 80002f6:	4240      	negs	r0, r0
 80002f8:	eb61 0141 	sbc.w	r1, r1, r1, lsl #1
 80002fc:	f013 4f00 	tst.w	r3, #2147483648	; 0x80000000
 8000300:	ea4f 3303 	mov.w	r3, r3, lsl #12
 8000304:	ea4c 3313 	orr.w	r3, ip, r3, lsr #12
 8000308:	d002      	beq.n	8000310 <__adddf3+0x84>
 800030a:	4252      	negs	r2, r2
 800030c:	eb63 0343 	sbc.w	r3, r3, r3, lsl #1
 8000310:	ea94 0f05 	teq	r4, r5
 8000314:	f000 80a7 	beq.w	8000466 <__adddf3+0x1da>
 8000318:	f1a4 0401 	sub.w	r4, r4, #1
 800031c:	f1d5 0e20 	rsbs	lr, r5, #32
 8000320:	db0d      	blt.n	800033e <__adddf3+0xb2>
 8000322:	fa02 fc0e 	lsl.w	ip, r2, lr
 8000326:	fa22 f205 	lsr.w	r2, r2, r5
 800032a:	1880      	adds	r0, r0, r2
 800032c:	f141 0100 	adc.w	r1, r1, #0
 8000330:	fa03 f20e 	lsl.w	r2, r3, lr
 8000334:	1880      	adds	r0, r0, r2
 8000336:	fa43 f305 	asr.w	r3, r3, r5
 800033a:	4159      	adcs	r1, r3
 800033c:	e00e      	b.n	800035c <__adddf3+0xd0>
 800033e:	f1a5 0520 	sub.w	r5, r5, #32
 8000342:	f10e 0e20 	add.w	lr, lr, #32
 8000346:	2a01      	cmp	r2, #1
 8000348:	fa03 fc0e 	lsl.w	ip, r3, lr
 800034c:	bf28      	it	cs
 800034e:	f04c 0c02 	orrcs.w	ip, ip, #2
 8000352:	fa43 f305 	asr.w	r3, r3, r5
 8000356:	18c0      	adds	r0, r0, r3
 8000358:	eb51 71e3 	adcs.w	r1, r1, r3, asr #31
 800035c:	f001 4500 	and.w	r5, r1, #2147483648	; 0x80000000
 8000360:	d507      	bpl.n	8000372 <__adddf3+0xe6>
 8000362:	f04f 0e00 	mov.w	lr, #0
 8000366:	f1dc 0c00 	rsbs	ip, ip, #0
 800036a:	eb7e 0000 	sbcs.w	r0, lr, r0
 800036e:	eb6e 0101 	sbc.w	r1, lr, r1
 8000372:	f5b1 1f80 	cmp.w	r1, #1048576	; 0x100000
 8000376:	d31b      	bcc.n	80003b0 <__adddf3+0x124>
 8000378:	f5b1 1f00 	cmp.w	r1, #2097152	; 0x200000
 800037c:	d30c      	bcc.n	8000398 <__adddf3+0x10c>
 800037e:	0849      	lsrs	r1, r1, #1
 8000380:	ea5f 0030 	movs.w	r0, r0, rrx
 8000384:	ea4f 0c3c 	mov.w	ip, ip, rrx
 8000388:	f104 0401 	add.w	r4, r4, #1
 800038c:	ea4f 5244 	mov.w	r2, r4, lsl #21
 8000390:	f512 0f80 	cmn.w	r2, #4194304	; 0x400000
 8000394:	f080 809a 	bcs.w	80004cc <__adddf3+0x240>
 8000398:	f1bc 4f00 	cmp.w	ip, #2147483648	; 0x80000000
 800039c:	bf08      	it	eq
 800039e:	ea5f 0c50 	movseq.w	ip, r0, lsr #1
 80003a2:	f150 0000 	adcs.w	r0, r0, #0
 80003a6:	eb41 5104 	adc.w	r1, r1, r4, lsl #20
 80003aa:	ea41 0105 	orr.w	r1, r1, r5
 80003ae:	bd30      	pop	{r4, r5, pc}
 80003b0:	ea5f 0c4c 	movs.w	ip, ip, lsl #1
 80003b4:	4140      	adcs	r0, r0
 80003b6:	eb41 0101 	adc.w	r1, r1, r1
 80003ba:	f411 1f80 	tst.w	r1, #1048576	; 0x100000
 80003be:	f1a4 0401 	sub.w	r4, r4, #1
 80003c2:	d1e9      	bne.n	8000398 <__adddf3+0x10c>
 80003c4:	f091 0f00 	teq	r1, #0
 80003c8:	bf04      	itt	eq
 80003ca:	4601      	moveq	r1, r0
 80003cc:	2000      	moveq	r0, #0
 80003ce:	fab1 f381 	clz	r3, r1
 80003d2:	bf08      	it	eq
 80003d4:	3320      	addeq	r3, #32
 80003d6:	f1a3 030b 	sub.w	r3, r3, #11
 80003da:	f1b3 0220 	subs.w	r2, r3, #32
 80003de:	da0c      	bge.n	80003fa <__adddf3+0x16e>
 80003e0:	320c      	adds	r2, #12
 80003e2:	dd08      	ble.n	80003f6 <__adddf3+0x16a>
 80003e4:	f102 0c14 	add.w	ip, r2, #20
 80003e8:	f1c2 020c 	rsb	r2, r2, #12
 80003ec:	fa01 f00c 	lsl.w	r0, r1, ip
 80003f0:	fa21 f102 	lsr.w	r1, r1, r2
 80003f4:	e00c      	b.n	8000410 <__adddf3+0x184>
 80003f6:	f102 0214 	add.w	r2, r2, #20
 80003fa:	bfd8      	it	le
 80003fc:	f1c2 0c20 	rsble	ip, r2, #32
 8000400:	fa01 f102 	lsl.w	r1, r1, r2
 8000404:	fa20 fc0c 	lsr.w	ip, r0, ip
 8000408:	bfdc      	itt	le
 800040a:	ea41 010c 	orrle.w	r1, r1, ip
 800040e:	4090      	lslle	r0, r2
 8000410:	1ae4      	subs	r4, r4, r3
 8000412:	bfa2      	ittt	ge
 8000414:	eb01 5104 	addge.w	r1, r1, r4, lsl #20
 8000418:	4329      	orrge	r1, r5
 800041a:	bd30      	popge	{r4, r5, pc}
 800041c:	ea6f 0404 	mvn.w	r4, r4
 8000420:	3c1f      	subs	r4, #31
 8000422:	da1c      	bge.n	800045e <__adddf3+0x1d2>
 8000424:	340c      	adds	r4, #12
 8000426:	dc0e      	bgt.n	8000446 <__adddf3+0x1ba>
 8000428:	f104 0414 	add.w	r4, r4, #20
 800042c:	f1c4 0220 	rsb	r2, r4, #32
 8000430:	fa20 f004 	lsr.w	r0, r0, r4
 8000434:	fa01 f302 	lsl.w	r3, r1, r2
 8000438:	ea40 0003 	orr.w	r0, r0, r3
 800043c:	fa21 f304 	lsr.w	r3, r1, r4
 8000440:	ea45 0103 	orr.w	r1, r5, r3
 8000444:	bd30      	pop	{r4, r5, pc}
 8000446:	f1c4 040c 	rsb	r4, r4, #12
 800044a:	f1c4 0220 	rsb	r2, r4, #32
 800044e:	fa20 f002 	lsr.w	r0, r0, r2
 8000452:	fa01 f304 	lsl.w	r3, r1, r4
 8000456:	ea40 0003 	orr.w	r0, r0, r3
 800045a:	4629      	mov	r1, r5
 800045c:	bd30      	pop	{r4, r5, pc}
 800045e:	fa21 f004 	lsr.w	r0, r1, r4
 8000462:	4629      	mov	r1, r5
 8000464:	bd30      	pop	{r4, r5, pc}
 8000466:	f094 0f00 	teq	r4, #0
 800046a:	f483 1380 	eor.w	r3, r3, #1048576	; 0x100000
 800046e:	bf06      	itte	eq
 8000470:	f481 1180 	eoreq.w	r1, r1, #1048576	; 0x100000
 8000474:	3401      	addeq	r4, #1
 8000476:	3d01      	subne	r5, #1
 8000478:	e74e      	b.n	8000318 <__adddf3+0x8c>
 800047a:	ea7f 5c64 	mvns.w	ip, r4, asr #21
 800047e:	bf18      	it	ne
 8000480:	ea7f 5c65 	mvnsne.w	ip, r5, asr #21
 8000484:	d029      	beq.n	80004da <__adddf3+0x24e>
 8000486:	ea94 0f05 	teq	r4, r5
 800048a:	bf08      	it	eq
 800048c:	ea90 0f02 	teqeq	r0, r2
 8000490:	d005      	beq.n	800049e <__adddf3+0x212>
 8000492:	ea54 0c00 	orrs.w	ip, r4, r0
 8000496:	bf04      	itt	eq
 8000498:	4619      	moveq	r1, r3
 800049a:	4610      	moveq	r0, r2
 800049c:	bd30      	pop	{r4, r5, pc}
 800049e:	ea91 0f03 	teq	r1, r3
 80004a2:	bf1e      	ittt	ne
 80004a4:	2100      	movne	r1, #0
 80004a6:	2000      	movne	r0, #0
 80004a8:	bd30      	popne	{r4, r5, pc}
 80004aa:	ea5f 5c54 	movs.w	ip, r4, lsr #21
 80004ae:	d105      	bne.n	80004bc <__adddf3+0x230>
 80004b0:	0040      	lsls	r0, r0, #1
 80004b2:	4149      	adcs	r1, r1
 80004b4:	bf28      	it	cs
 80004b6:	f041 4100 	orrcs.w	r1, r1, #2147483648	; 0x80000000
 80004ba:	bd30      	pop	{r4, r5, pc}
 80004bc:	f514 0480 	adds.w	r4, r4, #4194304	; 0x400000
 80004c0:	bf3c      	itt	cc
 80004c2:	f501 1180 	addcc.w	r1, r1, #1048576	; 0x100000
 80004c6:	bd30      	popcc	{r4, r5, pc}
 80004c8:	f001 4500 	and.w	r5, r1, #2147483648	; 0x80000000
 80004cc:	f045 41fe 	orr.w	r1, r5, #2130706432	; 0x7f000000
 80004d0:	f441 0170 	orr.w	r1, r1, #15728640	; 0xf00000
 80004d4:	f04f 0000 	mov.w	r0, #0
 80004d8:	bd30      	pop	{r4, r5, pc}
 80004da:	ea7f 5c64 	mvns.w	ip, r4, asr #21
 80004de:	bf1a      	itte	ne
 80004e0:	4619      	movne	r1, r3
 80004e2:	4610      	movne	r0, r2
 80004e4:	ea7f 5c65 	mvnseq.w	ip, r5, asr #21
 80004e8:	bf1c      	itt	ne
 80004ea:	460b      	movne	r3, r1
 80004ec:	4602      	movne	r2, r0
 80004ee:	ea50 3401 	orrs.w	r4, r0, r1, lsl #12
 80004f2:	bf06      	itte	eq
 80004f4:	ea52 3503 	orrseq.w	r5, r2, r3, lsl #12
 80004f8:	ea91 0f03 	teqeq	r1, r3
 80004fc:	f441 2100 	orrne.w	r1, r1, #524288	; 0x80000
 8000500:	bd30      	pop	{r4, r5, pc}
 8000502:	bf00      	nop

08000504 <__aeabi_ui2d>:
 8000504:	f090 0f00 	teq	r0, #0
 8000508:	bf04      	itt	eq
 800050a:	2100      	moveq	r1, #0
 800050c:	4770      	bxeq	lr
 800050e:	b530      	push	{r4, r5, lr}
 8000510:	f44f 6480 	mov.w	r4, #1024	; 0x400
 8000514:	f104 0432 	add.w	r4, r4, #50	; 0x32
 8000518:	f04f 0500 	mov.w	r5, #0
 800051c:	f04f 0100 	mov.w	r1, #0
 8000520:	e750      	b.n	80003c4 <__adddf3+0x138>
 8000522:	bf00      	nop

08000524 <__aeabi_i2d>:
 8000524:	f090 0f00 	teq	r0, #0
 8000528:	bf04      	itt	eq
 800052a:	2100      	moveq	r1, #0
 800052c:	4770      	bxeq	lr
 800052e:	b530      	push	{r4, r5, lr}
 8000530:	f44f 6480 	mov.w	r4, #1024	; 0x400
 8000534:	f104 0432 	add.w	r4, r4, #50	; 0x32
 8000538:	f010 4500 	ands.w	r5, r0, #2147483648	; 0x80000000
 800053c:	bf48      	it	mi
 800053e:	4240      	negmi	r0, r0
 8000540:	f04f 0100 	mov.w	r1, #0
 8000544:	e73e      	b.n	80003c4 <__adddf3+0x138>
 8000546:	bf00      	nop

08000548 <__aeabi_f2d>:
 8000548:	0042      	lsls	r2, r0, #1
 800054a:	ea4f 01e2 	mov.w	r1, r2, asr #3
 800054e:	ea4f 0131 	mov.w	r1, r1, rrx
 8000552:	ea4f 7002 	mov.w	r0, r2, lsl #28
 8000556:	bf1f      	itttt	ne
 8000558:	f012 437f 	andsne.w	r3, r2, #4278190080	; 0xff000000
 800055c:	f093 4f7f 	teqne	r3, #4278190080	; 0xff000000
 8000560:	f081 5160 	eorne.w	r1, r1, #939524096	; 0x38000000
 8000564:	4770      	bxne	lr
 8000566:	f092 0f00 	teq	r2, #0
 800056a:	bf14      	ite	ne
 800056c:	f093 4f7f 	teqne	r3, #4278190080	; 0xff000000
 8000570:	4770      	bxeq	lr
 8000572:	b530      	push	{r4, r5, lr}
 8000574:	f44f 7460 	mov.w	r4, #896	; 0x380
 8000578:	f001 4500 	and.w	r5, r1, #2147483648	; 0x80000000
 800057c:	f021 4100 	bic.w	r1, r1, #2147483648	; 0x80000000
 8000580:	e720      	b.n	80003c4 <__adddf3+0x138>
 8000582:	bf00      	nop

08000584 <__aeabi_ul2d>:
 8000584:	ea50 0201 	orrs.w	r2, r0, r1
 8000588:	bf08      	it	eq
 800058a:	4770      	bxeq	lr
 800058c:	b530      	push	{r4, r5, lr}
 800058e:	f04f 0500 	mov.w	r5, #0
 8000592:	e00a      	b.n	80005aa <__aeabi_l2d+0x16>

08000594 <__aeabi_l2d>:
 8000594:	ea50 0201 	orrs.w	r2, r0, r1
 8000598:	bf08      	it	eq
 800059a:	4770      	bxeq	lr
 800059c:	b530      	push	{r4, r5, lr}
 800059e:	f011 4500 	ands.w	r5, r1, #2147483648	; 0x80000000
 80005a2:	d502      	bpl.n	80005aa <__aeabi_l2d+0x16>
 80005a4:	4240      	negs	r0, r0
 80005a6:	eb61 0141 	sbc.w	r1, r1, r1, lsl #1
 80005aa:	f44f 6480 	mov.w	r4, #1024	; 0x400
 80005ae:	f104 0432 	add.w	r4, r4, #50	; 0x32
 80005b2:	ea5f 5c91 	movs.w	ip, r1, lsr #22
 80005b6:	f43f aedc 	beq.w	8000372 <__adddf3+0xe6>
 80005ba:	f04f 0203 	mov.w	r2, #3
 80005be:	ea5f 0cdc 	movs.w	ip, ip, lsr #3
 80005c2:	bf18      	it	ne
 80005c4:	3203      	addne	r2, #3
 80005c6:	ea5f 0cdc 	movs.w	ip, ip, lsr #3
 80005ca:	bf18      	it	ne
 80005cc:	3203      	addne	r2, #3
 80005ce:	eb02 02dc 	add.w	r2, r2, ip, lsr #3
 80005d2:	f1c2 0320 	rsb	r3, r2, #32
 80005d6:	fa00 fc03 	lsl.w	ip, r0, r3
 80005da:	fa20 f002 	lsr.w	r0, r0, r2
 80005de:	fa01 fe03 	lsl.w	lr, r1, r3
 80005e2:	ea40 000e 	orr.w	r0, r0, lr
 80005e6:	fa21 f102 	lsr.w	r1, r1, r2
 80005ea:	4414      	add	r4, r2
 80005ec:	e6c1      	b.n	8000372 <__adddf3+0xe6>
 80005ee:	bf00      	nop

080005f0 <__aeabi_dmul>:
 80005f0:	b570      	push	{r4, r5, r6, lr}
 80005f2:	f04f 0cff 	mov.w	ip, #255	; 0xff
 80005f6:	f44c 6ce0 	orr.w	ip, ip, #1792	; 0x700
 80005fa:	ea1c 5411 	ands.w	r4, ip, r1, lsr #20
 80005fe:	bf1d      	ittte	ne
 8000600:	ea1c 5513 	andsne.w	r5, ip, r3, lsr #20
 8000604:	ea94 0f0c 	teqne	r4, ip
 8000608:	ea95 0f0c 	teqne	r5, ip
 800060c:	f000 f8de 	bleq	80007cc <__aeabi_dmul+0x1dc>
 8000610:	442c      	add	r4, r5
 8000612:	ea81 0603 	eor.w	r6, r1, r3
 8000616:	ea21 514c 	bic.w	r1, r1, ip, lsl #21
 800061a:	ea23 534c 	bic.w	r3, r3, ip, lsl #21
 800061e:	ea50 3501 	orrs.w	r5, r0, r1, lsl #12
 8000622:	bf18      	it	ne
 8000624:	ea52 3503 	orrsne.w	r5, r2, r3, lsl #12
 8000628:	f441 1180 	orr.w	r1, r1, #1048576	; 0x100000
 800062c:	f443 1380 	orr.w	r3, r3, #1048576	; 0x100000
 8000630:	d038      	beq.n	80006a4 <__aeabi_dmul+0xb4>
 8000632:	fba0 ce02 	umull	ip, lr, r0, r2
 8000636:	f04f 0500 	mov.w	r5, #0
 800063a:	fbe1 e502 	umlal	lr, r5, r1, r2
 800063e:	f006 4200 	and.w	r2, r6, #2147483648	; 0x80000000
 8000642:	fbe0 e503 	umlal	lr, r5, r0, r3
 8000646:	f04f 0600 	mov.w	r6, #0
 800064a:	fbe1 5603 	umlal	r5, r6, r1, r3
 800064e:	f09c 0f00 	teq	ip, #0
 8000652:	bf18      	it	ne
 8000654:	f04e 0e01 	orrne.w	lr, lr, #1
 8000658:	f1a4 04ff 	sub.w	r4, r4, #255	; 0xff
 800065c:	f5b6 7f00 	cmp.w	r6, #512	; 0x200
 8000660:	f564 7440 	sbc.w	r4, r4, #768	; 0x300
 8000664:	d204      	bcs.n	8000670 <__aeabi_dmul+0x80>
 8000666:	ea5f 0e4e 	movs.w	lr, lr, lsl #1
 800066a:	416d      	adcs	r5, r5
 800066c:	eb46 0606 	adc.w	r6, r6, r6
 8000670:	ea42 21c6 	orr.w	r1, r2, r6, lsl #11
 8000674:	ea41 5155 	orr.w	r1, r1, r5, lsr #21
 8000678:	ea4f 20c5 	mov.w	r0, r5, lsl #11
 800067c:	ea40 505e 	orr.w	r0, r0, lr, lsr #21
 8000680:	ea4f 2ece 	mov.w	lr, lr, lsl #11
 8000684:	f1b4 0cfd 	subs.w	ip, r4, #253	; 0xfd
 8000688:	bf88      	it	hi
 800068a:	f5bc 6fe0 	cmphi.w	ip, #1792	; 0x700
 800068e:	d81e      	bhi.n	80006ce <__aeabi_dmul+0xde>
 8000690:	f1be 4f00 	cmp.w	lr, #2147483648	; 0x80000000
 8000694:	bf08      	it	eq
 8000696:	ea5f 0e50 	movseq.w	lr, r0, lsr #1
 800069a:	f150 0000 	adcs.w	r0, r0, #0
 800069e:	eb41 5104 	adc.w	r1, r1, r4, lsl #20
 80006a2:	bd70      	pop	{r4, r5, r6, pc}
 80006a4:	f006 4600 	and.w	r6, r6, #2147483648	; 0x80000000
 80006a8:	ea46 0101 	orr.w	r1, r6, r1
 80006ac:	ea40 0002 	orr.w	r0, r0, r2
 80006b0:	ea81 0103 	eor.w	r1, r1, r3
 80006b4:	ebb4 045c 	subs.w	r4, r4, ip, lsr #1
 80006b8:	bfc2      	ittt	gt
 80006ba:	ebd4 050c 	rsbsgt	r5, r4, ip
 80006be:	ea41 5104 	orrgt.w	r1, r1, r4, lsl #20
 80006c2:	bd70      	popgt	{r4, r5, r6, pc}
 80006c4:	f441 1180 	orr.w	r1, r1, #1048576	; 0x100000
 80006c8:	f04f 0e00 	mov.w	lr, #0
 80006cc:	3c01      	subs	r4, #1
 80006ce:	f300 80ab 	bgt.w	8000828 <__aeabi_dmul+0x238>
 80006d2:	f114 0f36 	cmn.w	r4, #54	; 0x36
 80006d6:	bfde      	ittt	le
 80006d8:	2000      	movle	r0, #0
 80006da:	f001 4100 	andle.w	r1, r1, #2147483648	; 0x80000000
 80006de:	bd70      	pople	{r4, r5, r6, pc}
 80006e0:	f1c4 0400 	rsb	r4, r4, #0
 80006e4:	3c20      	subs	r4, #32
 80006e6:	da35      	bge.n	8000754 <__aeabi_dmul+0x164>
 80006e8:	340c      	adds	r4, #12
 80006ea:	dc1b      	bgt.n	8000724 <__aeabi_dmul+0x134>
 80006ec:	f104 0414 	add.w	r4, r4, #20
 80006f0:	f1c4 0520 	rsb	r5, r4, #32
 80006f4:	fa00 f305 	lsl.w	r3, r0, r5
 80006f8:	fa20 f004 	lsr.w	r0, r0, r4
 80006fc:	fa01 f205 	lsl.w	r2, r1, r5
 8000700:	ea40 0002 	orr.w	r0, r0, r2
 8000704:	f001 4200 	and.w	r2, r1, #2147483648	; 0x80000000
 8000708:	f021 4100 	bic.w	r1, r1, #2147483648	; 0x80000000
 800070c:	eb10 70d3 	adds.w	r0, r0, r3, lsr #31
 8000710:	fa21 f604 	lsr.w	r6, r1, r4
 8000714:	eb42 0106 	adc.w	r1, r2, r6
 8000718:	ea5e 0e43 	orrs.w	lr, lr, r3, lsl #1
 800071c:	bf08      	it	eq
 800071e:	ea20 70d3 	biceq.w	r0, r0, r3, lsr #31
 8000722:	bd70      	pop	{r4, r5, r6, pc}
 8000724:	f1c4 040c 	rsb	r4, r4, #12
 8000728:	f1c4 0520 	rsb	r5, r4, #32
 800072c:	fa00 f304 	lsl.w	r3, r0, r4
 8000730:	fa20 f005 	lsr.w	r0, r0, r5
 8000734:	fa01 f204 	lsl.w	r2, r1, r4
 8000738:	ea40 0002 	orr.w	r0, r0, r2
 800073c:	f001 4100 	and.w	r1, r1, #2147483648	; 0x80000000
 8000740:	eb10 70d3 	adds.w	r0, r0, r3, lsr #31
 8000744:	f141 0100 	adc.w	r1, r1, #0
 8000748:	ea5e 0e43 	orrs.w	lr, lr, r3, lsl #1
 800074c:	bf08      	it	eq
 800074e:	ea20 70d3 	biceq.w	r0, r0, r3, lsr #31
 8000752:	bd70      	pop	{r4, r5, r6, pc}
 8000754:	f1c4 0520 	rsb	r5, r4, #32
 8000758:	fa00 f205 	lsl.w	r2, r0, r5
 800075c:	ea4e 0e02 	orr.w	lr, lr, r2
 8000760:	fa20 f304 	lsr.w	r3, r0, r4
 8000764:	fa01 f205 	lsl.w	r2, r1, r5
 8000768:	ea43 0302 	orr.w	r3, r3, r2
 800076c:	fa21 f004 	lsr.w	r0, r1, r4
 8000770:	f001 4100 	and.w	r1, r1, #2147483648	; 0x80000000
 8000774:	fa21 f204 	lsr.w	r2, r1, r4
 8000778:	ea20 0002 	bic.w	r0, r0, r2
 800077c:	eb00 70d3 	add.w	r0, r0, r3, lsr #31
 8000780:	ea5e 0e43 	orrs.w	lr, lr, r3, lsl #1
 8000784:	bf08      	it	eq
 8000786:	ea20 70d3 	biceq.w	r0, r0, r3, lsr #31
 800078a:	bd70      	pop	{r4, r5, r6, pc}
 800078c:	f094 0f00 	teq	r4, #0
 8000790:	d10f      	bne.n	80007b2 <__aeabi_dmul+0x1c2>
 8000792:	f001 4600 	and.w	r6, r1, #2147483648	; 0x80000000
 8000796:	0040      	lsls	r0, r0, #1
 8000798:	eb41 0101 	adc.w	r1, r1, r1
 800079c:	f411 1f80 	tst.w	r1, #1048576	; 0x100000
 80007a0:	bf08      	it	eq
 80007a2:	3c01      	subeq	r4, #1
 80007a4:	d0f7      	beq.n	8000796 <__aeabi_dmul+0x1a6>
 80007a6:	ea41 0106 	orr.w	r1, r1, r6
 80007aa:	f095 0f00 	teq	r5, #0
 80007ae:	bf18      	it	ne
 80007b0:	4770      	bxne	lr
 80007b2:	f003 4600 	and.w	r6, r3, #2147483648	; 0x80000000
 80007b6:	0052      	lsls	r2, r2, #1
 80007b8:	eb43 0303 	adc.w	r3, r3, r3
 80007bc:	f413 1f80 	tst.w	r3, #1048576	; 0x100000
 80007c0:	bf08      	it	eq
 80007c2:	3d01      	subeq	r5, #1
 80007c4:	d0f7      	beq.n	80007b6 <__aeabi_dmul+0x1c6>
 80007c6:	ea43 0306 	orr.w	r3, r3, r6
 80007ca:	4770      	bx	lr
 80007cc:	ea94 0f0c 	teq	r4, ip
 80007d0:	ea0c 5513 	and.w	r5, ip, r3, lsr #20
 80007d4:	bf18      	it	ne
 80007d6:	ea95 0f0c 	teqne	r5, ip
 80007da:	d00c      	beq.n	80007f6 <__aeabi_dmul+0x206>
 80007dc:	ea50 0641 	orrs.w	r6, r0, r1, lsl #1
 80007e0:	bf18      	it	ne
 80007e2:	ea52 0643 	orrsne.w	r6, r2, r3, lsl #1
 80007e6:	d1d1      	bne.n	800078c <__aeabi_dmul+0x19c>
 80007e8:	ea81 0103 	eor.w	r1, r1, r3
 80007ec:	f001 4100 	and.w	r1, r1, #2147483648	; 0x80000000
 80007f0:	f04f 0000 	mov.w	r0, #0
 80007f4:	bd70      	pop	{r4, r5, r6, pc}
 80007f6:	ea50 0641 	orrs.w	r6, r0, r1, lsl #1
 80007fa:	bf06      	itte	eq
 80007fc:	4610      	moveq	r0, r2
 80007fe:	4619      	moveq	r1, r3
 8000800:	ea52 0643 	orrsne.w	r6, r2, r3, lsl #1
 8000804:	d019      	beq.n	800083a <__aeabi_dmul+0x24a>
 8000806:	ea94 0f0c 	teq	r4, ip
 800080a:	d102      	bne.n	8000812 <__aeabi_dmul+0x222>
 800080c:	ea50 3601 	orrs.w	r6, r0, r1, lsl #12
 8000810:	d113      	bne.n	800083a <__aeabi_dmul+0x24a>
 8000812:	ea95 0f0c 	teq	r5, ip
 8000816:	d105      	bne.n	8000824 <__aeabi_dmul+0x234>
 8000818:	ea52 3603 	orrs.w	r6, r2, r3, lsl #12
 800081c:	bf1c      	itt	ne
 800081e:	4610      	movne	r0, r2
 8000820:	4619      	movne	r1, r3
 8000822:	d10a      	bne.n	800083a <__aeabi_dmul+0x24a>
 8000824:	ea81 0103 	eor.w	r1, r1, r3
 8000828:	f001 4100 	and.w	r1, r1, #2147483648	; 0x80000000
 800082c:	f041 41fe 	orr.w	r1, r1, #2130706432	; 0x7f000000
 8000830:	f441 0170 	orr.w	r1, r1, #15728640	; 0xf00000
 8000834:	f04f 0000 	mov.w	r0, #0
 8000838:	bd70      	pop	{r4, r5, r6, pc}
 800083a:	f041 41fe 	orr.w	r1, r1, #2130706432	; 0x7f000000
 800083e:	f441 0178 	orr.w	r1, r1, #16252928	; 0xf80000
 8000842:	bd70      	pop	{r4, r5, r6, pc}

08000844 <__aeabi_ddiv>:
 8000844:	b570      	push	{r4, r5, r6, lr}
 8000846:	f04f 0cff 	mov.w	ip, #255	; 0xff
 800084a:	f44c 6ce0 	orr.w	ip, ip, #1792	; 0x700
 800084e:	ea1c 5411 	ands.w	r4, ip, r1, lsr #20
 8000852:	bf1d      	ittte	ne
 8000854:	ea1c 5513 	andsne.w	r5, ip, r3, lsr #20
 8000858:	ea94 0f0c 	teqne	r4, ip
 800085c:	ea95 0f0c 	teqne	r5, ip
 8000860:	f000 f8a7 	bleq	80009b2 <__aeabi_ddiv+0x16e>
 8000864:	eba4 0405 	sub.w	r4, r4, r5
 8000868:	ea81 0e03 	eor.w	lr, r1, r3
 800086c:	ea52 3503 	orrs.w	r5, r2, r3, lsl #12
 8000870:	ea4f 3101 	mov.w	r1, r1, lsl #12
 8000874:	f000 8088 	beq.w	8000988 <__aeabi_ddiv+0x144>
 8000878:	ea4f 3303 	mov.w	r3, r3, lsl #12
 800087c:	f04f 5580 	mov.w	r5, #268435456	; 0x10000000
 8000880:	ea45 1313 	orr.w	r3, r5, r3, lsr #4
 8000884:	ea43 6312 	orr.w	r3, r3, r2, lsr #24
 8000888:	ea4f 2202 	mov.w	r2, r2, lsl #8
 800088c:	ea45 1511 	orr.w	r5, r5, r1, lsr #4
 8000890:	ea45 6510 	orr.w	r5, r5, r0, lsr #24
 8000894:	ea4f 2600 	mov.w	r6, r0, lsl #8
 8000898:	f00e 4100 	and.w	r1, lr, #2147483648	; 0x80000000
 800089c:	429d      	cmp	r5, r3
 800089e:	bf08      	it	eq
 80008a0:	4296      	cmpeq	r6, r2
 80008a2:	f144 04fd 	adc.w	r4, r4, #253	; 0xfd
 80008a6:	f504 7440 	add.w	r4, r4, #768	; 0x300
 80008aa:	d202      	bcs.n	80008b2 <__aeabi_ddiv+0x6e>
 80008ac:	085b      	lsrs	r3, r3, #1
 80008ae:	ea4f 0232 	mov.w	r2, r2, rrx
 80008b2:	1ab6      	subs	r6, r6, r2
 80008b4:	eb65 0503 	sbc.w	r5, r5, r3
 80008b8:	085b      	lsrs	r3, r3, #1
 80008ba:	ea4f 0232 	mov.w	r2, r2, rrx
 80008be:	f44f 1080 	mov.w	r0, #1048576	; 0x100000
 80008c2:	f44f 2c00 	mov.w	ip, #524288	; 0x80000
 80008c6:	ebb6 0e02 	subs.w	lr, r6, r2
 80008ca:	eb75 0e03 	sbcs.w	lr, r5, r3
 80008ce:	bf22      	ittt	cs
 80008d0:	1ab6      	subcs	r6, r6, r2
 80008d2:	4675      	movcs	r5, lr
 80008d4:	ea40 000c 	orrcs.w	r0, r0, ip
 80008d8:	085b      	lsrs	r3, r3, #1
 80008da:	ea4f 0232 	mov.w	r2, r2, rrx
 80008de:	ebb6 0e02 	subs.w	lr, r6, r2
 80008e2:	eb75 0e03 	sbcs.w	lr, r5, r3
 80008e6:	bf22      	ittt	cs
 80008e8:	1ab6      	subcs	r6, r6, r2
 80008ea:	4675      	movcs	r5, lr
 80008ec:	ea40 005c 	orrcs.w	r0, r0, ip, lsr #1
 80008f0:	085b      	lsrs	r3, r3, #1
 80008f2:	ea4f 0232 	mov.w	r2, r2, rrx
 80008f6:	ebb6 0e02 	subs.w	lr, r6, r2
 80008fa:	eb75 0e03 	sbcs.w	lr, r5, r3
 80008fe:	bf22      	ittt	cs
 8000900:	1ab6      	subcs	r6, r6, r2
 8000902:	4675      	movcs	r5, lr
 8000904:	ea40 009c 	orrcs.w	r0, r0, ip, lsr #2
 8000908:	085b      	lsrs	r3, r3, #1
 800090a:	ea4f 0232 	mov.w	r2, r2, rrx
 800090e:	ebb6 0e02 	subs.w	lr, r6, r2
 8000912:	eb75 0e03 	sbcs.w	lr, r5, r3
 8000916:	bf22      	ittt	cs
 8000918:	1ab6      	subcs	r6, r6, r2
 800091a:	4675      	movcs	r5, lr
 800091c:	ea40 00dc 	orrcs.w	r0, r0, ip, lsr #3
 8000920:	ea55 0e06 	orrs.w	lr, r5, r6
 8000924:	d018      	beq.n	8000958 <__aeabi_ddiv+0x114>
 8000926:	ea4f 1505 	mov.w	r5, r5, lsl #4
 800092a:	ea45 7516 	orr.w	r5, r5, r6, lsr #28
 800092e:	ea4f 1606 	mov.w	r6, r6, lsl #4
 8000932:	ea4f 03c3 	mov.w	r3, r3, lsl #3
 8000936:	ea43 7352 	orr.w	r3, r3, r2, lsr #29
 800093a:	ea4f 02c2 	mov.w	r2, r2, lsl #3
 800093e:	ea5f 1c1c 	movs.w	ip, ip, lsr #4
 8000942:	d1c0      	bne.n	80008c6 <__aeabi_ddiv+0x82>
 8000944:	f411 1f80 	tst.w	r1, #1048576	; 0x100000
 8000948:	d10b      	bne.n	8000962 <__aeabi_ddiv+0x11e>
 800094a:	ea41 0100 	orr.w	r1, r1, r0
 800094e:	f04f 0000 	mov.w	r0, #0
 8000952:	f04f 4c00 	mov.w	ip, #2147483648	; 0x80000000
 8000956:	e7b6      	b.n	80008c6 <__aeabi_ddiv+0x82>
 8000958:	f411 1f80 	tst.w	r1, #1048576	; 0x100000
 800095c:	bf04      	itt	eq
 800095e:	4301      	orreq	r1, r0
 8000960:	2000      	moveq	r0, #0
 8000962:	f1b4 0cfd 	subs.w	ip, r4, #253	; 0xfd
 8000966:	bf88      	it	hi
 8000968:	f5bc 6fe0 	cmphi.w	ip, #1792	; 0x700
 800096c:	f63f aeaf 	bhi.w	80006ce <__aeabi_dmul+0xde>
 8000970:	ebb5 0c03 	subs.w	ip, r5, r3
 8000974:	bf04      	itt	eq
 8000976:	ebb6 0c02 	subseq.w	ip, r6, r2
 800097a:	ea5f 0c50 	movseq.w	ip, r0, lsr #1
 800097e:	f150 0000 	adcs.w	r0, r0, #0
 8000982:	eb41 5104 	adc.w	r1, r1, r4, lsl #20
 8000986:	bd70      	pop	{r4, r5, r6, pc}
 8000988:	f00e 4e00 	and.w	lr, lr, #2147483648	; 0x80000000
 800098c:	ea4e 3111 	orr.w	r1, lr, r1, lsr #12
 8000990:	eb14 045c 	adds.w	r4, r4, ip, lsr #1
 8000994:	bfc2      	ittt	gt
 8000996:	ebd4 050c 	rsbsgt	r5, r4, ip
 800099a:	ea41 5104 	orrgt.w	r1, r1, r4, lsl #20
 800099e:	bd70      	popgt	{r4, r5, r6, pc}
 80009a0:	f441 1180 	orr.w	r1, r1, #1048576	; 0x100000
 80009a4:	f04f 0e00 	mov.w	lr, #0
 80009a8:	3c01      	subs	r4, #1
 80009aa:	e690      	b.n	80006ce <__aeabi_dmul+0xde>
 80009ac:	ea45 0e06 	orr.w	lr, r5, r6
 80009b0:	e68d      	b.n	80006ce <__aeabi_dmul+0xde>
 80009b2:	ea0c 5513 	and.w	r5, ip, r3, lsr #20
 80009b6:	ea94 0f0c 	teq	r4, ip
 80009ba:	bf08      	it	eq
 80009bc:	ea95 0f0c 	teqeq	r5, ip
 80009c0:	f43f af3b 	beq.w	800083a <__aeabi_dmul+0x24a>
 80009c4:	ea94 0f0c 	teq	r4, ip
 80009c8:	d10a      	bne.n	80009e0 <__aeabi_ddiv+0x19c>
 80009ca:	ea50 3401 	orrs.w	r4, r0, r1, lsl #12
 80009ce:	f47f af34 	bne.w	800083a <__aeabi_dmul+0x24a>
 80009d2:	ea95 0f0c 	teq	r5, ip
 80009d6:	f47f af25 	bne.w	8000824 <__aeabi_dmul+0x234>
 80009da:	4610      	mov	r0, r2
 80009dc:	4619      	mov	r1, r3
 80009de:	e72c      	b.n	800083a <__aeabi_dmul+0x24a>
 80009e0:	ea95 0f0c 	teq	r5, ip
 80009e4:	d106      	bne.n	80009f4 <__aeabi_ddiv+0x1b0>
 80009e6:	ea52 3503 	orrs.w	r5, r2, r3, lsl #12
 80009ea:	f43f aefd 	beq.w	80007e8 <__aeabi_dmul+0x1f8>
 80009ee:	4610      	mov	r0, r2
 80009f0:	4619      	mov	r1, r3
 80009f2:	e722      	b.n	800083a <__aeabi_dmul+0x24a>
 80009f4:	ea50 0641 	orrs.w	r6, r0, r1, lsl #1
 80009f8:	bf18      	it	ne
 80009fa:	ea52 0643 	orrsne.w	r6, r2, r3, lsl #1
 80009fe:	f47f aec5 	bne.w	800078c <__aeabi_dmul+0x19c>
 8000a02:	ea50 0441 	orrs.w	r4, r0, r1, lsl #1
 8000a06:	f47f af0d 	bne.w	8000824 <__aeabi_dmul+0x234>
 8000a0a:	ea52 0543 	orrs.w	r5, r2, r3, lsl #1
 8000a0e:	f47f aeeb 	bne.w	80007e8 <__aeabi_dmul+0x1f8>
 8000a12:	e712      	b.n	800083a <__aeabi_dmul+0x24a>

08000a14 <__gedf2>:
 8000a14:	f04f 3cff 	mov.w	ip, #4294967295
 8000a18:	e006      	b.n	8000a28 <__cmpdf2+0x4>
 8000a1a:	bf00      	nop

08000a1c <__ledf2>:
 8000a1c:	f04f 0c01 	mov.w	ip, #1
 8000a20:	e002      	b.n	8000a28 <__cmpdf2+0x4>
 8000a22:	bf00      	nop

08000a24 <__cmpdf2>:
 8000a24:	f04f 0c01 	mov.w	ip, #1
 8000a28:	f84d cd04 	str.w	ip, [sp, #-4]!
 8000a2c:	ea4f 0c41 	mov.w	ip, r1, lsl #1
 8000a30:	ea7f 5c6c 	mvns.w	ip, ip, asr #21
 8000a34:	ea4f 0c43 	mov.w	ip, r3, lsl #1
 8000a38:	bf18      	it	ne
 8000a3a:	ea7f 5c6c 	mvnsne.w	ip, ip, asr #21
 8000a3e:	d01b      	beq.n	8000a78 <__cmpdf2+0x54>
 8000a40:	b001      	add	sp, #4
 8000a42:	ea50 0c41 	orrs.w	ip, r0, r1, lsl #1
 8000a46:	bf0c      	ite	eq
 8000a48:	ea52 0c43 	orrseq.w	ip, r2, r3, lsl #1
 8000a4c:	ea91 0f03 	teqne	r1, r3
 8000a50:	bf02      	ittt	eq
 8000a52:	ea90 0f02 	teqeq	r0, r2
 8000a56:	2000      	moveq	r0, #0
 8000a58:	4770      	bxeq	lr
 8000a5a:	f110 0f00 	cmn.w	r0, #0
 8000a5e:	ea91 0f03 	teq	r1, r3
 8000a62:	bf58      	it	pl
 8000a64:	4299      	cmppl	r1, r3
 8000a66:	bf08      	it	eq
 8000a68:	4290      	cmpeq	r0, r2
 8000a6a:	bf2c      	ite	cs
 8000a6c:	17d8      	asrcs	r0, r3, #31
 8000a6e:	ea6f 70e3 	mvncc.w	r0, r3, asr #31
 8000a72:	f040 0001 	orr.w	r0, r0, #1
 8000a76:	4770      	bx	lr
 8000a78:	ea4f 0c41 	mov.w	ip, r1, lsl #1
 8000a7c:	ea7f 5c6c 	mvns.w	ip, ip, asr #21
 8000a80:	d102      	bne.n	8000a88 <__cmpdf2+0x64>
 8000a82:	ea50 3c01 	orrs.w	ip, r0, r1, lsl #12
 8000a86:	d107      	bne.n	8000a98 <__cmpdf2+0x74>
 8000a88:	ea4f 0c43 	mov.w	ip, r3, lsl #1
 8000a8c:	ea7f 5c6c 	mvns.w	ip, ip, asr #21
 8000a90:	d1d6      	bne.n	8000a40 <__cmpdf2+0x1c>
 8000a92:	ea52 3c03 	orrs.w	ip, r2, r3, lsl #12
 8000a96:	d0d3      	beq.n	8000a40 <__cmpdf2+0x1c>
 8000a98:	f85d 0b04 	ldr.w	r0, [sp], #4
 8000a9c:	4770      	bx	lr
 8000a9e:	bf00      	nop

08000aa0 <__aeabi_cdrcmple>:
 8000aa0:	4684      	mov	ip, r0
 8000aa2:	4610      	mov	r0, r2
 8000aa4:	4662      	mov	r2, ip
 8000aa6:	468c      	mov	ip, r1
 8000aa8:	4619      	mov	r1, r3
 8000aaa:	4663      	mov	r3, ip
 8000aac:	e000      	b.n	8000ab0 <__aeabi_cdcmpeq>
 8000aae:	bf00      	nop

08000ab0 <__aeabi_cdcmpeq>:
 8000ab0:	b501      	push	{r0, lr}
 8000ab2:	f7ff ffb7 	bl	8000a24 <__cmpdf2>
 8000ab6:	2800      	cmp	r0, #0
 8000ab8:	bf48      	it	mi
 8000aba:	f110 0f00 	cmnmi.w	r0, #0
 8000abe:	bd01      	pop	{r0, pc}

08000ac0 <__aeabi_dcmpeq>:
 8000ac0:	f84d ed08 	str.w	lr, [sp, #-8]!
 8000ac4:	f7ff fff4 	bl	8000ab0 <__aeabi_cdcmpeq>
 8000ac8:	bf0c      	ite	eq
 8000aca:	2001      	moveq	r0, #1
 8000acc:	2000      	movne	r0, #0
 8000ace:	f85d fb08 	ldr.w	pc, [sp], #8
 8000ad2:	bf00      	nop

08000ad4 <__aeabi_dcmplt>:
 8000ad4:	f84d ed08 	str.w	lr, [sp, #-8]!
 8000ad8:	f7ff ffea 	bl	8000ab0 <__aeabi_cdcmpeq>
 8000adc:	bf34      	ite	cc
 8000ade:	2001      	movcc	r0, #1
 8000ae0:	2000      	movcs	r0, #0
 8000ae2:	f85d fb08 	ldr.w	pc, [sp], #8
 8000ae6:	bf00      	nop

08000ae8 <__aeabi_dcmple>:
 8000ae8:	f84d ed08 	str.w	lr, [sp, #-8]!
 8000aec:	f7ff ffe0 	bl	8000ab0 <__aeabi_cdcmpeq>
 8000af0:	bf94      	ite	ls
 8000af2:	2001      	movls	r0, #1
 8000af4:	2000      	movhi	r0, #0
 8000af6:	f85d fb08 	ldr.w	pc, [sp], #8
 8000afa:	bf00      	nop

08000afc <__aeabi_dcmpge>:
 8000afc:	f84d ed08 	str.w	lr, [sp, #-8]!
 8000b00:	f7ff ffce 	bl	8000aa0 <__aeabi_cdrcmple>
 8000b04:	bf94      	ite	ls
 8000b06:	2001      	movls	r0, #1
 8000b08:	2000      	movhi	r0, #0
 8000b0a:	f85d fb08 	ldr.w	pc, [sp], #8
 8000b0e:	bf00      	nop

08000b10 <__aeabi_dcmpgt>:
 8000b10:	f84d ed08 	str.w	lr, [sp, #-8]!
 8000b14:	f7ff ffc4 	bl	8000aa0 <__aeabi_cdrcmple>
 8000b18:	bf34      	ite	cc
 8000b1a:	2001      	movcc	r0, #1
 8000b1c:	2000      	movcs	r0, #0
 8000b1e:	f85d fb08 	ldr.w	pc, [sp], #8
 8000b22:	bf00      	nop

08000b24 <__aeabi_dcmpun>:
 8000b24:	ea4f 0c41 	mov.w	ip, r1, lsl #1
 8000b28:	ea7f 5c6c 	mvns.w	ip, ip, asr #21
 8000b2c:	d102      	bne.n	8000b34 <__aeabi_dcmpun+0x10>
 8000b2e:	ea50 3c01 	orrs.w	ip, r0, r1, lsl #12
 8000b32:	d10a      	bne.n	8000b4a <__aeabi_dcmpun+0x26>
 8000b34:	ea4f 0c43 	mov.w	ip, r3, lsl #1
 8000b38:	ea7f 5c6c 	mvns.w	ip, ip, asr #21
 8000b3c:	d102      	bne.n	8000b44 <__aeabi_dcmpun+0x20>
 8000b3e:	ea52 3c03 	orrs.w	ip, r2, r3, lsl #12
 8000b42:	d102      	bne.n	8000b4a <__aeabi_dcmpun+0x26>
 8000b44:	f04f 0000 	mov.w	r0, #0
 8000b48:	4770      	bx	lr
 8000b4a:	f04f 0001 	mov.w	r0, #1
 8000b4e:	4770      	bx	lr

08000b50 <__aeabi_d2uiz>:
 8000b50:	004a      	lsls	r2, r1, #1
 8000b52:	d211      	bcs.n	8000b78 <__aeabi_d2uiz+0x28>
 8000b54:	f512 1200 	adds.w	r2, r2, #2097152	; 0x200000
 8000b58:	d211      	bcs.n	8000b7e <__aeabi_d2uiz+0x2e>
 8000b5a:	d50d      	bpl.n	8000b78 <__aeabi_d2uiz+0x28>
 8000b5c:	f46f 7378 	mvn.w	r3, #992	; 0x3e0
 8000b60:	ebb3 5262 	subs.w	r2, r3, r2, asr #21
 8000b64:	d40e      	bmi.n	8000b84 <__aeabi_d2uiz+0x34>
 8000b66:	ea4f 23c1 	mov.w	r3, r1, lsl #11
 8000b6a:	f043 4300 	orr.w	r3, r3, #2147483648	; 0x80000000
 8000b6e:	ea43 5350 	orr.w	r3, r3, r0, lsr #21
 8000b72:	fa23 f002 	lsr.w	r0, r3, r2
 8000b76:	4770      	bx	lr
 8000b78:	f04f 0000 	mov.w	r0, #0
 8000b7c:	4770      	bx	lr
 8000b7e:	ea50 3001 	orrs.w	r0, r0, r1, lsl #12
 8000b82:	d102      	bne.n	8000b8a <__aeabi_d2uiz+0x3a>
 8000b84:	f04f 30ff 	mov.w	r0, #4294967295
 8000b88:	4770      	bx	lr
 8000b8a:	f04f 0000 	mov.w	r0, #0
 8000b8e:	4770      	bx	lr

08000b90 <__aeabi_uldivmod>:
 8000b90:	b953      	cbnz	r3, 8000ba8 <__aeabi_uldivmod+0x18>
 8000b92:	b94a      	cbnz	r2, 8000ba8 <__aeabi_uldivmod+0x18>
 8000b94:	2900      	cmp	r1, #0
 8000b96:	bf08      	it	eq
 8000b98:	2800      	cmpeq	r0, #0
 8000b9a:	bf1c      	itt	ne
 8000b9c:	f04f 31ff 	movne.w	r1, #4294967295
 8000ba0:	f04f 30ff 	movne.w	r0, #4294967295
 8000ba4:	f000 b99e 	b.w	8000ee4 <__aeabi_idiv0>
 8000ba8:	f1ad 0c08 	sub.w	ip, sp, #8
 8000bac:	e96d ce04 	strd	ip, lr, [sp, #-16]!
 8000bb0:	f000 f82a 	bl	8000c08 <__udivmoddi4>
 8000bb4:	f8dd e004 	ldr.w	lr, [sp, #4]
 8000bb8:	e9dd 2302 	ldrd	r2, r3, [sp, #8]
 8000bbc:	b004      	add	sp, #16
 8000bbe:	4770      	bx	lr

08000bc0 <__aeabi_d2ulz>:
 8000bc0:	b5d0      	push	{r4, r6, r7, lr}
 8000bc2:	2200      	movs	r2, #0
 8000bc4:	4b0e      	ldr	r3, [pc, #56]	; (8000c00 <__aeabi_d2ulz+0x40>)
 8000bc6:	4606      	mov	r6, r0
 8000bc8:	460f      	mov	r7, r1
 8000bca:	f7ff fd11 	bl	80005f0 <__aeabi_dmul>
 8000bce:	f7ff ffbf 	bl	8000b50 <__aeabi_d2uiz>
 8000bd2:	4604      	mov	r4, r0
 8000bd4:	f7ff fc96 	bl	8000504 <__aeabi_ui2d>
 8000bd8:	2200      	movs	r2, #0
 8000bda:	4b0a      	ldr	r3, [pc, #40]	; (8000c04 <__aeabi_d2ulz+0x44>)
 8000bdc:	f7ff fd08 	bl	80005f0 <__aeabi_dmul>
 8000be0:	4602      	mov	r2, r0
 8000be2:	460b      	mov	r3, r1
 8000be4:	4630      	mov	r0, r6
 8000be6:	4639      	mov	r1, r7
 8000be8:	f7ff fb4e 	bl	8000288 <__aeabi_dsub>
 8000bec:	f7ff ffb0 	bl	8000b50 <__aeabi_d2uiz>
 8000bf0:	4623      	mov	r3, r4
 8000bf2:	2200      	movs	r2, #0
 8000bf4:	ea42 0200 	orr.w	r2, r2, r0
 8000bf8:	4610      	mov	r0, r2
 8000bfa:	4619      	mov	r1, r3
 8000bfc:	bdd0      	pop	{r4, r6, r7, pc}
 8000bfe:	bf00      	nop
 8000c00:	3df00000 	.word	0x3df00000
 8000c04:	41f00000 	.word	0x41f00000

08000c08 <__udivmoddi4>:
 8000c08:	e92d 47f0 	stmdb	sp!, {r4, r5, r6, r7, r8, r9, sl, lr}
 8000c0c:	468c      	mov	ip, r1
 8000c0e:	460d      	mov	r5, r1
 8000c10:	4604      	mov	r4, r0
 8000c12:	9e08      	ldr	r6, [sp, #32]
 8000c14:	2b00      	cmp	r3, #0
 8000c16:	d151      	bne.n	8000cbc <__udivmoddi4+0xb4>
 8000c18:	428a      	cmp	r2, r1
 8000c1a:	4617      	mov	r7, r2
 8000c1c:	d96d      	bls.n	8000cfa <__udivmoddi4+0xf2>
 8000c1e:	fab2 fe82 	clz	lr, r2
 8000c22:	f1be 0f00 	cmp.w	lr, #0
 8000c26:	d00b      	beq.n	8000c40 <__udivmoddi4+0x38>
 8000c28:	f1ce 0c20 	rsb	ip, lr, #32
 8000c2c:	fa01 f50e 	lsl.w	r5, r1, lr
 8000c30:	fa20 fc0c 	lsr.w	ip, r0, ip
 8000c34:	fa02 f70e 	lsl.w	r7, r2, lr
 8000c38:	ea4c 0c05 	orr.w	ip, ip, r5
 8000c3c:	fa00 f40e 	lsl.w	r4, r0, lr
 8000c40:	ea4f 4a17 	mov.w	sl, r7, lsr #16
 8000c44:	0c25      	lsrs	r5, r4, #16
 8000c46:	fbbc f8fa 	udiv	r8, ip, sl
 8000c4a:	fa1f f987 	uxth.w	r9, r7
 8000c4e:	fb0a cc18 	mls	ip, sl, r8, ip
 8000c52:	ea45 450c 	orr.w	r5, r5, ip, lsl #16
 8000c56:	fb08 f309 	mul.w	r3, r8, r9
 8000c5a:	42ab      	cmp	r3, r5
 8000c5c:	d90a      	bls.n	8000c74 <__udivmoddi4+0x6c>
 8000c5e:	19ed      	adds	r5, r5, r7
 8000c60:	f108 32ff 	add.w	r2, r8, #4294967295
 8000c64:	f080 8123 	bcs.w	8000eae <__udivmoddi4+0x2a6>
 8000c68:	42ab      	cmp	r3, r5
 8000c6a:	f240 8120 	bls.w	8000eae <__udivmoddi4+0x2a6>
 8000c6e:	f1a8 0802 	sub.w	r8, r8, #2
 8000c72:	443d      	add	r5, r7
 8000c74:	1aed      	subs	r5, r5, r3
 8000c76:	b2a4      	uxth	r4, r4
 8000c78:	fbb5 f0fa 	udiv	r0, r5, sl
 8000c7c:	fb0a 5510 	mls	r5, sl, r0, r5
 8000c80:	ea44 4405 	orr.w	r4, r4, r5, lsl #16
 8000c84:	fb00 f909 	mul.w	r9, r0, r9
 8000c88:	45a1      	cmp	r9, r4
 8000c8a:	d909      	bls.n	8000ca0 <__udivmoddi4+0x98>
 8000c8c:	19e4      	adds	r4, r4, r7
 8000c8e:	f100 33ff 	add.w	r3, r0, #4294967295
 8000c92:	f080 810a 	bcs.w	8000eaa <__udivmoddi4+0x2a2>
 8000c96:	45a1      	cmp	r9, r4
 8000c98:	f240 8107 	bls.w	8000eaa <__udivmoddi4+0x2a2>
 8000c9c:	3802      	subs	r0, #2
 8000c9e:	443c      	add	r4, r7
 8000ca0:	eba4 0409 	sub.w	r4, r4, r9
 8000ca4:	ea40 4008 	orr.w	r0, r0, r8, lsl #16
 8000ca8:	2100      	movs	r1, #0
 8000caa:	2e00      	cmp	r6, #0
 8000cac:	d061      	beq.n	8000d72 <__udivmoddi4+0x16a>
 8000cae:	fa24 f40e 	lsr.w	r4, r4, lr
 8000cb2:	2300      	movs	r3, #0
 8000cb4:	6034      	str	r4, [r6, #0]
 8000cb6:	6073      	str	r3, [r6, #4]
 8000cb8:	e8bd 87f0 	ldmia.w	sp!, {r4, r5, r6, r7, r8, r9, sl, pc}
 8000cbc:	428b      	cmp	r3, r1
 8000cbe:	d907      	bls.n	8000cd0 <__udivmoddi4+0xc8>
 8000cc0:	2e00      	cmp	r6, #0
 8000cc2:	d054      	beq.n	8000d6e <__udivmoddi4+0x166>
 8000cc4:	2100      	movs	r1, #0
 8000cc6:	e886 0021 	stmia.w	r6, {r0, r5}
 8000cca:	4608      	mov	r0, r1
 8000ccc:	e8bd 87f0 	ldmia.w	sp!, {r4, r5, r6, r7, r8, r9, sl, pc}
 8000cd0:	fab3 f183 	clz	r1, r3
 8000cd4:	2900      	cmp	r1, #0
 8000cd6:	f040 808e 	bne.w	8000df6 <__udivmoddi4+0x1ee>
 8000cda:	42ab      	cmp	r3, r5
 8000cdc:	d302      	bcc.n	8000ce4 <__udivmoddi4+0xdc>
 8000cde:	4282      	cmp	r2, r0
 8000ce0:	f200 80fa 	bhi.w	8000ed8 <__udivmoddi4+0x2d0>
 8000ce4:	1a84      	subs	r4, r0, r2
 8000ce6:	eb65 0503 	sbc.w	r5, r5, r3
 8000cea:	2001      	movs	r0, #1
 8000cec:	46ac      	mov	ip, r5
 8000cee:	2e00      	cmp	r6, #0
 8000cf0:	d03f      	beq.n	8000d72 <__udivmoddi4+0x16a>
 8000cf2:	e886 1010 	stmia.w	r6, {r4, ip}
 8000cf6:	e8bd 87f0 	ldmia.w	sp!, {r4, r5, r6, r7, r8, r9, sl, pc}
 8000cfa:	b912      	cbnz	r2, 8000d02 <__udivmoddi4+0xfa>
 8000cfc:	2701      	movs	r7, #1
 8000cfe:	fbb7 f7f2 	udiv	r7, r7, r2
 8000d02:	fab7 fe87 	clz	lr, r7
 8000d06:	f1be 0f00 	cmp.w	lr, #0
 8000d0a:	d134      	bne.n	8000d76 <__udivmoddi4+0x16e>
 8000d0c:	1beb      	subs	r3, r5, r7
 8000d0e:	0c3a      	lsrs	r2, r7, #16
 8000d10:	fa1f fc87 	uxth.w	ip, r7
 8000d14:	2101      	movs	r1, #1
 8000d16:	fbb3 f8f2 	udiv	r8, r3, r2
 8000d1a:	0c25      	lsrs	r5, r4, #16
 8000d1c:	fb02 3318 	mls	r3, r2, r8, r3
 8000d20:	ea45 4503 	orr.w	r5, r5, r3, lsl #16
 8000d24:	fb0c f308 	mul.w	r3, ip, r8
 8000d28:	42ab      	cmp	r3, r5
 8000d2a:	d907      	bls.n	8000d3c <__udivmoddi4+0x134>
 8000d2c:	19ed      	adds	r5, r5, r7
 8000d2e:	f108 30ff 	add.w	r0, r8, #4294967295
 8000d32:	d202      	bcs.n	8000d3a <__udivmoddi4+0x132>
 8000d34:	42ab      	cmp	r3, r5
 8000d36:	f200 80d1 	bhi.w	8000edc <__udivmoddi4+0x2d4>
 8000d3a:	4680      	mov	r8, r0
 8000d3c:	1aed      	subs	r5, r5, r3
 8000d3e:	b2a3      	uxth	r3, r4
 8000d40:	fbb5 f0f2 	udiv	r0, r5, r2
 8000d44:	fb02 5510 	mls	r5, r2, r0, r5
 8000d48:	ea43 4405 	orr.w	r4, r3, r5, lsl #16
 8000d4c:	fb0c fc00 	mul.w	ip, ip, r0
 8000d50:	45a4      	cmp	ip, r4
 8000d52:	d907      	bls.n	8000d64 <__udivmoddi4+0x15c>
 8000d54:	19e4      	adds	r4, r4, r7
 8000d56:	f100 33ff 	add.w	r3, r0, #4294967295
 8000d5a:	d202      	bcs.n	8000d62 <__udivmoddi4+0x15a>
 8000d5c:	45a4      	cmp	ip, r4
 8000d5e:	f200 80b8 	bhi.w	8000ed2 <__udivmoddi4+0x2ca>
 8000d62:	4618      	mov	r0, r3
 8000d64:	eba4 040c 	sub.w	r4, r4, ip
 8000d68:	ea40 4008 	orr.w	r0, r0, r8, lsl #16
 8000d6c:	e79d      	b.n	8000caa <__udivmoddi4+0xa2>
 8000d6e:	4631      	mov	r1, r6
 8000d70:	4630      	mov	r0, r6
 8000d72:	e8bd 87f0 	ldmia.w	sp!, {r4, r5, r6, r7, r8, r9, sl, pc}
 8000d76:	f1ce 0420 	rsb	r4, lr, #32
 8000d7a:	fa05 f30e 	lsl.w	r3, r5, lr
 8000d7e:	fa07 f70e 	lsl.w	r7, r7, lr
 8000d82:	fa20 f804 	lsr.w	r8, r0, r4
 8000d86:	0c3a      	lsrs	r2, r7, #16
 8000d88:	fa25 f404 	lsr.w	r4, r5, r4
 8000d8c:	ea48 0803 	orr.w	r8, r8, r3
 8000d90:	fbb4 f1f2 	udiv	r1, r4, r2
 8000d94:	ea4f 4518 	mov.w	r5, r8, lsr #16
 8000d98:	fb02 4411 	mls	r4, r2, r1, r4
 8000d9c:	fa1f fc87 	uxth.w	ip, r7
 8000da0:	ea45 4504 	orr.w	r5, r5, r4, lsl #16
 8000da4:	fb01 f30c 	mul.w	r3, r1, ip
 8000da8:	42ab      	cmp	r3, r5
 8000daa:	fa00 f40e 	lsl.w	r4, r0, lr
 8000dae:	d909      	bls.n	8000dc4 <__udivmoddi4+0x1bc>
 8000db0:	19ed      	adds	r5, r5, r7
 8000db2:	f101 30ff 	add.w	r0, r1, #4294967295
 8000db6:	f080 808a 	bcs.w	8000ece <__udivmoddi4+0x2c6>
 8000dba:	42ab      	cmp	r3, r5
 8000dbc:	f240 8087 	bls.w	8000ece <__udivmoddi4+0x2c6>
 8000dc0:	3902      	subs	r1, #2
 8000dc2:	443d      	add	r5, r7
 8000dc4:	1aeb      	subs	r3, r5, r3
 8000dc6:	fa1f f588 	uxth.w	r5, r8
 8000dca:	fbb3 f0f2 	udiv	r0, r3, r2
 8000dce:	fb02 3310 	mls	r3, r2, r0, r3
 8000dd2:	ea45 4503 	orr.w	r5, r5, r3, lsl #16
 8000dd6:	fb00 f30c 	mul.w	r3, r0, ip
 8000dda:	42ab      	cmp	r3, r5
 8000ddc:	d907      	bls.n	8000dee <__udivmoddi4+0x1e6>
 8000dde:	19ed      	adds	r5, r5, r7
 8000de0:	f100 38ff 	add.w	r8, r0, #4294967295
 8000de4:	d26f      	bcs.n	8000ec6 <__udivmoddi4+0x2be>
 8000de6:	42ab      	cmp	r3, r5
 8000de8:	d96d      	bls.n	8000ec6 <__udivmoddi4+0x2be>
 8000dea:	3802      	subs	r0, #2
 8000dec:	443d      	add	r5, r7
 8000dee:	1aeb      	subs	r3, r5, r3
 8000df0:	ea40 4101 	orr.w	r1, r0, r1, lsl #16
 8000df4:	e78f      	b.n	8000d16 <__udivmoddi4+0x10e>
 8000df6:	f1c1 0720 	rsb	r7, r1, #32
 8000dfa:	fa22 f807 	lsr.w	r8, r2, r7
 8000dfe:	408b      	lsls	r3, r1
 8000e00:	fa05 f401 	lsl.w	r4, r5, r1
 8000e04:	ea48 0303 	orr.w	r3, r8, r3
 8000e08:	fa20 fe07 	lsr.w	lr, r0, r7
 8000e0c:	ea4f 4c13 	mov.w	ip, r3, lsr #16
 8000e10:	40fd      	lsrs	r5, r7
 8000e12:	ea4e 0e04 	orr.w	lr, lr, r4
 8000e16:	fbb5 f9fc 	udiv	r9, r5, ip
 8000e1a:	ea4f 441e 	mov.w	r4, lr, lsr #16
 8000e1e:	fb0c 5519 	mls	r5, ip, r9, r5
 8000e22:	fa1f f883 	uxth.w	r8, r3
 8000e26:	ea44 4505 	orr.w	r5, r4, r5, lsl #16
 8000e2a:	fb09 f408 	mul.w	r4, r9, r8
 8000e2e:	42ac      	cmp	r4, r5
 8000e30:	fa02 f201 	lsl.w	r2, r2, r1
 8000e34:	fa00 fa01 	lsl.w	sl, r0, r1
 8000e38:	d908      	bls.n	8000e4c <__udivmoddi4+0x244>
 8000e3a:	18ed      	adds	r5, r5, r3
 8000e3c:	f109 30ff 	add.w	r0, r9, #4294967295
 8000e40:	d243      	bcs.n	8000eca <__udivmoddi4+0x2c2>
 8000e42:	42ac      	cmp	r4, r5
 8000e44:	d941      	bls.n	8000eca <__udivmoddi4+0x2c2>
 8000e46:	f1a9 0902 	sub.w	r9, r9, #2
 8000e4a:	441d      	add	r5, r3
 8000e4c:	1b2d      	subs	r5, r5, r4
 8000e4e:	fa1f fe8e 	uxth.w	lr, lr
 8000e52:	fbb5 f0fc 	udiv	r0, r5, ip
 8000e56:	fb0c 5510 	mls	r5, ip, r0, r5
 8000e5a:	ea4e 4405 	orr.w	r4, lr, r5, lsl #16
 8000e5e:	fb00 f808 	mul.w	r8, r0, r8
 8000e62:	45a0      	cmp	r8, r4
 8000e64:	d907      	bls.n	8000e76 <__udivmoddi4+0x26e>
 8000e66:	18e4      	adds	r4, r4, r3
 8000e68:	f100 35ff 	add.w	r5, r0, #4294967295
 8000e6c:	d229      	bcs.n	8000ec2 <__udivmoddi4+0x2ba>
 8000e6e:	45a0      	cmp	r8, r4
 8000e70:	d927      	bls.n	8000ec2 <__udivmoddi4+0x2ba>
 8000e72:	3802      	subs	r0, #2
 8000e74:	441c      	add	r4, r3
 8000e76:	ea40 4009 	orr.w	r0, r0, r9, lsl #16
 8000e7a:	eba4 0408 	sub.w	r4, r4, r8
 8000e7e:	fba0 8902 	umull	r8, r9, r0, r2
 8000e82:	454c      	cmp	r4, r9
 8000e84:	46c6      	mov	lr, r8
 8000e86:	464d      	mov	r5, r9
 8000e88:	d315      	bcc.n	8000eb6 <__udivmoddi4+0x2ae>
 8000e8a:	d012      	beq.n	8000eb2 <__udivmoddi4+0x2aa>
 8000e8c:	b156      	cbz	r6, 8000ea4 <__udivmoddi4+0x29c>
 8000e8e:	ebba 030e 	subs.w	r3, sl, lr
 8000e92:	eb64 0405 	sbc.w	r4, r4, r5
 8000e96:	fa04 f707 	lsl.w	r7, r4, r7
 8000e9a:	40cb      	lsrs	r3, r1
 8000e9c:	431f      	orrs	r7, r3
 8000e9e:	40cc      	lsrs	r4, r1
 8000ea0:	6037      	str	r7, [r6, #0]
 8000ea2:	6074      	str	r4, [r6, #4]
 8000ea4:	2100      	movs	r1, #0
 8000ea6:	e8bd 87f0 	ldmia.w	sp!, {r4, r5, r6, r7, r8, r9, sl, pc}
 8000eaa:	4618      	mov	r0, r3
 8000eac:	e6f8      	b.n	8000ca0 <__udivmoddi4+0x98>
 8000eae:	4690      	mov	r8, r2
 8000eb0:	e6e0      	b.n	8000c74 <__udivmoddi4+0x6c>
 8000eb2:	45c2      	cmp	sl, r8
 8000eb4:	d2ea      	bcs.n	8000e8c <__udivmoddi4+0x284>
 8000eb6:	ebb8 0e02 	subs.w	lr, r8, r2
 8000eba:	eb69 0503 	sbc.w	r5, r9, r3
 8000ebe:	3801      	subs	r0, #1
 8000ec0:	e7e4      	b.n	8000e8c <__udivmoddi4+0x284>
 8000ec2:	4628      	mov	r0, r5
 8000ec4:	e7d7      	b.n	8000e76 <__udivmoddi4+0x26e>
 8000ec6:	4640      	mov	r0, r8
 8000ec8:	e791      	b.n	8000dee <__udivmoddi4+0x1e6>
 8000eca:	4681      	mov	r9, r0
 8000ecc:	e7be      	b.n	8000e4c <__udivmoddi4+0x244>
 8000ece:	4601      	mov	r1, r0
 8000ed0:	e778      	b.n	8000dc4 <__udivmoddi4+0x1bc>
 8000ed2:	3802      	subs	r0, #2
 8000ed4:	443c      	add	r4, r7
 8000ed6:	e745      	b.n	8000d64 <__udivmoddi4+0x15c>
 8000ed8:	4608      	mov	r0, r1
 8000eda:	e708      	b.n	8000cee <__udivmoddi4+0xe6>
 8000edc:	f1a8 0802 	sub.w	r8, r8, #2
 8000ee0:	443d      	add	r5, r7
 8000ee2:	e72b      	b.n	8000d3c <__udivmoddi4+0x134>

08000ee4 <__aeabi_idiv0>:
 8000ee4:	4770      	bx	lr
 8000ee6:	bf00      	nop

08000ee8 <HAL_InitTick>:
  * @retval HAL status
  */
__weak HAL_StatusTypeDef HAL_InitTick(uint32_t TickPriority)
{
  /*Configure the SysTick to have interrupt in 1ms time basis*/
  HAL_SYSTICK_Config(SystemCoreClock / 1000U);
 8000ee8:	4b08      	ldr	r3, [pc, #32]	; (8000f0c <HAL_InitTick+0x24>)
 8000eea:	4a09      	ldr	r2, [pc, #36]	; (8000f10 <HAL_InitTick+0x28>)
 8000eec:	681b      	ldr	r3, [r3, #0]
{
 8000eee:	b510      	push	{r4, lr}
  HAL_SYSTICK_Config(SystemCoreClock / 1000U);
 8000ef0:	fba2 2303 	umull	r2, r3, r2, r3
{
 8000ef4:	4604      	mov	r4, r0
  HAL_SYSTICK_Config(SystemCoreClock / 1000U);
 8000ef6:	0998      	lsrs	r0, r3, #6
 8000ef8:	f000 fd92 	bl	8001a20 <HAL_SYSTICK_Config>
 
  /*Configure the SysTick IRQ priority */
  HAL_NVIC_SetPriority(SysTick_IRQn, TickPriority ,0U);
 8000efc:	4621      	mov	r1, r4
 8000efe:	2200      	movs	r2, #0
 8000f00:	f04f 30ff 	mov.w	r0, #4294967295
 8000f04:	f000 fd4a 	bl	800199c <HAL_NVIC_SetPriority>

   /* Return function status */
  return HAL_OK;
}
 8000f08:	2000      	movs	r0, #0
 8000f0a:	bd10      	pop	{r4, pc}
 8000f0c:	20000000 	.word	0x20000000
 8000f10:	10624dd3 	.word	0x10624dd3

08000f14 <HAL_Init>:
  __HAL_FLASH_PREFETCH_BUFFER_ENABLE();
 8000f14:	4a07      	ldr	r2, [pc, #28]	; (8000f34 <HAL_Init+0x20>)
{
 8000f16:	b508      	push	{r3, lr}
  __HAL_FLASH_PREFETCH_BUFFER_ENABLE();
 8000f18:	6813      	ldr	r3, [r2, #0]
 8000f1a:	f043 0310 	orr.w	r3, r3, #16
 8000f1e:	6013      	str	r3, [r2, #0]
  HAL_NVIC_SetPriorityGrouping(NVIC_PRIORITYGROUP_4);
 8000f20:	2003      	movs	r0, #3
 8000f22:	f000 fd29 	bl	8001978 <HAL_NVIC_SetPriorityGrouping>
  HAL_InitTick(TICK_INT_PRIORITY);
 8000f26:	2000      	movs	r0, #0
 8000f28:	f7ff ffde 	bl	8000ee8 <HAL_InitTick>
  HAL_MspInit();
 8000f2c:	f003 f91a 	bl	8004164 <HAL_MspInit>
}
 8000f30:	2000      	movs	r0, #0
 8000f32:	bd08      	pop	{r3, pc}
 8000f34:	40022000 	.word	0x40022000

08000f38 <HAL_IncTick>:
  *         implementations  in user file.
  * @retval None
  */
__weak void HAL_IncTick(void)
{
  uwTick++;
 8000f38:	4a02      	ldr	r2, [pc, #8]	; (8000f44 <HAL_IncTick+0xc>)
 8000f3a:	6813      	ldr	r3, [r2, #0]
 8000f3c:	3301      	adds	r3, #1
 8000f3e:	6013      	str	r3, [r2, #0]
 8000f40:	4770      	bx	lr
 8000f42:	bf00      	nop
 8000f44:	20000150 	.word	0x20000150

08000f48 <HAL_GetTick>:
  *         implementations  in user file.
  * @retval tick value
  */
__weak uint32_t HAL_GetTick(void)
{
  return uwTick;  
 8000f48:	4b01      	ldr	r3, [pc, #4]	; (8000f50 <HAL_GetTick+0x8>)
 8000f4a:	6818      	ldr	r0, [r3, #0]
}
 8000f4c:	4770      	bx	lr
 8000f4e:	bf00      	nop
 8000f50:	20000150 	.word	0x20000150

08000f54 <HAL_ADC_ConvHalfCpltCallback>:
 8000f54:	4770      	bx	lr
 8000f56:	bf00      	nop

08000f58 <HAL_ADC_ErrorCallback>:
  *        (ADC conversion with interruption or transfer by DMA)
  * @param  hadc ADC handle
  * @retval None
  */
__weak void HAL_ADC_ErrorCallback(ADC_HandleTypeDef *hadc)
{
 8000f58:	4770      	bx	lr
 8000f5a:	bf00      	nop

08000f5c <ADC_ConversionStop>:
  assert_param(IS_ADC_ALL_INSTANCE(hadc->Instance));
  assert_param(IS_ADC_CONVERSION_GROUP(ConversionGroup));
    
  /* Verification if ADC is not already stopped (on regular and injected      */
  /* groups) to bypass this function if not needed.                           */
  if (ADC_IS_CONVERSION_ONGOING_REGULAR_INJECTED(hadc))
 8000f5c:	6803      	ldr	r3, [r0, #0]
 8000f5e:	689a      	ldr	r2, [r3, #8]
 8000f60:	f012 0f0c 	tst.w	r2, #12
 8000f64:	d032      	beq.n	8000fcc <ADC_ConversionStop+0x70>
    /* auto-delay mode.                                                       */
    /* In auto-injection mode, regular group stop ADC_CR_ADSTP is used (not   */
    /* injected group stop ADC_CR_JADSTP).                                    */
    /* Procedure to be followed: Wait until JEOS=1U, clear JEOS, set ADSTP=1   */
    /* (see reference manual).                                                */
    if ((HAL_IS_BIT_SET(hadc->Instance->CFGR, ADC_CFGR_JAUTO)) &&
 8000f66:	68da      	ldr	r2, [r3, #12]
{
 8000f68:	b570      	push	{r4, r5, r6, lr}
    if ((HAL_IS_BIT_SET(hadc->Instance->CFGR, ADC_CFGR_JAUTO)) &&
 8000f6a:	0195      	lsls	r5, r2, #6
 8000f6c:	4604      	mov	r4, r0
 8000f6e:	d502      	bpl.n	8000f76 <ADC_ConversionStop+0x1a>
 8000f70:	69c2      	ldr	r2, [r0, #28]
 8000f72:	2a01      	cmp	r2, #1
 8000f74:	d03d      	beq.n	8000ff2 <ADC_ConversionStop+0x96>
      /* Clear JEOS */
      __HAL_ADC_CLEAR_FLAG(hadc, ADC_FLAG_JEOS);
    }
    
    /* Stop potential conversion on going on regular group */
    if (ConversionGroup != ADC_INJECTED_GROUP)
 8000f76:	2960      	cmp	r1, #96	; 0x60
    {
      /* Software is allowed to set ADSTP only when ADSTART=1 and ADDIS=0U */
      if (HAL_IS_BIT_SET(hadc->Instance->CR, ADC_CR_ADSTART) && 
 8000f78:	689a      	ldr	r2, [r3, #8]
    if (ConversionGroup != ADC_INJECTED_GROUP)
 8000f7a:	d029      	beq.n	8000fd0 <ADC_ConversionStop+0x74>
      if (HAL_IS_BIT_SET(hadc->Instance->CR, ADC_CR_ADSTART) && 
 8000f7c:	0755      	lsls	r5, r2, #29
 8000f7e:	d502      	bpl.n	8000f86 <ADC_ConversionStop+0x2a>
          HAL_IS_BIT_CLR(hadc->Instance->CR, ADC_CR_ADDIS)     )
 8000f80:	689a      	ldr	r2, [r3, #8]
      if (HAL_IS_BIT_SET(hadc->Instance->CR, ADC_CR_ADSTART) && 
 8000f82:	0790      	lsls	r0, r2, #30
 8000f84:	d54b      	bpl.n	800101e <ADC_ConversionStop+0xc2>
        hadc->Instance->CR |= ADC_CR_ADSTP;
      }
    }

    /* Stop potential conversion on going on injected group */
    if (ConversionGroup != ADC_REGULAR_GROUP)
 8000f86:	290c      	cmp	r1, #12
 8000f88:	d029      	beq.n	8000fde <ADC_ConversionStop+0x82>
    {
      /* Software is allowed to set JADSTP only when JADSTART=1 and ADDIS=0U */
      if (HAL_IS_BIT_SET(hadc->Instance->CR, ADC_CR_JADSTART) && 
 8000f8a:	689a      	ldr	r2, [r3, #8]
 8000f8c:	0712      	lsls	r2, r2, #28
 8000f8e:	d428      	bmi.n	8000fe2 <ADC_ConversionStop+0x86>
        hadc->Instance->CR |= ADC_CR_JADSTP;
      }
    }

    /* Selection of start and stop bits in function of regular or injected group */
    switch(ConversionGroup)
 8000f90:	2960      	cmp	r1, #96	; 0x60
 8000f92:	d022      	beq.n	8000fda <ADC_ConversionStop+0x7e>
 8000f94:	296c      	cmp	r1, #108	; 0x6c
 8000f96:	d122      	bne.n	8000fde <ADC_ConversionStop+0x82>
    {
    case ADC_REGULAR_INJECTED_GROUP:
        tmp_ADC_CR_ADSTART_JADSTART = (ADC_CR_ADSTART | ADC_CR_JADSTART);
 8000f98:	250c      	movs	r5, #12
        tmp_ADC_CR_ADSTART_JADSTART = ADC_CR_ADSTART;
        break;
    }
    
    /* Wait for conversion effectively stopped */
    tickstart = HAL_GetTick();
 8000f9a:	f7ff ffd5 	bl	8000f48 <HAL_GetTick>
 8000f9e:	4606      	mov	r6, r0
      
    while((hadc->Instance->CR & tmp_ADC_CR_ADSTART_JADSTART) != RESET)
 8000fa0:	e004      	b.n	8000fac <ADC_ConversionStop+0x50>
    {
      if((HAL_GetTick() - tickstart) > ADC_STOP_CONVERSION_TIMEOUT)
 8000fa2:	f7ff ffd1 	bl	8000f48 <HAL_GetTick>
 8000fa6:	1b80      	subs	r0, r0, r6
 8000fa8:	280b      	cmp	r0, #11
 8000faa:	d805      	bhi.n	8000fb8 <ADC_ConversionStop+0x5c>
    while((hadc->Instance->CR & tmp_ADC_CR_ADSTART_JADSTART) != RESET)
 8000fac:	6823      	ldr	r3, [r4, #0]
 8000fae:	689b      	ldr	r3, [r3, #8]
 8000fb0:	421d      	tst	r5, r3
 8000fb2:	d1f6      	bne.n	8000fa2 <ADC_ConversionStop+0x46>
    }
    
  }
   
  /* Return HAL status */
  return HAL_OK;
 8000fb4:	2000      	movs	r0, #0
 8000fb6:	bd70      	pop	{r4, r5, r6, pc}
        SET_BIT(hadc->State, HAL_ADC_STATE_ERROR_INTERNAL);
 8000fb8:	6c63      	ldr	r3, [r4, #68]	; 0x44
 8000fba:	f043 0310 	orr.w	r3, r3, #16
 8000fbe:	6463      	str	r3, [r4, #68]	; 0x44
        SET_BIT(hadc->ErrorCode, HAL_ADC_ERROR_INTERNAL);
 8000fc0:	6ca3      	ldr	r3, [r4, #72]	; 0x48
 8000fc2:	f043 0301 	orr.w	r3, r3, #1
 8000fc6:	64a3      	str	r3, [r4, #72]	; 0x48
        return HAL_ERROR;
 8000fc8:	2001      	movs	r0, #1
 8000fca:	bd70      	pop	{r4, r5, r6, pc}
  return HAL_OK;
 8000fcc:	2000      	movs	r0, #0
}
 8000fce:	4770      	bx	lr
      if (HAL_IS_BIT_SET(hadc->Instance->CR, ADC_CR_JADSTART) && 
 8000fd0:	0715      	lsls	r5, r2, #28
 8000fd2:	d502      	bpl.n	8000fda <ADC_ConversionStop+0x7e>
          HAL_IS_BIT_CLR(hadc->Instance->CR, ADC_CR_ADDIS)      )
 8000fd4:	689a      	ldr	r2, [r3, #8]
      if (HAL_IS_BIT_SET(hadc->Instance->CR, ADC_CR_JADSTART) && 
 8000fd6:	0790      	lsls	r0, r2, #30
 8000fd8:	d506      	bpl.n	8000fe8 <ADC_ConversionStop+0x8c>
        tmp_ADC_CR_ADSTART_JADSTART = ADC_CR_JADSTART;
 8000fda:	2508      	movs	r5, #8
        break;
 8000fdc:	e7dd      	b.n	8000f9a <ADC_ConversionStop+0x3e>
        tmp_ADC_CR_ADSTART_JADSTART = ADC_CR_ADSTART;
 8000fde:	2504      	movs	r5, #4
        break;
 8000fe0:	e7db      	b.n	8000f9a <ADC_ConversionStop+0x3e>
          HAL_IS_BIT_CLR(hadc->Instance->CR, ADC_CR_ADDIS)      )
 8000fe2:	689a      	ldr	r2, [r3, #8]
      if (HAL_IS_BIT_SET(hadc->Instance->CR, ADC_CR_JADSTART) && 
 8000fe4:	0796      	lsls	r6, r2, #30
 8000fe6:	d4d3      	bmi.n	8000f90 <ADC_ConversionStop+0x34>
        hadc->Instance->CR |= ADC_CR_JADSTP;
 8000fe8:	689a      	ldr	r2, [r3, #8]
 8000fea:	f042 0220 	orr.w	r2, r2, #32
 8000fee:	609a      	str	r2, [r3, #8]
 8000ff0:	e7ce      	b.n	8000f90 <ADC_ConversionStop+0x34>
         (hadc->Init.ContinuousConvMode==ENABLE)               &&
 8000ff2:	6982      	ldr	r2, [r0, #24]
 8000ff4:	2a01      	cmp	r2, #1
 8000ff6:	d1be      	bne.n	8000f76 <ADC_ConversionStop+0x1a>
      while(__HAL_ADC_GET_FLAG(hadc, ADC_FLAG_JEOS) == RESET)
 8000ff8:	681a      	ldr	r2, [r3, #0]
 8000ffa:	0650      	lsls	r0, r2, #25
 8000ffc:	d406      	bmi.n	800100c <ADC_ConversionStop+0xb0>
 8000ffe:	4a0a      	ldr	r2, [pc, #40]	; (8001028 <ADC_ConversionStop+0xcc>)
 8001000:	e001      	b.n	8001006 <ADC_ConversionStop+0xaa>
        if (Conversion_Timeout_CPU_cycles >= (ADC_CONVERSION_TIME_MAX_CPU_CYCLES *4U))
 8001002:	3a01      	subs	r2, #1
 8001004:	d0d8      	beq.n	8000fb8 <ADC_ConversionStop+0x5c>
      while(__HAL_ADC_GET_FLAG(hadc, ADC_FLAG_JEOS) == RESET)
 8001006:	6819      	ldr	r1, [r3, #0]
 8001008:	0649      	lsls	r1, r1, #25
 800100a:	d5fa      	bpl.n	8001002 <ADC_ConversionStop+0xa6>
      __HAL_ADC_CLEAR_FLAG(hadc, ADC_FLAG_JEOS);
 800100c:	2240      	movs	r2, #64	; 0x40
 800100e:	601a      	str	r2, [r3, #0]
      if (HAL_IS_BIT_SET(hadc->Instance->CR, ADC_CR_ADSTART) && 
 8001010:	689a      	ldr	r2, [r3, #8]
 8001012:	0756      	lsls	r6, r2, #29
 8001014:	d5e3      	bpl.n	8000fde <ADC_ConversionStop+0x82>
          HAL_IS_BIT_CLR(hadc->Instance->CR, ADC_CR_ADDIS)     )
 8001016:	689a      	ldr	r2, [r3, #8]
      if (HAL_IS_BIT_SET(hadc->Instance->CR, ADC_CR_ADSTART) && 
 8001018:	0792      	lsls	r2, r2, #30
 800101a:	d4e0      	bmi.n	8000fde <ADC_ConversionStop+0x82>
      ConversionGroup = ADC_REGULAR_GROUP;
 800101c:	210c      	movs	r1, #12
        hadc->Instance->CR |= ADC_CR_ADSTP;
 800101e:	689a      	ldr	r2, [r3, #8]
 8001020:	f042 0210 	orr.w	r2, r2, #16
 8001024:	609a      	str	r2, [r3, #8]
 8001026:	e7ae      	b.n	8000f86 <ADC_ConversionStop+0x2a>
 8001028:	00099400 	.word	0x00099400

0800102c <ADC_DMAError>:
  ADC_HandleTypeDef* hadc = ( ADC_HandleTypeDef* )((DMA_HandleTypeDef* )hdma)->Parent;
 800102c:	6a40      	ldr	r0, [r0, #36]	; 0x24
  SET_BIT(hadc->State, HAL_ADC_STATE_ERROR_DMA);
 800102e:	6c43      	ldr	r3, [r0, #68]	; 0x44
 8001030:	f043 0340 	orr.w	r3, r3, #64	; 0x40
 8001034:	6443      	str	r3, [r0, #68]	; 0x44
  SET_BIT(hadc->ErrorCode, HAL_ADC_ERROR_DMA);
 8001036:	6c83      	ldr	r3, [r0, #72]	; 0x48
 8001038:	f043 0304 	orr.w	r3, r3, #4
 800103c:	6483      	str	r3, [r0, #72]	; 0x48
  HAL_ADC_ErrorCallback(hadc); 
 800103e:	f7ff bf8b 	b.w	8000f58 <HAL_ADC_ErrorCallback>
 8001042:	bf00      	nop

08001044 <ADC_DMAHalfConvCplt>:
  HAL_ADC_ConvHalfCpltCallback(hadc); 
 8001044:	6a40      	ldr	r0, [r0, #36]	; 0x24
 8001046:	f7ff bf85 	b.w	8000f54 <HAL_ADC_ConvHalfCpltCallback>
 800104a:	bf00      	nop

0800104c <ADC_DMAConvCplt>:
  ADC_HandleTypeDef* hadc = ( ADC_HandleTypeDef* )((DMA_HandleTypeDef* )hdma)->Parent;
 800104c:	6a43      	ldr	r3, [r0, #36]	; 0x24
  if (HAL_IS_BIT_CLR(hadc->State, HAL_ADC_STATE_ERROR_INTERNAL | HAL_ADC_STATE_ERROR_DMA))
 800104e:	6c5a      	ldr	r2, [r3, #68]	; 0x44
 8001050:	f012 0f50 	tst.w	r2, #80	; 0x50
 8001054:	d118      	bne.n	8001088 <ADC_DMAConvCplt+0x3c>
    SET_BIT(hadc->State, HAL_ADC_STATE_REG_EOC);
 8001056:	6c5a      	ldr	r2, [r3, #68]	; 0x44
    if(ADC_IS_SOFTWARE_START_REGULAR(hadc)        && 
 8001058:	6819      	ldr	r1, [r3, #0]
    SET_BIT(hadc->State, HAL_ADC_STATE_REG_EOC);
 800105a:	f442 7200 	orr.w	r2, r2, #512	; 0x200
 800105e:	645a      	str	r2, [r3, #68]	; 0x44
    if(ADC_IS_SOFTWARE_START_REGULAR(hadc)        && 
 8001060:	68ca      	ldr	r2, [r1, #12]
 8001062:	f412 6f40 	tst.w	r2, #3072	; 0xc00
 8001066:	d10c      	bne.n	8001082 <ADC_DMAConvCplt+0x36>
 8001068:	69da      	ldr	r2, [r3, #28]
 800106a:	b952      	cbnz	r2, 8001082 <ADC_DMAConvCplt+0x36>
      CLEAR_BIT(hadc->State, HAL_ADC_STATE_REG_BUSY);   
 800106c:	6c5a      	ldr	r2, [r3, #68]	; 0x44
 800106e:	f422 7280 	bic.w	r2, r2, #256	; 0x100
 8001072:	645a      	str	r2, [r3, #68]	; 0x44
      if (HAL_IS_BIT_CLR(hadc->State, HAL_ADC_STATE_INJ_BUSY))
 8001074:	6c5a      	ldr	r2, [r3, #68]	; 0x44
 8001076:	04d2      	lsls	r2, r2, #19
 8001078:	d403      	bmi.n	8001082 <ADC_DMAConvCplt+0x36>
        SET_BIT(hadc->State, HAL_ADC_STATE_READY);
 800107a:	6c5a      	ldr	r2, [r3, #68]	; 0x44
 800107c:	f042 0201 	orr.w	r2, r2, #1
 8001080:	645a      	str	r2, [r3, #68]	; 0x44
    HAL_ADC_ConvCpltCallback(hadc); 
 8001082:	4618      	mov	r0, r3
 8001084:	f002 babe 	b.w	8003604 <HAL_ADC_ConvCpltCallback>
    hadc->DMA_Handle->XferErrorCallback(hdma);
 8001088:	6bdb      	ldr	r3, [r3, #60]	; 0x3c
 800108a:	6b1b      	ldr	r3, [r3, #48]	; 0x30
 800108c:	4718      	bx	r3
 800108e:	bf00      	nop

08001090 <HAL_ADC_Init>:
{
 8001090:	b5f0      	push	{r4, r5, r6, r7, lr}
 8001092:	b083      	sub	sp, #12
  __IO uint32_t wait_loop_index = 0U;
 8001094:	2300      	movs	r3, #0
 8001096:	9301      	str	r3, [sp, #4]
  if(hadc == NULL)
 8001098:	2800      	cmp	r0, #0
 800109a:	f000 8099 	beq.w	80011d0 <HAL_ADC_Init+0x140>
  if (HAL_IS_BIT_CLR(hadc->State, HAL_ADC_STATE_ERROR_INTERNAL))
 800109e:	6c43      	ldr	r3, [r0, #68]	; 0x44
 80010a0:	f013 0310 	ands.w	r3, r3, #16
 80010a4:	4604      	mov	r4, r0
 80010a6:	d117      	bne.n	80010d8 <HAL_ADC_Init+0x48>
    if (hadc->State == HAL_ADC_STATE_RESET)
 80010a8:	6c45      	ldr	r5, [r0, #68]	; 0x44
 80010aa:	2d00      	cmp	r5, #0
 80010ac:	f000 8083 	beq.w	80011b6 <HAL_ADC_Init+0x126>
 80010b0:	6802      	ldr	r2, [r0, #0]
    if (HAL_IS_BIT_CLR(hadc->Instance->CR, ADC_CR_ADVREGEN_0) ||
 80010b2:	6891      	ldr	r1, [r2, #8]
 80010b4:	00c8      	lsls	r0, r1, #3
 80010b6:	d572      	bpl.n	800119e <HAL_ADC_Init+0x10e>
        HAL_IS_BIT_SET(hadc->Instance->CR, ADC_CR_ADVREGEN_1)   )
 80010b8:	6891      	ldr	r1, [r2, #8]
    if (HAL_IS_BIT_CLR(hadc->Instance->CR, ADC_CR_ADVREGEN_0) ||
 80010ba:	0089      	lsls	r1, r1, #2
 80010bc:	d46f      	bmi.n	800119e <HAL_ADC_Init+0x10e>
  if (HAL_IS_BIT_CLR(hadc->State, HAL_ADC_STATE_ERROR_INTERNAL) &&
 80010be:	6c61      	ldr	r1, [r4, #68]	; 0x44
 80010c0:	06cf      	lsls	r7, r1, #27
 80010c2:	d400      	bmi.n	80010c6 <HAL_ADC_Init+0x36>
 80010c4:	b163      	cbz	r3, 80010e0 <HAL_ADC_Init+0x50>
    ADC_STATE_CLR_SET(hadc->State,
 80010c6:	6c63      	ldr	r3, [r4, #68]	; 0x44
 80010c8:	f023 0312 	bic.w	r3, r3, #18
 80010cc:	f043 0310 	orr.w	r3, r3, #16
    tmp_hal_status = HAL_ERROR; 
 80010d0:	2001      	movs	r0, #1
    ADC_STATE_CLR_SET(hadc->State,
 80010d2:	6463      	str	r3, [r4, #68]	; 0x44
}
 80010d4:	b003      	add	sp, #12
 80010d6:	bdf0      	pop	{r4, r5, r6, r7, pc}
  if (HAL_IS_BIT_CLR(hadc->State, HAL_ADC_STATE_ERROR_INTERNAL) &&
 80010d8:	6c43      	ldr	r3, [r0, #68]	; 0x44
 80010da:	06db      	lsls	r3, r3, #27
 80010dc:	d4f3      	bmi.n	80010c6 <HAL_ADC_Init+0x36>
 80010de:	6802      	ldr	r2, [r0, #0]
      (ADC_IS_CONVERSION_ONGOING_REGULAR(hadc) == RESET)          )
 80010e0:	6890      	ldr	r0, [r2, #8]
      (tmp_hal_status == HAL_OK)                                &&
 80010e2:	f010 0004 	ands.w	r0, r0, #4
 80010e6:	d1ee      	bne.n	80010c6 <HAL_ADC_Init+0x36>
    ADC_STATE_CLR_SET(hadc->State,
 80010e8:	6c61      	ldr	r1, [r4, #68]	; 0x44
 80010ea:	f421 7181 	bic.w	r1, r1, #258	; 0x102
 80010ee:	f041 0102 	orr.w	r1, r1, #2
 80010f2:	6461      	str	r1, [r4, #68]	; 0x44
    if ((ADC_IS_ENABLE(hadc) == RESET)                                   &&
 80010f4:	6893      	ldr	r3, [r2, #8]
    ADC_COMMON_ADC_OTHER(hadc, &tmphadcSharingSameCommonRegister);
 80010f6:	f1b2 4fa0 	cmp.w	r2, #1342177280	; 0x50000000
    if ((ADC_IS_ENABLE(hadc) == RESET)                                   &&
 80010fa:	f003 0303 	and.w	r3, r3, #3
    ADC_COMMON_ADC_OTHER(hadc, &tmphadcSharingSameCommonRegister);
 80010fe:	f000 80a3 	beq.w	8001248 <HAL_ADC_Init+0x1b8>
    if ((ADC_IS_ENABLE(hadc) == RESET)                                   &&
 8001102:	2b01      	cmp	r3, #1
    ADC_COMMON_ADC_OTHER(hadc, &tmphadcSharingSameCommonRegister);
 8001104:	f04f 41a0 	mov.w	r1, #1342177280	; 0x50000000
    if ((ADC_IS_ENABLE(hadc) == RESET)                                   &&
 8001108:	f000 80a2 	beq.w	8001250 <HAL_ADC_Init+0x1c0>
         (ADC_IS_ENABLE(&tmphadcSharingSameCommonRegister) == RESET)   )   )
 800110c:	688b      	ldr	r3, [r1, #8]
 800110e:	f003 0303 	and.w	r3, r3, #3
 8001112:	2b01      	cmp	r3, #1
 8001114:	d05f      	beq.n	80011d6 <HAL_ADC_Init+0x146>
      MODIFY_REG(tmpADC_Common->CCR       ,
 8001116:	4972      	ldr	r1, [pc, #456]	; (80012e0 <HAL_ADC_Init+0x250>)
 8001118:	6865      	ldr	r5, [r4, #4]
 800111a:	688b      	ldr	r3, [r1, #8]
 800111c:	f423 3340 	bic.w	r3, r3, #196608	; 0x30000
 8001120:	432b      	orrs	r3, r5
 8001122:	608b      	str	r3, [r1, #8]
    SET_BIT(tmpCFGR, ADC_CFGR_CONTINUOUS(hadc->Init.ContinuousConvMode) |
 8001124:	6ba7      	ldr	r7, [r4, #56]	; 0x38
 8001126:	68e1      	ldr	r1, [r4, #12]
 8001128:	68a3      	ldr	r3, [r4, #8]
 800112a:	69e6      	ldr	r6, [r4, #28]
    if (hadc->Init.DiscontinuousConvMode == ENABLE)
 800112c:	6a65      	ldr	r5, [r4, #36]	; 0x24
    SET_BIT(tmpCFGR, ADC_CFGR_CONTINUOUS(hadc->Init.ContinuousConvMode) |
 800112e:	2f01      	cmp	r7, #1
 8001130:	ea43 0301 	orr.w	r3, r3, r1
 8001134:	bf18      	it	ne
 8001136:	f44f 5080 	movne.w	r0, #4096	; 0x1000
 800113a:	ea43 3346 	orr.w	r3, r3, r6, lsl #13
    if (hadc->Init.DiscontinuousConvMode == ENABLE)
 800113e:	2d01      	cmp	r5, #1
    SET_BIT(tmpCFGR, ADC_CFGR_CONTINUOUS(hadc->Init.ContinuousConvMode) |
 8001140:	ea40 0003 	orr.w	r0, r0, r3
    if (hadc->Init.DiscontinuousConvMode == ENABLE)
 8001144:	d078      	beq.n	8001238 <HAL_ADC_Init+0x1a8>
    if (hadc->Init.ExternalTrigConv != ADC_SOFTWARE_START)
 8001146:	6ae3      	ldr	r3, [r4, #44]	; 0x2c
 8001148:	2b01      	cmp	r3, #1
 800114a:	d002      	beq.n	8001152 <HAL_ADC_Init+0xc2>
      SET_BIT(tmpCFGR, ADC_CFGR_EXTSEL_SET(hadc, hadc->Init.ExternalTrigConv) |
 800114c:	6b21      	ldr	r1, [r4, #48]	; 0x30
 800114e:	430b      	orrs	r3, r1
 8001150:	4318      	orrs	r0, r3
    if (ADC_IS_CONVERSION_ONGOING_REGULAR_INJECTED(hadc) == RESET)
 8001152:	6893      	ldr	r3, [r2, #8]
 8001154:	f013 0f0c 	tst.w	r3, #12
 8001158:	d10b      	bne.n	8001172 <HAL_ADC_Init+0xe2>
      CLEAR_BIT(hadc->Instance->CFGR, ADC_CFGR_AUTDLY |
 800115a:	68d1      	ldr	r1, [r2, #12]
      SET_BIT(tmpCFGR, ADC_CFGR_AUTOWAIT(hadc->Init.LowPowerAutoWait)       |
 800115c:	6b63      	ldr	r3, [r4, #52]	; 0x34
 800115e:	69a5      	ldr	r5, [r4, #24]
      CLEAR_BIT(hadc->Instance->CFGR, ADC_CFGR_AUTDLY |
 8001160:	f421 4180 	bic.w	r1, r1, #16384	; 0x4000
      SET_BIT(tmpCFGR, ADC_CFGR_AUTOWAIT(hadc->Init.LowPowerAutoWait)       |
 8001164:	005b      	lsls	r3, r3, #1
      CLEAR_BIT(hadc->Instance->CFGR, ADC_CFGR_AUTDLY |
 8001166:	f021 0102 	bic.w	r1, r1, #2
      SET_BIT(tmpCFGR, ADC_CFGR_AUTOWAIT(hadc->Init.LowPowerAutoWait)       |
 800116a:	ea43 3385 	orr.w	r3, r3, r5, lsl #14
      CLEAR_BIT(hadc->Instance->CFGR, ADC_CFGR_AUTDLY |
 800116e:	60d1      	str	r1, [r2, #12]
      SET_BIT(tmpCFGR, ADC_CFGR_AUTOWAIT(hadc->Init.LowPowerAutoWait)       |
 8001170:	4318      	orrs	r0, r3
    MODIFY_REG(hadc->Instance->CFGR,
 8001172:	68d5      	ldr	r5, [r2, #12]
 8001174:	4b5b      	ldr	r3, [pc, #364]	; (80012e4 <HAL_ADC_Init+0x254>)
    if (hadc->Init.ScanConvMode == ADC_SCAN_ENABLE)
 8001176:	6921      	ldr	r1, [r4, #16]
    MODIFY_REG(hadc->Instance->CFGR,
 8001178:	402b      	ands	r3, r5
 800117a:	4303      	orrs	r3, r0
    if (hadc->Init.ScanConvMode == ADC_SCAN_ENABLE)
 800117c:	2901      	cmp	r1, #1
    MODIFY_REG(hadc->Instance->CFGR,
 800117e:	60d3      	str	r3, [r2, #12]
    if (hadc->Init.ScanConvMode == ADC_SCAN_ENABLE)
 8001180:	d06b      	beq.n	800125a <HAL_ADC_Init+0x1ca>
      CLEAR_BIT(hadc->Instance->SQR1, ADC_SQR1_L);
 8001182:	6b13      	ldr	r3, [r2, #48]	; 0x30
 8001184:	f023 030f 	bic.w	r3, r3, #15
 8001188:	6313      	str	r3, [r2, #48]	; 0x30
    ADC_CLEAR_ERRORCODE(hadc);
 800118a:	2000      	movs	r0, #0
 800118c:	64a0      	str	r0, [r4, #72]	; 0x48
    ADC_STATE_CLR_SET(hadc->State,
 800118e:	6c63      	ldr	r3, [r4, #68]	; 0x44
 8001190:	f023 0303 	bic.w	r3, r3, #3
 8001194:	f043 0301 	orr.w	r3, r3, #1
 8001198:	6463      	str	r3, [r4, #68]	; 0x44
}
 800119a:	b003      	add	sp, #12
 800119c:	bdf0      	pop	{r4, r5, r6, r7, pc}
      ADC_STATE_CLR_SET(hadc->State,
 800119e:	6c63      	ldr	r3, [r4, #68]	; 0x44
 80011a0:	f023 0312 	bic.w	r3, r3, #18
 80011a4:	f043 0310 	orr.w	r3, r3, #16
 80011a8:	6463      	str	r3, [r4, #68]	; 0x44
      SET_BIT(hadc->ErrorCode, HAL_ADC_ERROR_INTERNAL);
 80011aa:	6ca3      	ldr	r3, [r4, #72]	; 0x48
 80011ac:	f043 0301 	orr.w	r3, r3, #1
 80011b0:	64a3      	str	r3, [r4, #72]	; 0x48
  if (HAL_IS_BIT_CLR(hadc->State, HAL_ADC_STATE_ERROR_INTERNAL) &&
 80011b2:	6c63      	ldr	r3, [r4, #68]	; 0x44
 80011b4:	e787      	b.n	80010c6 <HAL_ADC_Init+0x36>
      ADC_CLEAR_ERRORCODE(hadc);
 80011b6:	6485      	str	r5, [r0, #72]	; 0x48
      hadc->InjectionConfig.ChannelCount = 0U;
 80011b8:	6505      	str	r5, [r0, #80]	; 0x50
      hadc->InjectionConfig.ContextQueue = 0U;
 80011ba:	64c5      	str	r5, [r0, #76]	; 0x4c
      hadc->Lock = HAL_UNLOCKED;
 80011bc:	f880 5040 	strb.w	r5, [r0, #64]	; 0x40
      HAL_ADC_MspInit(hadc);
 80011c0:	f003 f80e 	bl	80041e0 <HAL_ADC_MspInit>
      if (HAL_IS_BIT_CLR(hadc->Instance->CR, ADC_CR_ADVREGEN_0))
 80011c4:	6822      	ldr	r2, [r4, #0]
 80011c6:	6893      	ldr	r3, [r2, #8]
 80011c8:	00df      	lsls	r7, r3, #3
 80011ca:	d508      	bpl.n	80011de <HAL_ADC_Init+0x14e>
  return HAL_OK;
 80011cc:	2300      	movs	r3, #0
 80011ce:	e770      	b.n	80010b2 <HAL_ADC_Init+0x22>
    return HAL_ERROR;
 80011d0:	2001      	movs	r0, #1
}
 80011d2:	b003      	add	sp, #12
 80011d4:	bdf0      	pop	{r4, r5, r6, r7, pc}
         (ADC_IS_ENABLE(&tmphadcSharingSameCommonRegister) == RESET)   )   )
 80011d6:	680b      	ldr	r3, [r1, #0]
 80011d8:	07dd      	lsls	r5, r3, #31
 80011da:	d4a3      	bmi.n	8001124 <HAL_ADC_Init+0x94>
 80011dc:	e79b      	b.n	8001116 <HAL_ADC_Init+0x86>
  if (ADC_IS_ENABLE(hadc) != RESET )
 80011de:	6893      	ldr	r3, [r2, #8]
 80011e0:	f003 0303 	and.w	r3, r3, #3
 80011e4:	2b01      	cmp	r3, #1
 80011e6:	d04b      	beq.n	8001280 <HAL_ADC_Init+0x1f0>
        if (HAL_IS_BIT_CLR(hadc->State, HAL_ADC_STATE_ERROR_INTERNAL) &&
 80011e8:	6c63      	ldr	r3, [r4, #68]	; 0x44
 80011ea:	06dd      	lsls	r5, r3, #27
 80011ec:	d4ee      	bmi.n	80011cc <HAL_ADC_Init+0x13c>
          ADC_STATE_CLR_SET(hadc->State,
 80011ee:	6c61      	ldr	r1, [r4, #68]	; 0x44
          wait_loop_index = (ADC_STAB_DELAY_US * (SystemCoreClock / 1000000U));
 80011f0:	4b3d      	ldr	r3, [pc, #244]	; (80012e8 <HAL_ADC_Init+0x258>)
 80011f2:	483e      	ldr	r0, [pc, #248]	; (80012ec <HAL_ADC_Init+0x25c>)
 80011f4:	681b      	ldr	r3, [r3, #0]
          ADC_STATE_CLR_SET(hadc->State,
 80011f6:	f421 5188 	bic.w	r1, r1, #4352	; 0x1100
 80011fa:	f021 0102 	bic.w	r1, r1, #2
 80011fe:	f041 0102 	orr.w	r1, r1, #2
 8001202:	6461      	str	r1, [r4, #68]	; 0x44
          CLEAR_BIT(hadc->Instance->CR, (ADC_CR_ADVREGEN_1 | ADC_CR_ADVREGEN_0));
 8001204:	6891      	ldr	r1, [r2, #8]
 8001206:	f021 5140 	bic.w	r1, r1, #805306368	; 0x30000000
 800120a:	6091      	str	r1, [r2, #8]
          wait_loop_index = (ADC_STAB_DELAY_US * (SystemCoreClock / 1000000U));
 800120c:	fba0 1303 	umull	r1, r3, r0, r3
 8001210:	0c9b      	lsrs	r3, r3, #18
          SET_BIT(hadc->Instance->CR, ADC_CR_ADVREGEN_0);
 8001212:	6891      	ldr	r1, [r2, #8]
          wait_loop_index = (ADC_STAB_DELAY_US * (SystemCoreClock / 1000000U));
 8001214:	eb03 0383 	add.w	r3, r3, r3, lsl #2
 8001218:	005b      	lsls	r3, r3, #1
          SET_BIT(hadc->Instance->CR, ADC_CR_ADVREGEN_0);
 800121a:	f041 5180 	orr.w	r1, r1, #268435456	; 0x10000000
 800121e:	6091      	str	r1, [r2, #8]
          wait_loop_index = (ADC_STAB_DELAY_US * (SystemCoreClock / 1000000U));
 8001220:	9301      	str	r3, [sp, #4]
          while(wait_loop_index != 0U)
 8001222:	9b01      	ldr	r3, [sp, #4]
 8001224:	2b00      	cmp	r3, #0
 8001226:	f43f af44 	beq.w	80010b2 <HAL_ADC_Init+0x22>
            wait_loop_index--;
 800122a:	9b01      	ldr	r3, [sp, #4]
 800122c:	3b01      	subs	r3, #1
 800122e:	9301      	str	r3, [sp, #4]
          while(wait_loop_index != 0U)
 8001230:	9b01      	ldr	r3, [sp, #4]
 8001232:	2b00      	cmp	r3, #0
 8001234:	d1f9      	bne.n	800122a <HAL_ADC_Init+0x19a>
 8001236:	e73c      	b.n	80010b2 <HAL_ADC_Init+0x22>
      if (hadc->Init.ContinuousConvMode == DISABLE)
 8001238:	b9be      	cbnz	r6, 800126a <HAL_ADC_Init+0x1da>
        SET_BIT(tmpCFGR, ADC_CFGR_DISCEN                                            |
 800123a:	6aa3      	ldr	r3, [r4, #40]	; 0x28
 800123c:	3b01      	subs	r3, #1
 800123e:	ea40 4343 	orr.w	r3, r0, r3, lsl #17
 8001242:	f443 3080 	orr.w	r0, r3, #65536	; 0x10000
 8001246:	e77e      	b.n	8001146 <HAL_ADC_Init+0xb6>
    if ((ADC_IS_ENABLE(hadc) == RESET)                                   &&
 8001248:	2b01      	cmp	r3, #1
    ADC_COMMON_ADC_OTHER(hadc, &tmphadcSharingSameCommonRegister);
 800124a:	4929      	ldr	r1, [pc, #164]	; (80012f0 <HAL_ADC_Init+0x260>)
    if ((ADC_IS_ENABLE(hadc) == RESET)                                   &&
 800124c:	f47f af5e 	bne.w	800110c <HAL_ADC_Init+0x7c>
 8001250:	6813      	ldr	r3, [r2, #0]
 8001252:	07de      	lsls	r6, r3, #31
 8001254:	f53f af66 	bmi.w	8001124 <HAL_ADC_Init+0x94>
 8001258:	e758      	b.n	800110c <HAL_ADC_Init+0x7c>
      MODIFY_REG(hadc->Instance->SQR1                     ,
 800125a:	6b11      	ldr	r1, [r2, #48]	; 0x30
 800125c:	6a23      	ldr	r3, [r4, #32]
 800125e:	f021 010f 	bic.w	r1, r1, #15
 8001262:	3b01      	subs	r3, #1
 8001264:	430b      	orrs	r3, r1
 8001266:	6313      	str	r3, [r2, #48]	; 0x30
 8001268:	e78f      	b.n	800118a <HAL_ADC_Init+0xfa>
        ADC_STATE_CLR_SET(hadc->State,
 800126a:	6c63      	ldr	r3, [r4, #68]	; 0x44
 800126c:	f023 0322 	bic.w	r3, r3, #34	; 0x22
 8001270:	f043 0320 	orr.w	r3, r3, #32
 8001274:	6463      	str	r3, [r4, #68]	; 0x44
        SET_BIT(hadc->ErrorCode, HAL_ADC_ERROR_INTERNAL);
 8001276:	6ca3      	ldr	r3, [r4, #72]	; 0x48
 8001278:	f043 0301 	orr.w	r3, r3, #1
 800127c:	64a3      	str	r3, [r4, #72]	; 0x48
 800127e:	e762      	b.n	8001146 <HAL_ADC_Init+0xb6>
  if (ADC_IS_ENABLE(hadc) != RESET )
 8001280:	6813      	ldr	r3, [r2, #0]
 8001282:	07de      	lsls	r6, r3, #31
 8001284:	d5b0      	bpl.n	80011e8 <HAL_ADC_Init+0x158>
    if (ADC_DISABLING_CONDITIONS(hadc) != RESET)
 8001286:	6893      	ldr	r3, [r2, #8]
 8001288:	f003 030d 	and.w	r3, r3, #13
 800128c:	2b01      	cmp	r3, #1
 800128e:	d00a      	beq.n	80012a6 <HAL_ADC_Init+0x216>
      SET_BIT(hadc->State, HAL_ADC_STATE_ERROR_INTERNAL);
 8001290:	6c63      	ldr	r3, [r4, #68]	; 0x44
        SET_BIT(hadc->State, HAL_ADC_STATE_ERROR_INTERNAL);
 8001292:	f043 0310 	orr.w	r3, r3, #16
 8001296:	6463      	str	r3, [r4, #68]	; 0x44
        SET_BIT(hadc->ErrorCode, HAL_ADC_ERROR_INTERNAL);
 8001298:	6ca3      	ldr	r3, [r4, #72]	; 0x48
 800129a:	f043 0301 	orr.w	r3, r3, #1
 800129e:	64a3      	str	r3, [r4, #72]	; 0x48
        if (HAL_IS_BIT_CLR(hadc->State, HAL_ADC_STATE_ERROR_INTERNAL) &&
 80012a0:	6c63      	ldr	r3, [r4, #68]	; 0x44
 80012a2:	2301      	movs	r3, #1
 80012a4:	e705      	b.n	80010b2 <HAL_ADC_Init+0x22>
      __HAL_ADC_DISABLE(hadc);
 80012a6:	6893      	ldr	r3, [r2, #8]
 80012a8:	2103      	movs	r1, #3
 80012aa:	f043 0302 	orr.w	r3, r3, #2
 80012ae:	6093      	str	r3, [r2, #8]
 80012b0:	6011      	str	r1, [r2, #0]
    tickstart = HAL_GetTick();
 80012b2:	f7ff fe49 	bl	8000f48 <HAL_GetTick>
 80012b6:	4605      	mov	r5, r0
 80012b8:	e004      	b.n	80012c4 <HAL_ADC_Init+0x234>
      if((HAL_GetTick() - tickstart) > ADC_DISABLE_TIMEOUT)
 80012ba:	f7ff fe45 	bl	8000f48 <HAL_GetTick>
 80012be:	1b40      	subs	r0, r0, r5
 80012c0:	2802      	cmp	r0, #2
 80012c2:	d809      	bhi.n	80012d8 <HAL_ADC_Init+0x248>
    while(HAL_IS_BIT_SET(hadc->Instance->CR, ADC_CR_ADEN))
 80012c4:	6822      	ldr	r2, [r4, #0]
 80012c6:	6893      	ldr	r3, [r2, #8]
 80012c8:	f013 0301 	ands.w	r3, r3, #1
 80012cc:	d1f5      	bne.n	80012ba <HAL_ADC_Init+0x22a>
        if (HAL_IS_BIT_CLR(hadc->State, HAL_ADC_STATE_ERROR_INTERNAL) &&
 80012ce:	6c61      	ldr	r1, [r4, #68]	; 0x44
 80012d0:	06c9      	lsls	r1, r1, #27
 80012d2:	f53f aeee 	bmi.w	80010b2 <HAL_ADC_Init+0x22>
 80012d6:	e78a      	b.n	80011ee <HAL_ADC_Init+0x15e>
        SET_BIT(hadc->State, HAL_ADC_STATE_ERROR_INTERNAL);
 80012d8:	6c63      	ldr	r3, [r4, #68]	; 0x44
 80012da:	6822      	ldr	r2, [r4, #0]
 80012dc:	e7d9      	b.n	8001292 <HAL_ADC_Init+0x202>
 80012de:	bf00      	nop
 80012e0:	50000300 	.word	0x50000300
 80012e4:	fff0c007 	.word	0xfff0c007
 80012e8:	20000000 	.word	0x20000000
 80012ec:	431bde83 	.word	0x431bde83
 80012f0:	50000100 	.word	0x50000100

080012f4 <HAL_ADC_Start_DMA>:
{
 80012f4:	e92d 41f0 	stmdb	sp!, {r4, r5, r6, r7, r8, lr}
  if (ADC_IS_CONVERSION_ONGOING_REGULAR(hadc) == RESET)
 80012f8:	6805      	ldr	r5, [r0, #0]
 80012fa:	68ac      	ldr	r4, [r5, #8]
 80012fc:	0767      	lsls	r7, r4, #29
 80012fe:	d502      	bpl.n	8001306 <HAL_ADC_Start_DMA+0x12>
    tmp_hal_status = HAL_BUSY;
 8001300:	2002      	movs	r0, #2
 8001302:	e8bd 81f0 	ldmia.w	sp!, {r4, r5, r6, r7, r8, pc}
    __HAL_LOCK(hadc);
 8001306:	f890 3040 	ldrb.w	r3, [r0, #64]	; 0x40
 800130a:	2b01      	cmp	r3, #1
 800130c:	d0f8      	beq.n	8001300 <HAL_ADC_Start_DMA+0xc>
    if(ADC_COMMON_CCR_MULTI(hadc) == RESET)
 800130e:	4b46      	ldr	r3, [pc, #280]	; (8001428 <HAL_ADC_Start_DMA+0x134>)
 8001310:	689b      	ldr	r3, [r3, #8]
 8001312:	4690      	mov	r8, r2
 8001314:	06de      	lsls	r6, r3, #27
    __HAL_LOCK(hadc);
 8001316:	f04f 0201 	mov.w	r2, #1
 800131a:	460f      	mov	r7, r1
 800131c:	4604      	mov	r4, r0
 800131e:	f880 2040 	strb.w	r2, [r0, #64]	; 0x40
    if(ADC_COMMON_CCR_MULTI(hadc) == RESET)
 8001322:	d005      	beq.n	8001330 <HAL_ADC_Start_DMA+0x3c>
      __HAL_UNLOCK(hadc);
 8001324:	2300      	movs	r3, #0
 8001326:	f884 3040 	strb.w	r3, [r4, #64]	; 0x40
      tmp_hal_status = HAL_ERROR;
 800132a:	2001      	movs	r0, #1
 800132c:	e8bd 81f0 	ldmia.w	sp!, {r4, r5, r6, r7, r8, pc}
  if (ADC_IS_ENABLE(hadc) == RESET)
 8001330:	68ab      	ldr	r3, [r5, #8]
 8001332:	f003 0303 	and.w	r3, r3, #3
 8001336:	4293      	cmp	r3, r2
 8001338:	d00c      	beq.n	8001354 <HAL_ADC_Start_DMA+0x60>
    if (ADC_ENABLING_CONDITIONS(hadc) == RESET)
 800133a:	68aa      	ldr	r2, [r5, #8]
 800133c:	4b3b      	ldr	r3, [pc, #236]	; (800142c <HAL_ADC_Start_DMA+0x138>)
 800133e:	421a      	tst	r2, r3
 8001340:	d059      	beq.n	80013f6 <HAL_ADC_Start_DMA+0x102>
        SET_BIT(hadc->State, HAL_ADC_STATE_ERROR_INTERNAL);
 8001342:	6c63      	ldr	r3, [r4, #68]	; 0x44
 8001344:	f043 0310 	orr.w	r3, r3, #16
 8001348:	6463      	str	r3, [r4, #68]	; 0x44
        SET_BIT(hadc->ErrorCode, HAL_ADC_ERROR_INTERNAL);
 800134a:	6ca3      	ldr	r3, [r4, #72]	; 0x48
 800134c:	f043 0301 	orr.w	r3, r3, #1
 8001350:	64a3      	str	r3, [r4, #72]	; 0x48
 8001352:	e7e7      	b.n	8001324 <HAL_ADC_Start_DMA+0x30>
  if (ADC_IS_ENABLE(hadc) == RESET)
 8001354:	682b      	ldr	r3, [r5, #0]
 8001356:	07d8      	lsls	r0, r3, #31
 8001358:	d5ef      	bpl.n	800133a <HAL_ADC_Start_DMA+0x46>
        ADC_STATE_CLR_SET(hadc->State,
 800135a:	6c63      	ldr	r3, [r4, #68]	; 0x44
        if (ADC_NONMULTIMODE_OR_MULTIMODEMASTER(hadc))
 800135c:	4a32      	ldr	r2, [pc, #200]	; (8001428 <HAL_ADC_Start_DMA+0x134>)
        ADC_STATE_CLR_SET(hadc->State,
 800135e:	f423 6370 	bic.w	r3, r3, #3840	; 0xf00
 8001362:	f023 0301 	bic.w	r3, r3, #1
 8001366:	f443 7380 	orr.w	r3, r3, #256	; 0x100
 800136a:	6463      	str	r3, [r4, #68]	; 0x44
        if (ADC_NONMULTIMODE_OR_MULTIMODEMASTER(hadc))
 800136c:	6893      	ldr	r3, [r2, #8]
 800136e:	f013 0f1f 	tst.w	r3, #31
          CLEAR_BIT(hadc->State, HAL_ADC_STATE_MULTIMODE_SLAVE);
 8001372:	6c63      	ldr	r3, [r4, #68]	; 0x44
        if (ADC_NONMULTIMODE_OR_MULTIMODEMASTER(hadc))
 8001374:	d032      	beq.n	80013dc <HAL_ADC_Start_DMA+0xe8>
 8001376:	f1b5 4fa0 	cmp.w	r5, #1342177280	; 0x50000000
 800137a:	d02f      	beq.n	80013dc <HAL_ADC_Start_DMA+0xe8>
          if (ADC_MULTIMODE_AUTO_INJECTED(hadc))
 800137c:	4a2c      	ldr	r2, [pc, #176]	; (8001430 <HAL_ADC_Start_DMA+0x13c>)
          SET_BIT(hadc->State, HAL_ADC_STATE_MULTIMODE_SLAVE);
 800137e:	f443 1380 	orr.w	r3, r3, #1048576	; 0x100000
          if (ADC_MULTIMODE_AUTO_INJECTED(hadc))
 8001382:	4295      	cmp	r5, r2
          SET_BIT(hadc->State, HAL_ADC_STATE_MULTIMODE_SLAVE);
 8001384:	6463      	str	r3, [r4, #68]	; 0x44
          if (ADC_MULTIMODE_AUTO_INJECTED(hadc))
 8001386:	d048      	beq.n	800141a <HAL_ADC_Start_DMA+0x126>
        if (HAL_IS_BIT_SET(hadc->State, HAL_ADC_STATE_INJ_BUSY))
 8001388:	6c63      	ldr	r3, [r4, #68]	; 0x44
        hadc->DMA_Handle->XferCpltCallback = ADC_DMAConvCplt;
 800138a:	6be0      	ldr	r0, [r4, #60]	; 0x3c
 800138c:	4929      	ldr	r1, [pc, #164]	; (8001434 <HAL_ADC_Start_DMA+0x140>)
        hadc->DMA_Handle->XferErrorCallback = ADC_DMAError;
 800138e:	4a2a      	ldr	r2, [pc, #168]	; (8001438 <HAL_ADC_Start_DMA+0x144>)
        if (HAL_IS_BIT_SET(hadc->State, HAL_ADC_STATE_INJ_BUSY))
 8001390:	f413 5380 	ands.w	r3, r3, #4096	; 0x1000
          CLEAR_BIT(hadc->ErrorCode, (HAL_ADC_ERROR_OVR | HAL_ADC_ERROR_DMA));         
 8001394:	bf1c      	itt	ne
 8001396:	6ca3      	ldrne	r3, [r4, #72]	; 0x48
 8001398:	f023 0306 	bicne.w	r3, r3, #6
          ADC_CLEAR_ERRORCODE(hadc);
 800139c:	64a3      	str	r3, [r4, #72]	; 0x48
        __HAL_UNLOCK(hadc);
 800139e:	2600      	movs	r6, #0
        hadc->DMA_Handle->XferHalfCpltCallback = ADC_DMAHalfConvCplt;
 80013a0:	4b26      	ldr	r3, [pc, #152]	; (800143c <HAL_ADC_Start_DMA+0x148>)
        __HAL_UNLOCK(hadc);
 80013a2:	f884 6040 	strb.w	r6, [r4, #64]	; 0x40
        hadc->DMA_Handle->XferHalfCpltCallback = ADC_DMAHalfConvCplt;
 80013a6:	62c3      	str	r3, [r0, #44]	; 0x2c
        __HAL_ADC_CLEAR_FLAG(hadc, (ADC_FLAG_EOC | ADC_FLAG_EOS | ADC_FLAG_OVR));
 80013a8:	231c      	movs	r3, #28
        hadc->DMA_Handle->XferCpltCallback = ADC_DMAConvCplt;
 80013aa:	6281      	str	r1, [r0, #40]	; 0x28
        hadc->DMA_Handle->XferErrorCallback = ADC_DMAError;
 80013ac:	6302      	str	r2, [r0, #48]	; 0x30
        __HAL_ADC_CLEAR_FLAG(hadc, (ADC_FLAG_EOC | ADC_FLAG_EOS | ADC_FLAG_OVR));
 80013ae:	602b      	str	r3, [r5, #0]
        __HAL_ADC_ENABLE_IT(hadc, ADC_IT_OVR);
 80013b0:	686b      	ldr	r3, [r5, #4]
 80013b2:	f043 0310 	orr.w	r3, r3, #16
 80013b6:	606b      	str	r3, [r5, #4]
        SET_BIT(hadc->Instance->CFGR, ADC_CFGR_DMAEN);
 80013b8:	68e9      	ldr	r1, [r5, #12]
 80013ba:	f041 0101 	orr.w	r1, r1, #1
        HAL_DMA_Start_IT(hadc->DMA_Handle, (uint32_t)&hadc->Instance->DR, (uint32_t)pData, Length);
 80013be:	4643      	mov	r3, r8
 80013c0:	463a      	mov	r2, r7
        SET_BIT(hadc->Instance->CFGR, ADC_CFGR_DMAEN);
 80013c2:	60e9      	str	r1, [r5, #12]
        HAL_DMA_Start_IT(hadc->DMA_Handle, (uint32_t)&hadc->Instance->DR, (uint32_t)pData, Length);
 80013c4:	f105 0140 	add.w	r1, r5, #64	; 0x40
 80013c8:	f000 fb8e 	bl	8001ae8 <HAL_DMA_Start_IT>
        SET_BIT(hadc->Instance->CR, ADC_CR_ADSTART);
 80013cc:	6822      	ldr	r2, [r4, #0]
 80013ce:	6893      	ldr	r3, [r2, #8]
 80013d0:	f043 0304 	orr.w	r3, r3, #4
 80013d4:	4630      	mov	r0, r6
 80013d6:	6093      	str	r3, [r2, #8]
 80013d8:	e8bd 81f0 	ldmia.w	sp!, {r4, r5, r6, r7, r8, pc}
          CLEAR_BIT(hadc->State, HAL_ADC_STATE_MULTIMODE_SLAVE);
 80013dc:	f423 1380 	bic.w	r3, r3, #1048576	; 0x100000
 80013e0:	6463      	str	r3, [r4, #68]	; 0x44
          if (READ_BIT(hadc->Instance->CFGR, ADC_CFGR_JAUTO) != RESET)
 80013e2:	68eb      	ldr	r3, [r5, #12]
 80013e4:	019a      	lsls	r2, r3, #6
 80013e6:	d5cf      	bpl.n	8001388 <HAL_ADC_Start_DMA+0x94>
            ADC_STATE_CLR_SET(hadc->State, HAL_ADC_STATE_INJ_EOC, HAL_ADC_STATE_INJ_BUSY);
 80013e8:	6c63      	ldr	r3, [r4, #68]	; 0x44
 80013ea:	f423 5340 	bic.w	r3, r3, #12288	; 0x3000
 80013ee:	f443 5380 	orr.w	r3, r3, #4096	; 0x1000
 80013f2:	6463      	str	r3, [r4, #68]	; 0x44
 80013f4:	e7c8      	b.n	8001388 <HAL_ADC_Start_DMA+0x94>
    __HAL_ADC_ENABLE(hadc);
 80013f6:	68ab      	ldr	r3, [r5, #8]
 80013f8:	f043 0301 	orr.w	r3, r3, #1
 80013fc:	60ab      	str	r3, [r5, #8]
    tickstart = HAL_GetTick();  
 80013fe:	f7ff fda3 	bl	8000f48 <HAL_GetTick>
 8001402:	4606      	mov	r6, r0
 8001404:	e004      	b.n	8001410 <HAL_ADC_Start_DMA+0x11c>
      if((HAL_GetTick() - tickstart) > ADC_ENABLE_TIMEOUT)
 8001406:	f7ff fd9f 	bl	8000f48 <HAL_GetTick>
 800140a:	1b80      	subs	r0, r0, r6
 800140c:	2802      	cmp	r0, #2
 800140e:	d898      	bhi.n	8001342 <HAL_ADC_Start_DMA+0x4e>
    while(__HAL_ADC_GET_FLAG(hadc, ADC_FLAG_RDY) == RESET)
 8001410:	6825      	ldr	r5, [r4, #0]
 8001412:	682b      	ldr	r3, [r5, #0]
 8001414:	07d9      	lsls	r1, r3, #31
 8001416:	d5f6      	bpl.n	8001406 <HAL_ADC_Start_DMA+0x112>
 8001418:	e79f      	b.n	800135a <HAL_ADC_Start_DMA+0x66>
          if (ADC_MULTIMODE_AUTO_INJECTED(hadc))
 800141a:	f04f 43a0 	mov.w	r3, #1342177280	; 0x50000000
 800141e:	68db      	ldr	r3, [r3, #12]
 8001420:	019b      	lsls	r3, r3, #6
 8001422:	d5b1      	bpl.n	8001388 <HAL_ADC_Start_DMA+0x94>
 8001424:	e7e0      	b.n	80013e8 <HAL_ADC_Start_DMA+0xf4>
 8001426:	bf00      	nop
 8001428:	50000300 	.word	0x50000300
 800142c:	8000003f 	.word	0x8000003f
 8001430:	50000100 	.word	0x50000100
 8001434:	0800104d 	.word	0x0800104d
 8001438:	0800102d 	.word	0x0800102d
 800143c:	08001045 	.word	0x08001045

08001440 <HAL_ADC_Stop_DMA>:
  __HAL_LOCK(hadc);
 8001440:	f890 2040 	ldrb.w	r2, [r0, #64]	; 0x40
 8001444:	2a01      	cmp	r2, #1
{  
 8001446:	b570      	push	{r4, r5, r6, lr}
  __HAL_LOCK(hadc);
 8001448:	d102      	bne.n	8001450 <HAL_ADC_Stop_DMA+0x10>
 800144a:	2402      	movs	r4, #2
}
 800144c:	4620      	mov	r0, r4
 800144e:	bd70      	pop	{r4, r5, r6, pc}
  __HAL_LOCK(hadc);
 8001450:	2301      	movs	r3, #1
 8001452:	f880 3040 	strb.w	r3, [r0, #64]	; 0x40
  tmp_hal_status = ADC_ConversionStop(hadc, ADC_REGULAR_INJECTED_GROUP);
 8001456:	216c      	movs	r1, #108	; 0x6c
 8001458:	4605      	mov	r5, r0
 800145a:	f7ff fd7f 	bl	8000f5c <ADC_ConversionStop>
  if (tmp_hal_status == HAL_OK)
 800145e:	4604      	mov	r4, r0
 8001460:	b120      	cbz	r0, 800146c <HAL_ADC_Stop_DMA+0x2c>
  __HAL_UNLOCK(hadc);
 8001462:	2300      	movs	r3, #0
 8001464:	f885 3040 	strb.w	r3, [r5, #64]	; 0x40
}
 8001468:	4620      	mov	r0, r4
 800146a:	bd70      	pop	{r4, r5, r6, pc}
    CLEAR_BIT(hadc->Instance->CFGR, ADC_CFGR_DMAEN);
 800146c:	682a      	ldr	r2, [r5, #0]
    tmp_hal_status = HAL_DMA_Abort(hadc->DMA_Handle);   
 800146e:	6be8      	ldr	r0, [r5, #60]	; 0x3c
    CLEAR_BIT(hadc->Instance->CFGR, ADC_CFGR_DMAEN);
 8001470:	68d3      	ldr	r3, [r2, #12]
 8001472:	f023 0301 	bic.w	r3, r3, #1
 8001476:	60d3      	str	r3, [r2, #12]
    tmp_hal_status = HAL_DMA_Abort(hadc->DMA_Handle);   
 8001478:	f000 fb78 	bl	8001b6c <HAL_DMA_Abort>
    if (tmp_hal_status != HAL_OK)
 800147c:	4604      	mov	r4, r0
 800147e:	b1f0      	cbz	r0, 80014be <HAL_ADC_Stop_DMA+0x7e>
      SET_BIT(hadc->State, HAL_ADC_STATE_ERROR_DMA);     
 8001480:	6c6a      	ldr	r2, [r5, #68]	; 0x44
    __HAL_ADC_DISABLE_IT(hadc, ADC_IT_OVR);
 8001482:	682b      	ldr	r3, [r5, #0]
      SET_BIT(hadc->State, HAL_ADC_STATE_ERROR_DMA);     
 8001484:	f042 0240 	orr.w	r2, r2, #64	; 0x40
 8001488:	646a      	str	r2, [r5, #68]	; 0x44
    __HAL_ADC_DISABLE_IT(hadc, ADC_IT_OVR);
 800148a:	685a      	ldr	r2, [r3, #4]
 800148c:	f022 0210 	bic.w	r2, r2, #16
 8001490:	605a      	str	r2, [r3, #4]
  if (ADC_IS_ENABLE(hadc) != RESET )
 8001492:	689a      	ldr	r2, [r3, #8]
 8001494:	f002 0203 	and.w	r2, r2, #3
 8001498:	2a01      	cmp	r2, #1
 800149a:	d1e2      	bne.n	8001462 <HAL_ADC_Stop_DMA+0x22>
 800149c:	681a      	ldr	r2, [r3, #0]
 800149e:	07d2      	lsls	r2, r2, #31
 80014a0:	d5df      	bpl.n	8001462 <HAL_ADC_Stop_DMA+0x22>
    if (ADC_DISABLING_CONDITIONS(hadc) != RESET)
 80014a2:	689a      	ldr	r2, [r3, #8]
 80014a4:	f002 020d 	and.w	r2, r2, #13
 80014a8:	2a01      	cmp	r2, #1
 80014aa:	d02d      	beq.n	8001508 <HAL_ADC_Stop_DMA+0xc8>
        SET_BIT(hadc->State, HAL_ADC_STATE_ERROR_INTERNAL);
 80014ac:	6c6b      	ldr	r3, [r5, #68]	; 0x44
 80014ae:	f043 0310 	orr.w	r3, r3, #16
 80014b2:	646b      	str	r3, [r5, #68]	; 0x44
        SET_BIT(hadc->ErrorCode, HAL_ADC_ERROR_INTERNAL);
 80014b4:	6cab      	ldr	r3, [r5, #72]	; 0x48
 80014b6:	f043 0301 	orr.w	r3, r3, #1
 80014ba:	64ab      	str	r3, [r5, #72]	; 0x48
 80014bc:	e7d1      	b.n	8001462 <HAL_ADC_Stop_DMA+0x22>
    __HAL_ADC_DISABLE_IT(hadc, ADC_IT_OVR);
 80014be:	682b      	ldr	r3, [r5, #0]
 80014c0:	685a      	ldr	r2, [r3, #4]
 80014c2:	f022 0210 	bic.w	r2, r2, #16
 80014c6:	605a      	str	r2, [r3, #4]
  if (ADC_IS_ENABLE(hadc) != RESET )
 80014c8:	689a      	ldr	r2, [r3, #8]
 80014ca:	f002 0203 	and.w	r2, r2, #3
 80014ce:	2a01      	cmp	r2, #1
 80014d0:	d008      	beq.n	80014e4 <HAL_ADC_Stop_DMA+0xa4>
      ADC_STATE_CLR_SET(hadc->State,
 80014d2:	6c6b      	ldr	r3, [r5, #68]	; 0x44
 80014d4:	f423 5388 	bic.w	r3, r3, #4352	; 0x1100
 80014d8:	f023 0301 	bic.w	r3, r3, #1
 80014dc:	f043 0301 	orr.w	r3, r3, #1
 80014e0:	646b      	str	r3, [r5, #68]	; 0x44
 80014e2:	e7be      	b.n	8001462 <HAL_ADC_Stop_DMA+0x22>
  if (ADC_IS_ENABLE(hadc) != RESET )
 80014e4:	6819      	ldr	r1, [r3, #0]
 80014e6:	07c8      	lsls	r0, r1, #31
 80014e8:	d5f3      	bpl.n	80014d2 <HAL_ADC_Stop_DMA+0x92>
    if (ADC_DISABLING_CONDITIONS(hadc) != RESET)
 80014ea:	6899      	ldr	r1, [r3, #8]
 80014ec:	f001 010d 	and.w	r1, r1, #13
 80014f0:	2901      	cmp	r1, #1
 80014f2:	d01d      	beq.n	8001530 <HAL_ADC_Stop_DMA+0xf0>
      SET_BIT(hadc->State, HAL_ADC_STATE_ERROR_INTERNAL);
 80014f4:	6c6b      	ldr	r3, [r5, #68]	; 0x44
 80014f6:	f043 0310 	orr.w	r3, r3, #16
 80014fa:	646b      	str	r3, [r5, #68]	; 0x44
      SET_BIT(hadc->ErrorCode, HAL_ADC_ERROR_INTERNAL);
 80014fc:	6cab      	ldr	r3, [r5, #72]	; 0x48
 80014fe:	f043 0301 	orr.w	r3, r3, #1
      return HAL_ERROR;
 8001502:	4614      	mov	r4, r2
      SET_BIT(hadc->ErrorCode, HAL_ADC_ERROR_INTERNAL);
 8001504:	64ab      	str	r3, [r5, #72]	; 0x48
 8001506:	e7ac      	b.n	8001462 <HAL_ADC_Stop_DMA+0x22>
      __HAL_ADC_DISABLE(hadc);
 8001508:	689a      	ldr	r2, [r3, #8]
 800150a:	2103      	movs	r1, #3
 800150c:	f042 0202 	orr.w	r2, r2, #2
 8001510:	609a      	str	r2, [r3, #8]
 8001512:	6019      	str	r1, [r3, #0]
    tickstart = HAL_GetTick();
 8001514:	f7ff fd18 	bl	8000f48 <HAL_GetTick>
 8001518:	4606      	mov	r6, r0
 800151a:	e004      	b.n	8001526 <HAL_ADC_Stop_DMA+0xe6>
      if((HAL_GetTick() - tickstart) > ADC_DISABLE_TIMEOUT)
 800151c:	f7ff fd14 	bl	8000f48 <HAL_GetTick>
 8001520:	1b80      	subs	r0, r0, r6
 8001522:	2802      	cmp	r0, #2
 8001524:	d8c2      	bhi.n	80014ac <HAL_ADC_Stop_DMA+0x6c>
    while(HAL_IS_BIT_SET(hadc->Instance->CR, ADC_CR_ADEN))
 8001526:	682b      	ldr	r3, [r5, #0]
 8001528:	689b      	ldr	r3, [r3, #8]
 800152a:	07db      	lsls	r3, r3, #31
 800152c:	d4f6      	bmi.n	800151c <HAL_ADC_Stop_DMA+0xdc>
 800152e:	e798      	b.n	8001462 <HAL_ADC_Stop_DMA+0x22>
      __HAL_ADC_DISABLE(hadc);
 8001530:	689a      	ldr	r2, [r3, #8]
 8001532:	2103      	movs	r1, #3
 8001534:	f042 0202 	orr.w	r2, r2, #2
 8001538:	609a      	str	r2, [r3, #8]
 800153a:	6019      	str	r1, [r3, #0]
    tickstart = HAL_GetTick();
 800153c:	f7ff fd04 	bl	8000f48 <HAL_GetTick>
 8001540:	4606      	mov	r6, r0
    while(HAL_IS_BIT_SET(hadc->Instance->CR, ADC_CR_ADEN))
 8001542:	682b      	ldr	r3, [r5, #0]
 8001544:	689b      	ldr	r3, [r3, #8]
 8001546:	07d9      	lsls	r1, r3, #31
 8001548:	d5c3      	bpl.n	80014d2 <HAL_ADC_Stop_DMA+0x92>
      if((HAL_GetTick() - tickstart) > ADC_DISABLE_TIMEOUT)
 800154a:	f7ff fcfd 	bl	8000f48 <HAL_GetTick>
 800154e:	1b80      	subs	r0, r0, r6
 8001550:	2802      	cmp	r0, #2
 8001552:	d9f6      	bls.n	8001542 <HAL_ADC_Stop_DMA+0x102>
        SET_BIT(hadc->State, HAL_ADC_STATE_ERROR_INTERNAL);
 8001554:	6c6b      	ldr	r3, [r5, #68]	; 0x44
 8001556:	f043 0310 	orr.w	r3, r3, #16
 800155a:	646b      	str	r3, [r5, #68]	; 0x44
        SET_BIT(hadc->ErrorCode, HAL_ADC_ERROR_INTERNAL);
 800155c:	6cab      	ldr	r3, [r5, #72]	; 0x48
 800155e:	f043 0301 	orr.w	r3, r3, #1
 8001562:	64ab      	str	r3, [r5, #72]	; 0x48
        return HAL_ERROR;
 8001564:	2401      	movs	r4, #1
 8001566:	e77c      	b.n	8001462 <HAL_ADC_Stop_DMA+0x22>

08001568 <HAL_ADCEx_Calibration_Start>:
  __HAL_LOCK(hadc);
 8001568:	f890 3040 	ldrb.w	r3, [r0, #64]	; 0x40
 800156c:	2b01      	cmp	r3, #1
 800156e:	d101      	bne.n	8001574 <HAL_ADCEx_Calibration_Start+0xc>
 8001570:	2002      	movs	r0, #2
 8001572:	4770      	bx	lr
  if (ADC_IS_ENABLE(hadc) != RESET )
 8001574:	6803      	ldr	r3, [r0, #0]
{
 8001576:	b570      	push	{r4, r5, r6, lr}
 8001578:	4604      	mov	r4, r0
  if (ADC_IS_ENABLE(hadc) != RESET )
 800157a:	6898      	ldr	r0, [r3, #8]
  __HAL_LOCK(hadc);
 800157c:	2201      	movs	r2, #1
  if (ADC_IS_ENABLE(hadc) != RESET )
 800157e:	f000 0003 	and.w	r0, r0, #3
 8001582:	4290      	cmp	r0, r2
 8001584:	460d      	mov	r5, r1
  __HAL_LOCK(hadc);
 8001586:	f884 2040 	strb.w	r2, [r4, #64]	; 0x40
  if (ADC_IS_ENABLE(hadc) != RESET )
 800158a:	d023      	beq.n	80015d4 <HAL_ADCEx_Calibration_Start+0x6c>
    hadc->State = HAL_ADC_STATE_READY;
 800158c:	2201      	movs	r2, #1
 800158e:	6462      	str	r2, [r4, #68]	; 0x44
    hadc->Instance->CR &= (~ADC_CR_ADCALDIF);
 8001590:	689a      	ldr	r2, [r3, #8]
    if (SingleDiff == ADC_DIFFERENTIAL_ENDED)
 8001592:	2d01      	cmp	r5, #1
    hadc->Instance->CR &= (~ADC_CR_ADCALDIF);
 8001594:	f022 4280 	bic.w	r2, r2, #1073741824	; 0x40000000
 8001598:	609a      	str	r2, [r3, #8]
    if (SingleDiff == ADC_DIFFERENTIAL_ENDED)
 800159a:	d03a      	beq.n	8001612 <HAL_ADCEx_Calibration_Start+0xaa>
    hadc->Instance->CR |= ADC_CR_ADCAL;
 800159c:	689a      	ldr	r2, [r3, #8]
 800159e:	f042 4200 	orr.w	r2, r2, #2147483648	; 0x80000000
 80015a2:	609a      	str	r2, [r3, #8]
    tickstart = HAL_GetTick();  
 80015a4:	f7ff fcd0 	bl	8000f48 <HAL_GetTick>
 80015a8:	4605      	mov	r5, r0
    while(HAL_IS_BIT_SET(hadc->Instance->CR, ADC_CR_ADCAL))
 80015aa:	e004      	b.n	80015b6 <HAL_ADCEx_Calibration_Start+0x4e>
      if((HAL_GetTick() - tickstart) > ADC_CALIBRATION_TIMEOUT)
 80015ac:	f7ff fccc 	bl	8000f48 <HAL_GetTick>
 80015b0:	1b40      	subs	r0, r0, r5
 80015b2:	280a      	cmp	r0, #10
 80015b4:	d822      	bhi.n	80015fc <HAL_ADCEx_Calibration_Start+0x94>
    while(HAL_IS_BIT_SET(hadc->Instance->CR, ADC_CR_ADCAL))
 80015b6:	6823      	ldr	r3, [r4, #0]
 80015b8:	689b      	ldr	r3, [r3, #8]
 80015ba:	2b00      	cmp	r3, #0
 80015bc:	dbf6      	blt.n	80015ac <HAL_ADCEx_Calibration_Start+0x44>
    ADC_STATE_CLR_SET(hadc->State,
 80015be:	6c63      	ldr	r3, [r4, #68]	; 0x44
 80015c0:	f023 0303 	bic.w	r3, r3, #3
 80015c4:	f043 0301 	orr.w	r3, r3, #1
 80015c8:	6463      	str	r3, [r4, #68]	; 0x44
 80015ca:	2000      	movs	r0, #0
  __HAL_UNLOCK(hadc);
 80015cc:	2300      	movs	r3, #0
 80015ce:	f884 3040 	strb.w	r3, [r4, #64]	; 0x40
  return tmp_hal_status;
 80015d2:	bd70      	pop	{r4, r5, r6, pc}
  if (ADC_IS_ENABLE(hadc) != RESET )
 80015d4:	681a      	ldr	r2, [r3, #0]
 80015d6:	07d1      	lsls	r1, r2, #31
 80015d8:	d5d8      	bpl.n	800158c <HAL_ADCEx_Calibration_Start+0x24>
    if (ADC_DISABLING_CONDITIONS(hadc) != RESET)
 80015da:	689a      	ldr	r2, [r3, #8]
 80015dc:	f002 020d 	and.w	r2, r2, #13
 80015e0:	2a01      	cmp	r2, #1
 80015e2:	d01b      	beq.n	800161c <HAL_ADCEx_Calibration_Start+0xb4>
      SET_BIT(hadc->State, HAL_ADC_STATE_ERROR_INTERNAL);
 80015e4:	6c63      	ldr	r3, [r4, #68]	; 0x44
 80015e6:	f043 0310 	orr.w	r3, r3, #16
 80015ea:	6463      	str	r3, [r4, #68]	; 0x44
      SET_BIT(hadc->ErrorCode, HAL_ADC_ERROR_INTERNAL);
 80015ec:	6ca3      	ldr	r3, [r4, #72]	; 0x48
 80015ee:	f043 0301 	orr.w	r3, r3, #1
 80015f2:	64a3      	str	r3, [r4, #72]	; 0x48
  __HAL_UNLOCK(hadc);
 80015f4:	2300      	movs	r3, #0
 80015f6:	f884 3040 	strb.w	r3, [r4, #64]	; 0x40
  return tmp_hal_status;
 80015fa:	bd70      	pop	{r4, r5, r6, pc}
        ADC_STATE_CLR_SET(hadc->State,
 80015fc:	6c63      	ldr	r3, [r4, #68]	; 0x44
 80015fe:	f023 0312 	bic.w	r3, r3, #18
 8001602:	f043 0310 	orr.w	r3, r3, #16
        __HAL_UNLOCK(hadc);
 8001606:	2200      	movs	r2, #0
        ADC_STATE_CLR_SET(hadc->State,
 8001608:	6463      	str	r3, [r4, #68]	; 0x44
        __HAL_UNLOCK(hadc);
 800160a:	f884 2040 	strb.w	r2, [r4, #64]	; 0x40
        return HAL_ERROR;
 800160e:	2001      	movs	r0, #1
 8001610:	bd70      	pop	{r4, r5, r6, pc}
      hadc->Instance->CR |= ADC_CR_ADCALDIF;
 8001612:	689a      	ldr	r2, [r3, #8]
 8001614:	f042 4280 	orr.w	r2, r2, #1073741824	; 0x40000000
 8001618:	609a      	str	r2, [r3, #8]
 800161a:	e7bf      	b.n	800159c <HAL_ADCEx_Calibration_Start+0x34>
      __HAL_ADC_DISABLE(hadc);
 800161c:	689a      	ldr	r2, [r3, #8]
 800161e:	2103      	movs	r1, #3
 8001620:	f042 0202 	orr.w	r2, r2, #2
 8001624:	609a      	str	r2, [r3, #8]
 8001626:	6019      	str	r1, [r3, #0]
    tickstart = HAL_GetTick();
 8001628:	f7ff fc8e 	bl	8000f48 <HAL_GetTick>
 800162c:	4606      	mov	r6, r0
    while(HAL_IS_BIT_SET(hadc->Instance->CR, ADC_CR_ADEN))
 800162e:	6823      	ldr	r3, [r4, #0]
 8001630:	689a      	ldr	r2, [r3, #8]
 8001632:	07d2      	lsls	r2, r2, #31
 8001634:	d5aa      	bpl.n	800158c <HAL_ADCEx_Calibration_Start+0x24>
      if((HAL_GetTick() - tickstart) > ADC_DISABLE_TIMEOUT)
 8001636:	f7ff fc87 	bl	8000f48 <HAL_GetTick>
 800163a:	1b80      	subs	r0, r0, r6
 800163c:	2802      	cmp	r0, #2
 800163e:	d9f6      	bls.n	800162e <HAL_ADCEx_Calibration_Start+0xc6>
        SET_BIT(hadc->State, HAL_ADC_STATE_ERROR_INTERNAL);
 8001640:	6c63      	ldr	r3, [r4, #68]	; 0x44
 8001642:	f043 0310 	orr.w	r3, r3, #16
 8001646:	6463      	str	r3, [r4, #68]	; 0x44
        SET_BIT(hadc->ErrorCode, HAL_ADC_ERROR_INTERNAL);
 8001648:	6ca3      	ldr	r3, [r4, #72]	; 0x48
 800164a:	f043 0301 	orr.w	r3, r3, #1
 800164e:	64a3      	str	r3, [r4, #72]	; 0x48
 8001650:	2001      	movs	r0, #1
 8001652:	e7bb      	b.n	80015cc <HAL_ADCEx_Calibration_Start+0x64>

08001654 <HAL_ADC_ConfigChannel>:
{
 8001654:	b5f0      	push	{r4, r5, r6, r7, lr}
 8001656:	4603      	mov	r3, r0
 8001658:	b083      	sub	sp, #12
  __HAL_LOCK(hadc);
 800165a:	f893 2040 	ldrb.w	r2, [r3, #64]	; 0x40
  __IO uint32_t wait_loop_index = 0U;
 800165e:	2000      	movs	r0, #0
  __HAL_LOCK(hadc);
 8001660:	2a01      	cmp	r2, #1
  __IO uint32_t wait_loop_index = 0U;
 8001662:	9001      	str	r0, [sp, #4]
  __HAL_LOCK(hadc);
 8001664:	d047      	beq.n	80016f6 <HAL_ADC_ConfigChannel+0xa2>
  if (ADC_IS_CONVERSION_ONGOING_REGULAR(hadc) == RESET)
 8001666:	681a      	ldr	r2, [r3, #0]
  if (sConfig->SingleDiff != ADC_DIFFERENTIAL_ENDED)
 8001668:	68cc      	ldr	r4, [r1, #12]
  if (ADC_IS_CONVERSION_ONGOING_REGULAR(hadc) == RESET)
 800166a:	6895      	ldr	r5, [r2, #8]
  __HAL_LOCK(hadc);
 800166c:	2001      	movs	r0, #1
  if (ADC_IS_CONVERSION_ONGOING_REGULAR(hadc) == RESET)
 800166e:	076d      	lsls	r5, r5, #29
  __HAL_LOCK(hadc);
 8001670:	f883 0040 	strb.w	r0, [r3, #64]	; 0x40
  if (ADC_IS_CONVERSION_ONGOING_REGULAR(hadc) == RESET)
 8001674:	d508      	bpl.n	8001688 <HAL_ADC_ConfigChannel+0x34>
    SET_BIT(hadc->State, HAL_ADC_STATE_ERROR_CONFIG);
 8001676:	6c5a      	ldr	r2, [r3, #68]	; 0x44
 8001678:	f042 0220 	orr.w	r2, r2, #32
 800167c:	645a      	str	r2, [r3, #68]	; 0x44
  __HAL_UNLOCK(hadc);
 800167e:	2200      	movs	r2, #0
 8001680:	f883 2040 	strb.w	r2, [r3, #64]	; 0x40
}
 8001684:	b003      	add	sp, #12
 8001686:	bdf0      	pop	{r4, r5, r6, r7, pc}
    if (sConfig->Rank < 5U)
 8001688:	6848      	ldr	r0, [r1, #4]
 800168a:	2804      	cmp	r0, #4
 800168c:	d936      	bls.n	80016fc <HAL_ADC_ConfigChannel+0xa8>
    else if (sConfig->Rank < 10U)
 800168e:	2809      	cmp	r0, #9
 8001690:	d870      	bhi.n	8001774 <HAL_ADC_ConfigChannel+0x120>
      MODIFY_REG(hadc->Instance->SQR2,
 8001692:	eb00 0040 	add.w	r0, r0, r0, lsl #1
 8001696:	0040      	lsls	r0, r0, #1
 8001698:	381e      	subs	r0, #30
 800169a:	6b56      	ldr	r6, [r2, #52]	; 0x34
 800169c:	680d      	ldr	r5, [r1, #0]
 800169e:	271f      	movs	r7, #31
 80016a0:	4087      	lsls	r7, r0
 80016a2:	ea26 0607 	bic.w	r6, r6, r7
 80016a6:	fa05 f000 	lsl.w	r0, r5, r0
 80016aa:	4330      	orrs	r0, r6
 80016ac:	6350      	str	r0, [r2, #52]	; 0x34
  if (ADC_IS_CONVERSION_ONGOING_REGULAR_INJECTED(hadc) == RESET)
 80016ae:	6890      	ldr	r0, [r2, #8]
 80016b0:	f010 0f0c 	tst.w	r0, #12
 80016b4:	d133      	bne.n	800171e <HAL_ADC_ConfigChannel+0xca>
    if (sConfig->Channel >= ADC_CHANNEL_10)
 80016b6:	2d09      	cmp	r5, #9
 80016b8:	d94e      	bls.n	8001758 <HAL_ADC_ConfigChannel+0x104>
      MODIFY_REG(hadc->Instance->SMPR2                             ,
 80016ba:	eb05 0745 	add.w	r7, r5, r5, lsl #1
 80016be:	3f1e      	subs	r7, #30
 80016c0:	6990      	ldr	r0, [r2, #24]
 80016c2:	688e      	ldr	r6, [r1, #8]
 80016c4:	f04f 0e07 	mov.w	lr, #7
 80016c8:	fa0e fe07 	lsl.w	lr, lr, r7
 80016cc:	ea20 000e 	bic.w	r0, r0, lr
 80016d0:	40be      	lsls	r6, r7
 80016d2:	4330      	orrs	r0, r6
 80016d4:	6190      	str	r0, [r2, #24]
    tmpOffsetShifted = ADC_OFFSET_SHIFT_RESOLUTION(hadc, sConfig->Offset);
 80016d6:	68d0      	ldr	r0, [r2, #12]
    switch (sConfig->OffsetNumber)
 80016d8:	690e      	ldr	r6, [r1, #16]
    tmpOffsetShifted = ADC_OFFSET_SHIFT_RESOLUTION(hadc, sConfig->Offset);
 80016da:	694f      	ldr	r7, [r1, #20]
 80016dc:	f3c0 00c1 	ubfx	r0, r0, #3, #2
 80016e0:	0040      	lsls	r0, r0, #1
    switch (sConfig->OffsetNumber)
 80016e2:	3e01      	subs	r6, #1
    tmpOffsetShifted = ADC_OFFSET_SHIFT_RESOLUTION(hadc, sConfig->Offset);
 80016e4:	fa07 f000 	lsl.w	r0, r7, r0
    switch (sConfig->OffsetNumber)
 80016e8:	2e03      	cmp	r6, #3
 80016ea:	f200 80cb 	bhi.w	8001884 <HAL_ADC_ConfigChannel+0x230>
 80016ee:	e8df f006 	tbb	[pc, r6]
 80016f2:	737d      	.short	0x737d
 80016f4:	5f69      	.short	0x5f69
  __HAL_LOCK(hadc);
 80016f6:	2002      	movs	r0, #2
}
 80016f8:	b003      	add	sp, #12
 80016fa:	bdf0      	pop	{r4, r5, r6, r7, pc}
      MODIFY_REG(hadc->Instance->SQR1,
 80016fc:	eb00 0040 	add.w	r0, r0, r0, lsl #1
 8001700:	6b16      	ldr	r6, [r2, #48]	; 0x30
 8001702:	680d      	ldr	r5, [r1, #0]
 8001704:	0040      	lsls	r0, r0, #1
 8001706:	271f      	movs	r7, #31
 8001708:	4087      	lsls	r7, r0
 800170a:	ea26 0607 	bic.w	r6, r6, r7
 800170e:	fa05 f000 	lsl.w	r0, r5, r0
 8001712:	4330      	orrs	r0, r6
 8001714:	6310      	str	r0, [r2, #48]	; 0x30
  if (ADC_IS_CONVERSION_ONGOING_REGULAR_INJECTED(hadc) == RESET)
 8001716:	6890      	ldr	r0, [r2, #8]
 8001718:	f010 0f0c 	tst.w	r0, #12
 800171c:	d0cb      	beq.n	80016b6 <HAL_ADC_ConfigChannel+0x62>
  if (ADC_IS_ENABLE(hadc) == RESET)
 800171e:	6890      	ldr	r0, [r2, #8]
 8001720:	f000 0003 	and.w	r0, r0, #3
 8001724:	2801      	cmp	r0, #1
 8001726:	d013      	beq.n	8001750 <HAL_ADC_ConfigChannel+0xfc>
    if (sConfig->SingleDiff != ADC_DIFFERENTIAL_ENDED)
 8001728:	2c01      	cmp	r4, #1
 800172a:	f000 808f 	beq.w	800184c <HAL_ADC_ConfigChannel+0x1f8>
      CLEAR_BIT(hadc->Instance->DIFSEL, ADC_DIFSEL_CHANNEL(sConfig->Channel));
 800172e:	f8d2 10b0 	ldr.w	r1, [r2, #176]	; 0xb0
 8001732:	2001      	movs	r0, #1
 8001734:	40a8      	lsls	r0, r5
 8001736:	ea21 0100 	bic.w	r1, r1, r0
 800173a:	f8c2 10b0 	str.w	r1, [r2, #176]	; 0xb0
    if (( (sConfig->Channel == ADC_CHANNEL_TEMPSENSOR) &&
 800173e:	2d10      	cmp	r5, #16
 8001740:	d07f      	beq.n	8001842 <HAL_ADC_ConfigChannel+0x1ee>
          (HAL_IS_BIT_CLR(tmpADC_Common->CCR, ADC_CCR_TSEN))            ) ||
 8001742:	2d11      	cmp	r5, #17
 8001744:	f000 8099 	beq.w	800187a <HAL_ADC_ConfigChannel+0x226>
          (HAL_IS_BIT_CLR(tmpADC_Common->CCR, ADC_CCR_VBATEN))          ) ||
 8001748:	2d12      	cmp	r5, #18
 800174a:	d059      	beq.n	8001800 <HAL_ADC_ConfigChannel+0x1ac>
  HAL_StatusTypeDef tmp_hal_status = HAL_OK;
 800174c:	2000      	movs	r0, #0
          SET_BIT(tmpADC_Common->CCR, ADC_CCR_VBATEN);
 800174e:	e796      	b.n	800167e <HAL_ADC_ConfigChannel+0x2a>
  if (ADC_IS_ENABLE(hadc) == RESET)
 8001750:	6810      	ldr	r0, [r2, #0]
 8001752:	07c0      	lsls	r0, r0, #31
 8001754:	d5e8      	bpl.n	8001728 <HAL_ADC_ConfigChannel+0xd4>
 8001756:	e7f9      	b.n	800174c <HAL_ADC_ConfigChannel+0xf8>
      MODIFY_REG(hadc->Instance->SMPR1                             ,
 8001758:	eb05 0e45 	add.w	lr, r5, r5, lsl #1
 800175c:	6950      	ldr	r0, [r2, #20]
 800175e:	688e      	ldr	r6, [r1, #8]
 8001760:	2707      	movs	r7, #7
 8001762:	fa07 f70e 	lsl.w	r7, r7, lr
 8001766:	ea20 0007 	bic.w	r0, r0, r7
 800176a:	fa06 f60e 	lsl.w	r6, r6, lr
 800176e:	4330      	orrs	r0, r6
 8001770:	6150      	str	r0, [r2, #20]
 8001772:	e7b0      	b.n	80016d6 <HAL_ADC_ConfigChannel+0x82>
    else if (sConfig->Rank < 15U)
 8001774:	280e      	cmp	r0, #14
      MODIFY_REG(hadc->Instance->SQR3                        ,
 8001776:	eb00 0040 	add.w	r0, r0, r0, lsl #1
 800177a:	ea4f 0040 	mov.w	r0, r0, lsl #1
    else if (sConfig->Rank < 15U)
 800177e:	d80b      	bhi.n	8001798 <HAL_ADC_ConfigChannel+0x144>
      MODIFY_REG(hadc->Instance->SQR3                        ,
 8001780:	383c      	subs	r0, #60	; 0x3c
 8001782:	6b96      	ldr	r6, [r2, #56]	; 0x38
 8001784:	680d      	ldr	r5, [r1, #0]
 8001786:	271f      	movs	r7, #31
 8001788:	4087      	lsls	r7, r0
 800178a:	ea26 0607 	bic.w	r6, r6, r7
 800178e:	fa05 f000 	lsl.w	r0, r5, r0
 8001792:	4330      	orrs	r0, r6
 8001794:	6390      	str	r0, [r2, #56]	; 0x38
 8001796:	e78a      	b.n	80016ae <HAL_ADC_ConfigChannel+0x5a>
      MODIFY_REG(hadc->Instance->SQR4                        ,
 8001798:	385a      	subs	r0, #90	; 0x5a
 800179a:	6bd6      	ldr	r6, [r2, #60]	; 0x3c
 800179c:	680d      	ldr	r5, [r1, #0]
 800179e:	271f      	movs	r7, #31
 80017a0:	4087      	lsls	r7, r0
 80017a2:	ea26 0607 	bic.w	r6, r6, r7
 80017a6:	fa05 f000 	lsl.w	r0, r5, r0
 80017aa:	4330      	orrs	r0, r6
 80017ac:	63d0      	str	r0, [r2, #60]	; 0x3c
 80017ae:	e77e      	b.n	80016ae <HAL_ADC_ConfigChannel+0x5a>
      MODIFY_REG(hadc->Instance->OFR4               ,
 80017b0:	6ed7      	ldr	r7, [r2, #108]	; 0x6c
 80017b2:	4e6c      	ldr	r6, [pc, #432]	; (8001964 <HAL_ADC_ConfigChannel+0x310>)
 80017b4:	403e      	ands	r6, r7
 80017b6:	f046 4600 	orr.w	r6, r6, #2147483648	; 0x80000000
 80017ba:	4330      	orrs	r0, r6
 80017bc:	ea40 6085 	orr.w	r0, r0, r5, lsl #26
 80017c0:	66d0      	str	r0, [r2, #108]	; 0x6c
      break;
 80017c2:	e7ac      	b.n	800171e <HAL_ADC_ConfigChannel+0xca>
      MODIFY_REG(hadc->Instance->OFR3               ,
 80017c4:	6e97      	ldr	r7, [r2, #104]	; 0x68
 80017c6:	4e67      	ldr	r6, [pc, #412]	; (8001964 <HAL_ADC_ConfigChannel+0x310>)
 80017c8:	403e      	ands	r6, r7
 80017ca:	f046 4600 	orr.w	r6, r6, #2147483648	; 0x80000000
 80017ce:	4330      	orrs	r0, r6
 80017d0:	ea40 6085 	orr.w	r0, r0, r5, lsl #26
 80017d4:	6690      	str	r0, [r2, #104]	; 0x68
      break;
 80017d6:	e7a2      	b.n	800171e <HAL_ADC_ConfigChannel+0xca>
      MODIFY_REG(hadc->Instance->OFR2               ,
 80017d8:	6e57      	ldr	r7, [r2, #100]	; 0x64
 80017da:	4e62      	ldr	r6, [pc, #392]	; (8001964 <HAL_ADC_ConfigChannel+0x310>)
 80017dc:	403e      	ands	r6, r7
 80017de:	f046 4600 	orr.w	r6, r6, #2147483648	; 0x80000000
 80017e2:	4330      	orrs	r0, r6
 80017e4:	ea40 6085 	orr.w	r0, r0, r5, lsl #26
 80017e8:	6650      	str	r0, [r2, #100]	; 0x64
      break;
 80017ea:	e798      	b.n	800171e <HAL_ADC_ConfigChannel+0xca>
      MODIFY_REG(hadc->Instance->OFR1               ,
 80017ec:	6e17      	ldr	r7, [r2, #96]	; 0x60
 80017ee:	4e5d      	ldr	r6, [pc, #372]	; (8001964 <HAL_ADC_ConfigChannel+0x310>)
 80017f0:	403e      	ands	r6, r7
 80017f2:	f046 4600 	orr.w	r6, r6, #2147483648	; 0x80000000
 80017f6:	4330      	orrs	r0, r6
 80017f8:	ea40 6085 	orr.w	r0, r0, r5, lsl #26
 80017fc:	6610      	str	r0, [r2, #96]	; 0x60
      break;
 80017fe:	e78e      	b.n	800171e <HAL_ADC_ConfigChannel+0xca>
          (HAL_IS_BIT_CLR(tmpADC_Common->CCR, ADC_CCR_VREFEN)))
 8001800:	4959      	ldr	r1, [pc, #356]	; (8001968 <HAL_ADC_ConfigChannel+0x314>)
 8001802:	6889      	ldr	r1, [r1, #8]
        ( (sConfig->Channel == ADC_CHANNEL_VREFINT)    &&
 8001804:	024e      	lsls	r6, r1, #9
 8001806:	d4a1      	bmi.n	800174c <HAL_ADC_ConfigChannel+0xf8>
      if ((ADC_IS_ENABLE(hadc) == RESET)                                    &&
 8001808:	6891      	ldr	r1, [r2, #8]
      ADC_COMMON_ADC_OTHER(hadc, &tmphadcSharingSameCommonRegister);
 800180a:	f1b2 4fa0 	cmp.w	r2, #1342177280	; 0x50000000
      if ((ADC_IS_ENABLE(hadc) == RESET)                                    &&
 800180e:	f001 0103 	and.w	r1, r1, #3
      ADC_COMMON_ADC_OTHER(hadc, &tmphadcSharingSameCommonRegister);
 8001812:	d060      	beq.n	80018d6 <HAL_ADC_ConfigChannel+0x282>
      if ((ADC_IS_ENABLE(hadc) == RESET)                                    &&
 8001814:	2901      	cmp	r1, #1
      ADC_COMMON_ADC_OTHER(hadc, &tmphadcSharingSameCommonRegister);
 8001816:	f04f 40a0 	mov.w	r0, #1342177280	; 0x50000000
      if ((ADC_IS_ENABLE(hadc) == RESET)                                    &&
 800181a:	d05f      	beq.n	80018dc <HAL_ADC_ConfigChannel+0x288>
            (ADC_IS_ENABLE(&tmphadcSharingSameCommonRegister) == RESET)   )   )
 800181c:	6881      	ldr	r1, [r0, #8]
 800181e:	f001 0103 	and.w	r1, r1, #3
 8001822:	2901      	cmp	r1, #1
 8001824:	d072      	beq.n	800190c <HAL_ADC_ConfigChannel+0x2b8>
        if ((sConfig->Channel == ADC_CHANNEL_TEMPSENSOR) && (hadc->Instance == ADC1))
 8001826:	2d10      	cmp	r5, #16
 8001828:	d074      	beq.n	8001914 <HAL_ADC_ConfigChannel+0x2c0>
        else if ((sConfig->Channel == ADC_CHANNEL_VBAT) && (hadc->Instance == ADC1))
 800182a:	2d11      	cmp	r5, #17
 800182c:	f000 808f 	beq.w	800194e <HAL_ADC_ConfigChannel+0x2fa>
        else if (sConfig->Channel == ADC_CHANNEL_VREFINT)
 8001830:	2d12      	cmp	r5, #18
 8001832:	d18b      	bne.n	800174c <HAL_ADC_ConfigChannel+0xf8>
          SET_BIT(tmpADC_Common->CCR, ADC_CCR_VREFEN);
 8001834:	494c      	ldr	r1, [pc, #304]	; (8001968 <HAL_ADC_ConfigChannel+0x314>)
 8001836:	688a      	ldr	r2, [r1, #8]
 8001838:	f442 0280 	orr.w	r2, r2, #4194304	; 0x400000
 800183c:	608a      	str	r2, [r1, #8]
  HAL_StatusTypeDef tmp_hal_status = HAL_OK;
 800183e:	2000      	movs	r0, #0
 8001840:	e71d      	b.n	800167e <HAL_ADC_ConfigChannel+0x2a>
          (HAL_IS_BIT_CLR(tmpADC_Common->CCR, ADC_CCR_TSEN))            ) ||
 8001842:	4949      	ldr	r1, [pc, #292]	; (8001968 <HAL_ADC_ConfigChannel+0x314>)
 8001844:	6889      	ldr	r1, [r1, #8]
    if (( (sConfig->Channel == ADC_CHANNEL_TEMPSENSOR) &&
 8001846:	0209      	lsls	r1, r1, #8
 8001848:	d5de      	bpl.n	8001808 <HAL_ADC_ConfigChannel+0x1b4>
 800184a:	e77f      	b.n	800174c <HAL_ADC_ConfigChannel+0xf8>
      SET_BIT(hadc->Instance->DIFSEL, ADC_DIFSEL_CHANNEL(sConfig->Channel));
 800184c:	f8d2 00b0 	ldr.w	r0, [r2, #176]	; 0xb0
 8001850:	40ac      	lsls	r4, r5
 8001852:	4304      	orrs	r4, r0
      if (sConfig->Channel >= ADC_CHANNEL_10)
 8001854:	2d09      	cmp	r5, #9
      SET_BIT(hadc->Instance->DIFSEL, ADC_DIFSEL_CHANNEL(sConfig->Channel));
 8001856:	f8c2 40b0 	str.w	r4, [r2, #176]	; 0xb0
      if (sConfig->Channel >= ADC_CHANNEL_10)
 800185a:	d92e      	bls.n	80018ba <HAL_ADC_ConfigChannel+0x266>
        MODIFY_REG(hadc->Instance->SMPR2,
 800185c:	eb05 0045 	add.w	r0, r5, r5, lsl #1
 8001860:	688e      	ldr	r6, [r1, #8]
 8001862:	6994      	ldr	r4, [r2, #24]
 8001864:	f1a0 011b 	sub.w	r1, r0, #27
 8001868:	2707      	movs	r7, #7
 800186a:	408f      	lsls	r7, r1
 800186c:	fa06 f001 	lsl.w	r0, r6, r1
 8001870:	ea24 0107 	bic.w	r1, r4, r7
 8001874:	4301      	orrs	r1, r0
 8001876:	6191      	str	r1, [r2, #24]
 8001878:	e761      	b.n	800173e <HAL_ADC_ConfigChannel+0xea>
          (HAL_IS_BIT_CLR(tmpADC_Common->CCR, ADC_CCR_VBATEN))          ) ||
 800187a:	493b      	ldr	r1, [pc, #236]	; (8001968 <HAL_ADC_ConfigChannel+0x314>)
 800187c:	6889      	ldr	r1, [r1, #8]
        ( (sConfig->Channel == ADC_CHANNEL_VBAT)       &&
 800187e:	01cf      	lsls	r7, r1, #7
 8001880:	d5c2      	bpl.n	8001808 <HAL_ADC_ConfigChannel+0x1b4>
 8001882:	e763      	b.n	800174c <HAL_ADC_ConfigChannel+0xf8>
      if (((hadc->Instance->OFR1) & ADC_OFR1_OFFSET1_CH) == ADC_OFR_CHANNEL(sConfig->Channel))
 8001884:	6e16      	ldr	r6, [r2, #96]	; 0x60
 8001886:	06a8      	lsls	r0, r5, #26
 8001888:	f006 46f8 	and.w	r6, r6, #2080374784	; 0x7c000000
 800188c:	4286      	cmp	r6, r0
 800188e:	d038      	beq.n	8001902 <HAL_ADC_ConfigChannel+0x2ae>
      if (((hadc->Instance->OFR2) & ADC_OFR2_OFFSET2_CH) == ADC_OFR_CHANNEL(sConfig->Channel))
 8001890:	6e56      	ldr	r6, [r2, #100]	; 0x64
 8001892:	f006 46f8 	and.w	r6, r6, #2080374784	; 0x7c000000
 8001896:	42b0      	cmp	r0, r6
 8001898:	d02e      	beq.n	80018f8 <HAL_ADC_ConfigChannel+0x2a4>
      if (((hadc->Instance->OFR3) & ADC_OFR3_OFFSET3_CH) == ADC_OFR_CHANNEL(sConfig->Channel))
 800189a:	6e96      	ldr	r6, [r2, #104]	; 0x68
 800189c:	f006 46f8 	and.w	r6, r6, #2080374784	; 0x7c000000
 80018a0:	42b0      	cmp	r0, r6
 80018a2:	d024      	beq.n	80018ee <HAL_ADC_ConfigChannel+0x29a>
      if (((hadc->Instance->OFR4) & ADC_OFR4_OFFSET4_CH) == ADC_OFR_CHANNEL(sConfig->Channel))
 80018a4:	6ed6      	ldr	r6, [r2, #108]	; 0x6c
 80018a6:	f006 46f8 	and.w	r6, r6, #2080374784	; 0x7c000000
 80018aa:	42b0      	cmp	r0, r6
 80018ac:	f47f af37 	bne.w	800171e <HAL_ADC_ConfigChannel+0xca>
        CLEAR_BIT(hadc->Instance->OFR4, ADC_OFR4_OFFSET4_EN);
 80018b0:	6ed0      	ldr	r0, [r2, #108]	; 0x6c
 80018b2:	f020 4000 	bic.w	r0, r0, #2147483648	; 0x80000000
 80018b6:	66d0      	str	r0, [r2, #108]	; 0x6c
 80018b8:	e731      	b.n	800171e <HAL_ADC_ConfigChannel+0xca>
        MODIFY_REG(hadc->Instance->SMPR1,
 80018ba:	1c68      	adds	r0, r5, #1
 80018bc:	688e      	ldr	r6, [r1, #8]
 80018be:	6954      	ldr	r4, [r2, #20]
 80018c0:	eb00 0140 	add.w	r1, r0, r0, lsl #1
 80018c4:	2707      	movs	r7, #7
 80018c6:	408f      	lsls	r7, r1
 80018c8:	fa06 f001 	lsl.w	r0, r6, r1
 80018cc:	ea24 0107 	bic.w	r1, r4, r7
 80018d0:	4301      	orrs	r1, r0
 80018d2:	6151      	str	r1, [r2, #20]
 80018d4:	e735      	b.n	8001742 <HAL_ADC_ConfigChannel+0xee>
      if ((ADC_IS_ENABLE(hadc) == RESET)                                    &&
 80018d6:	2901      	cmp	r1, #1
      ADC_COMMON_ADC_OTHER(hadc, &tmphadcSharingSameCommonRegister);
 80018d8:	4824      	ldr	r0, [pc, #144]	; (800196c <HAL_ADC_ConfigChannel+0x318>)
      if ((ADC_IS_ENABLE(hadc) == RESET)                                    &&
 80018da:	d19f      	bne.n	800181c <HAL_ADC_ConfigChannel+0x1c8>
 80018dc:	6811      	ldr	r1, [r2, #0]
 80018de:	07cc      	lsls	r4, r1, #31
 80018e0:	d59c      	bpl.n	800181c <HAL_ADC_ConfigChannel+0x1c8>
        SET_BIT(hadc->State, HAL_ADC_STATE_ERROR_CONFIG);
 80018e2:	6c5a      	ldr	r2, [r3, #68]	; 0x44
 80018e4:	f042 0220 	orr.w	r2, r2, #32
 80018e8:	645a      	str	r2, [r3, #68]	; 0x44
        tmp_hal_status = HAL_ERROR;
 80018ea:	2001      	movs	r0, #1
 80018ec:	e6c7      	b.n	800167e <HAL_ADC_ConfigChannel+0x2a>
        CLEAR_BIT(hadc->Instance->OFR3, ADC_OFR3_OFFSET3_EN);
 80018ee:	6e96      	ldr	r6, [r2, #104]	; 0x68
 80018f0:	f026 4600 	bic.w	r6, r6, #2147483648	; 0x80000000
 80018f4:	6696      	str	r6, [r2, #104]	; 0x68
 80018f6:	e7d5      	b.n	80018a4 <HAL_ADC_ConfigChannel+0x250>
        CLEAR_BIT(hadc->Instance->OFR2, ADC_OFR2_OFFSET2_EN); 
 80018f8:	6e56      	ldr	r6, [r2, #100]	; 0x64
 80018fa:	f026 4600 	bic.w	r6, r6, #2147483648	; 0x80000000
 80018fe:	6656      	str	r6, [r2, #100]	; 0x64
 8001900:	e7cb      	b.n	800189a <HAL_ADC_ConfigChannel+0x246>
        CLEAR_BIT(hadc->Instance->OFR1, ADC_OFR1_OFFSET1_EN);
 8001902:	6e16      	ldr	r6, [r2, #96]	; 0x60
 8001904:	f026 4600 	bic.w	r6, r6, #2147483648	; 0x80000000
 8001908:	6616      	str	r6, [r2, #96]	; 0x60
 800190a:	e7c1      	b.n	8001890 <HAL_ADC_ConfigChannel+0x23c>
            (ADC_IS_ENABLE(&tmphadcSharingSameCommonRegister) == RESET)   )   )
 800190c:	6801      	ldr	r1, [r0, #0]
 800190e:	07c9      	lsls	r1, r1, #31
 8001910:	d4e7      	bmi.n	80018e2 <HAL_ADC_ConfigChannel+0x28e>
 8001912:	e788      	b.n	8001826 <HAL_ADC_ConfigChannel+0x1d2>
        if ((sConfig->Channel == ADC_CHANNEL_TEMPSENSOR) && (hadc->Instance == ADC1))
 8001914:	f1b2 4fa0 	cmp.w	r2, #1342177280	; 0x50000000
 8001918:	f47f af18 	bne.w	800174c <HAL_ADC_ConfigChannel+0xf8>
          SET_BIT(tmpADC_Common->CCR, ADC_CCR_TSEN);
 800191c:	4912      	ldr	r1, [pc, #72]	; (8001968 <HAL_ADC_ConfigChannel+0x314>)
          wait_loop_index = (ADC_TEMPSENSOR_DELAY_US * (SystemCoreClock / 1000000U));
 800191e:	4c14      	ldr	r4, [pc, #80]	; (8001970 <HAL_ADC_ConfigChannel+0x31c>)
          SET_BIT(tmpADC_Common->CCR, ADC_CCR_TSEN);
 8001920:	688a      	ldr	r2, [r1, #8]
          wait_loop_index = (ADC_TEMPSENSOR_DELAY_US * (SystemCoreClock / 1000000U));
 8001922:	4814      	ldr	r0, [pc, #80]	; (8001974 <HAL_ADC_ConfigChannel+0x320>)
          SET_BIT(tmpADC_Common->CCR, ADC_CCR_TSEN);
 8001924:	f442 0200 	orr.w	r2, r2, #8388608	; 0x800000
 8001928:	608a      	str	r2, [r1, #8]
          wait_loop_index = (ADC_TEMPSENSOR_DELAY_US * (SystemCoreClock / 1000000U));
 800192a:	220a      	movs	r2, #10
 800192c:	6821      	ldr	r1, [r4, #0]
 800192e:	fbb1 f1f0 	udiv	r1, r1, r0
 8001932:	fb02 f201 	mul.w	r2, r2, r1
 8001936:	9201      	str	r2, [sp, #4]
          while(wait_loop_index != 0U)
 8001938:	9a01      	ldr	r2, [sp, #4]
 800193a:	2a00      	cmp	r2, #0
 800193c:	f43f af06 	beq.w	800174c <HAL_ADC_ConfigChannel+0xf8>
            wait_loop_index--;
 8001940:	9a01      	ldr	r2, [sp, #4]
 8001942:	3a01      	subs	r2, #1
 8001944:	9201      	str	r2, [sp, #4]
          while(wait_loop_index != 0U)
 8001946:	9a01      	ldr	r2, [sp, #4]
 8001948:	2a00      	cmp	r2, #0
 800194a:	d1f9      	bne.n	8001940 <HAL_ADC_ConfigChannel+0x2ec>
 800194c:	e6fe      	b.n	800174c <HAL_ADC_ConfigChannel+0xf8>
        else if ((sConfig->Channel == ADC_CHANNEL_VBAT) && (hadc->Instance == ADC1))
 800194e:	f1b2 4fa0 	cmp.w	r2, #1342177280	; 0x50000000
 8001952:	f47f aefb 	bne.w	800174c <HAL_ADC_ConfigChannel+0xf8>
          SET_BIT(tmpADC_Common->CCR, ADC_CCR_VBATEN);
 8001956:	4904      	ldr	r1, [pc, #16]	; (8001968 <HAL_ADC_ConfigChannel+0x314>)
 8001958:	688a      	ldr	r2, [r1, #8]
 800195a:	f042 7280 	orr.w	r2, r2, #16777216	; 0x1000000
 800195e:	608a      	str	r2, [r1, #8]
 8001960:	e6f4      	b.n	800174c <HAL_ADC_ConfigChannel+0xf8>
 8001962:	bf00      	nop
 8001964:	83fff000 	.word	0x83fff000
 8001968:	50000300 	.word	0x50000300
 800196c:	50000100 	.word	0x50000100
 8001970:	20000000 	.word	0x20000000
 8001974:	000f4240 	.word	0x000f4240

08001978 <HAL_NVIC_SetPriorityGrouping>:
__STATIC_INLINE void NVIC_SetPriorityGrouping(uint32_t PriorityGroup)
{
  uint32_t reg_value;
  uint32_t PriorityGroupTmp = (PriorityGroup & (uint32_t)0x07UL);             /* only values 0..7 are used          */

  reg_value  =  SCB->AIRCR;                                                   /* read old register configuration    */
 8001978:	4a07      	ldr	r2, [pc, #28]	; (8001998 <HAL_NVIC_SetPriorityGrouping+0x20>)
 800197a:	68d3      	ldr	r3, [r2, #12]
  reg_value &= ~((uint32_t)(SCB_AIRCR_VECTKEY_Msk | SCB_AIRCR_PRIGROUP_Msk)); /* clear bits to change               */
 800197c:	f64f 01ff 	movw	r1, #63743	; 0xf8ff
 8001980:	400b      	ands	r3, r1
  reg_value  =  (reg_value                                   |
                ((uint32_t)0x5FAUL << SCB_AIRCR_VECTKEY_Pos) |
                (PriorityGroupTmp << 8U)                      );              /* Insert write key and priorty group */
 8001982:	0200      	lsls	r0, r0, #8
 8001984:	f043 63bf 	orr.w	r3, r3, #100139008	; 0x5f80000
 8001988:	f400 60e0 	and.w	r0, r0, #1792	; 0x700
 800198c:	f443 3300 	orr.w	r3, r3, #131072	; 0x20000
  reg_value  =  (reg_value                                   |
 8001990:	4303      	orrs	r3, r0
  SCB->AIRCR =  reg_value;
 8001992:	60d3      	str	r3, [r2, #12]
 8001994:	4770      	bx	lr
 8001996:	bf00      	nop
 8001998:	e000ed00 	.word	0xe000ed00

0800199c <HAL_NVIC_SetPriority>:
  \details Reads the priority grouping field from the NVIC Interrupt Controller.
  \return                Priority grouping field (SCB->AIRCR [10:8] PRIGROUP field).
 */
__STATIC_INLINE uint32_t NVIC_GetPriorityGrouping(void)
{
  return ((uint32_t)((SCB->AIRCR & SCB_AIRCR_PRIGROUP_Msk) >> SCB_AIRCR_PRIGROUP_Pos));
 800199c:	4b18      	ldr	r3, [pc, #96]	; (8001a00 <HAL_NVIC_SetPriority+0x64>)
  *         This parameter can be a value between 0 and 15 as described in the table CORTEX_NVIC_Priority_Table
  *         A lower priority value indicates a higher priority.
  * @retval None
  */
void HAL_NVIC_SetPriority(IRQn_Type IRQn, uint32_t PreemptPriority, uint32_t SubPriority)
{
 800199e:	b470      	push	{r4, r5, r6}
 80019a0:	68dc      	ldr	r4, [r3, #12]
 80019a2:	f3c4 2402 	ubfx	r4, r4, #8, #3
{
  uint32_t PriorityGroupTmp = (PriorityGroup & (uint32_t)0x07UL);   /* only values 0..7 are used          */
  uint32_t PreemptPriorityBits;
  uint32_t SubPriorityBits;

  PreemptPriorityBits = ((7UL - PriorityGroupTmp) > (uint32_t)(__NVIC_PRIO_BITS)) ? (uint32_t)(__NVIC_PRIO_BITS) : (uint32_t)(7UL - PriorityGroupTmp);
 80019a6:	f1c4 0607 	rsb	r6, r4, #7
 80019aa:	2e04      	cmp	r6, #4
  SubPriorityBits     = ((PriorityGroupTmp + (uint32_t)(__NVIC_PRIO_BITS)) < (uint32_t)7UL) ? (uint32_t)0UL : (uint32_t)((PriorityGroupTmp - 7UL) + (uint32_t)(__NVIC_PRIO_BITS));
 80019ac:	f104 0304 	add.w	r3, r4, #4
  PreemptPriorityBits = ((7UL - PriorityGroupTmp) > (uint32_t)(__NVIC_PRIO_BITS)) ? (uint32_t)(__NVIC_PRIO_BITS) : (uint32_t)(7UL - PriorityGroupTmp);
 80019b0:	bf28      	it	cs
 80019b2:	2604      	movcs	r6, #4
  SubPriorityBits     = ((PriorityGroupTmp + (uint32_t)(__NVIC_PRIO_BITS)) < (uint32_t)7UL) ? (uint32_t)0UL : (uint32_t)((PriorityGroupTmp - 7UL) + (uint32_t)(__NVIC_PRIO_BITS));
 80019b4:	2b06      	cmp	r3, #6
 80019b6:	d917      	bls.n	80019e8 <HAL_NVIC_SetPriority+0x4c>
 80019b8:	3c03      	subs	r4, #3
 80019ba:	2501      	movs	r5, #1
 80019bc:	40a5      	lsls	r5, r4
 80019be:	3d01      	subs	r5, #1
 80019c0:	402a      	ands	r2, r5

  return (
           ((PreemptPriority & (uint32_t)((1UL << (PreemptPriorityBits)) - 1UL)) << SubPriorityBits) |
 80019c2:	2301      	movs	r3, #1
 80019c4:	40b3      	lsls	r3, r6
 80019c6:	3b01      	subs	r3, #1
 80019c8:	4019      	ands	r1, r3
 80019ca:	40a1      	lsls	r1, r4
  if ((int32_t)(IRQn) < 0)
 80019cc:	2800      	cmp	r0, #0
           ((PreemptPriority & (uint32_t)((1UL << (PreemptPriorityBits)) - 1UL)) << SubPriorityBits) |
 80019ce:	ea41 0102 	orr.w	r1, r1, r2
  if ((int32_t)(IRQn) < 0)
 80019d2:	db0c      	blt.n	80019ee <HAL_NVIC_SetPriority+0x52>
    NVIC->IP[((uint32_t)(int32_t)IRQn)]               = (uint8_t)((priority << (8U - __NVIC_PRIO_BITS)) & (uint32_t)0xFFUL);
 80019d4:	f100 4060 	add.w	r0, r0, #3758096384	; 0xe0000000
 80019d8:	f500 4061 	add.w	r0, r0, #57600	; 0xe100
 80019dc:	0109      	lsls	r1, r1, #4
 80019de:	b2c9      	uxtb	r1, r1
 80019e0:	f880 1300 	strb.w	r1, [r0, #768]	; 0x300
  assert_param(IS_NVIC_PREEMPTION_PRIORITY(PreemptPriority));
  
  prioritygroup = NVIC_GetPriorityGrouping();
  
  NVIC_SetPriority(IRQn, NVIC_EncodePriority(prioritygroup, PreemptPriority, SubPriority));
}
 80019e4:	bc70      	pop	{r4, r5, r6}
 80019e6:	4770      	bx	lr
  SubPriorityBits     = ((PriorityGroupTmp + (uint32_t)(__NVIC_PRIO_BITS)) < (uint32_t)7UL) ? (uint32_t)0UL : (uint32_t)((PriorityGroupTmp - 7UL) + (uint32_t)(__NVIC_PRIO_BITS));
 80019e8:	2200      	movs	r2, #0
 80019ea:	4614      	mov	r4, r2
 80019ec:	e7e9      	b.n	80019c2 <HAL_NVIC_SetPriority+0x26>
    SCB->SHP[(((uint32_t)(int32_t)IRQn) & 0xFUL)-4UL] = (uint8_t)((priority << (8U - __NVIC_PRIO_BITS)) & (uint32_t)0xFFUL);
 80019ee:	4b05      	ldr	r3, [pc, #20]	; (8001a04 <HAL_NVIC_SetPriority+0x68>)
 80019f0:	f000 000f 	and.w	r0, r0, #15
 80019f4:	0109      	lsls	r1, r1, #4
 80019f6:	4403      	add	r3, r0
 80019f8:	b2c9      	uxtb	r1, r1
 80019fa:	7619      	strb	r1, [r3, #24]
 80019fc:	bc70      	pop	{r4, r5, r6}
 80019fe:	4770      	bx	lr
 8001a00:	e000ed00 	.word	0xe000ed00
 8001a04:	e000ecfc 	.word	0xe000ecfc

08001a08 <HAL_NVIC_EnableIRQ>:
  NVIC->ISER[(((uint32_t)(int32_t)IRQn) >> 5UL)] = (uint32_t)(1UL << (((uint32_t)(int32_t)IRQn) & 0x1FUL));
 8001a08:	f000 011f 	and.w	r1, r0, #31
 8001a0c:	2301      	movs	r3, #1
 8001a0e:	0940      	lsrs	r0, r0, #5
 8001a10:	4a02      	ldr	r2, [pc, #8]	; (8001a1c <HAL_NVIC_EnableIRQ+0x14>)
 8001a12:	408b      	lsls	r3, r1
 8001a14:	f842 3020 	str.w	r3, [r2, r0, lsl #2]
 8001a18:	4770      	bx	lr
 8001a1a:	bf00      	nop
 8001a1c:	e000e100 	.word	0xe000e100

08001a20 <HAL_SYSTICK_Config>:
           function <b>SysTick_Config</b> is not included. In this case, the file <b><i>device</i>.h</b>
           must contain a vendor-specific implementation of this function.
 */
__STATIC_INLINE uint32_t SysTick_Config(uint32_t ticks)
{
  if ((ticks - 1UL) > SysTick_LOAD_RELOAD_Msk)
 8001a20:	3801      	subs	r0, #1
 8001a22:	f1b0 7f80 	cmp.w	r0, #16777216	; 0x1000000
 8001a26:	d20e      	bcs.n	8001a46 <HAL_SYSTICK_Config+0x26>
  {
    return (1UL);                                                   /* Reload value impossible */
  }

  SysTick->LOAD  = (uint32_t)(ticks - 1UL);                         /* set reload register */
 8001a28:	4b08      	ldr	r3, [pc, #32]	; (8001a4c <HAL_SYSTICK_Config+0x2c>)
  * @param  TicksNumb Specifies the ticks Number of ticks between two interrupts.
  * @retval status:  - 0  Function succeeded.
  *                  - 1  Function failed.
  */
uint32_t HAL_SYSTICK_Config(uint32_t TicksNumb)
{
 8001a2a:	b410      	push	{r4}
    SCB->SHP[(((uint32_t)(int32_t)IRQn) & 0xFUL)-4UL] = (uint8_t)((priority << (8U - __NVIC_PRIO_BITS)) & (uint32_t)0xFFUL);
 8001a2c:	4c08      	ldr	r4, [pc, #32]	; (8001a50 <HAL_SYSTICK_Config+0x30>)
  SysTick->LOAD  = (uint32_t)(ticks - 1UL);                         /* set reload register */
 8001a2e:	6058      	str	r0, [r3, #4]
    SCB->SHP[(((uint32_t)(int32_t)IRQn) & 0xFUL)-4UL] = (uint8_t)((priority << (8U - __NVIC_PRIO_BITS)) & (uint32_t)0xFFUL);
 8001a30:	20f0      	movs	r0, #240	; 0xf0
 8001a32:	f884 0023 	strb.w	r0, [r4, #35]	; 0x23
  NVIC_SetPriority (SysTick_IRQn, (1UL << __NVIC_PRIO_BITS) - 1UL); /* set Priority for Systick Interrupt */
  SysTick->VAL   = 0UL;                                             /* Load the SysTick Counter Value */
 8001a36:	2200      	movs	r2, #0
  SysTick->CTRL  = SysTick_CTRL_CLKSOURCE_Msk |
 8001a38:	2107      	movs	r1, #7
                   SysTick_CTRL_TICKINT_Msk   |
                   SysTick_CTRL_ENABLE_Msk;                         /* Enable SysTick IRQ and SysTick Timer */
  return (0UL);                                                     /* Function successful */
 8001a3a:	4610      	mov	r0, r2
  SysTick->VAL   = 0UL;                                             /* Load the SysTick Counter Value */
 8001a3c:	609a      	str	r2, [r3, #8]
  SysTick->CTRL  = SysTick_CTRL_CLKSOURCE_Msk |
 8001a3e:	6019      	str	r1, [r3, #0]
   return SysTick_Config(TicksNumb);
}
 8001a40:	f85d 4b04 	ldr.w	r4, [sp], #4
 8001a44:	4770      	bx	lr
    return (1UL);                                                   /* Reload value impossible */
 8001a46:	2001      	movs	r0, #1
   return SysTick_Config(TicksNumb);
 8001a48:	4770      	bx	lr
 8001a4a:	bf00      	nop
 8001a4c:	e000e010 	.word	0xe000e010
 8001a50:	e000ed00 	.word	0xe000ed00

08001a54 <HAL_SYSTICK_CLKSourceConfig>:
{
  /* Check the parameters */
  assert_param(IS_SYSTICK_CLK_SOURCE(CLKSource));
  if (CLKSource == SYSTICK_CLKSOURCE_HCLK)
  {
    SysTick->CTRL |= SYSTICK_CLKSOURCE_HCLK;
 8001a54:	4a04      	ldr	r2, [pc, #16]	; (8001a68 <HAL_SYSTICK_CLKSourceConfig+0x14>)
 8001a56:	6813      	ldr	r3, [r2, #0]
  if (CLKSource == SYSTICK_CLKSOURCE_HCLK)
 8001a58:	2804      	cmp	r0, #4
    SysTick->CTRL |= SYSTICK_CLKSOURCE_HCLK;
 8001a5a:	bf0c      	ite	eq
 8001a5c:	f043 0304 	orreq.w	r3, r3, #4
  }
  else
  {
    SysTick->CTRL &= ~SYSTICK_CLKSOURCE_HCLK;
 8001a60:	f023 0304 	bicne.w	r3, r3, #4
 8001a64:	6013      	str	r3, [r2, #0]
 8001a66:	4770      	bx	lr
 8001a68:	e000e010 	.word	0xe000e010

08001a6c <HAL_SYSTICK_Callback>:
/**
  * @brief  SYSTICK callback.
  * @retval None
  */
__weak void HAL_SYSTICK_Callback(void)
{
 8001a6c:	4770      	bx	lr
 8001a6e:	bf00      	nop

08001a70 <HAL_SYSTICK_IRQHandler>:
{
 8001a70:	b508      	push	{r3, lr}
  HAL_SYSTICK_Callback();
 8001a72:	f7ff fffb 	bl	8001a6c <HAL_SYSTICK_Callback>
 8001a76:	bd08      	pop	{r3, pc}

08001a78 <HAL_DMA_Init>:
HAL_StatusTypeDef HAL_DMA_Init(DMA_HandleTypeDef *hdma)
{ 
  uint32_t tmp = 0U;
  
  /* Check the DMA handle allocation */
  if(NULL == hdma)
 8001a78:	2800      	cmp	r0, #0
 8001a7a:	d02d      	beq.n	8001ad8 <HAL_DMA_Init+0x60>
{ 
 8001a7c:	b4f0      	push	{r4, r5, r6, r7}
  tmp &= ((uint32_t)~(DMA_CCR_PL    | DMA_CCR_MSIZE  | DMA_CCR_PSIZE  | \
                      DMA_CCR_MINC  | DMA_CCR_PINC   | DMA_CCR_CIRC   | \
                      DMA_CCR_DIR));
  
  /* Prepare the DMA Channel configuration */
  tmp |=  hdma->Init.Direction        |
 8001a7e:	6842      	ldr	r2, [r0, #4]
 8001a80:	6887      	ldr	r7, [r0, #8]
          hdma->Init.PeriphInc           | hdma->Init.MemInc           |
 8001a82:	68c6      	ldr	r6, [r0, #12]
 8001a84:	6904      	ldr	r4, [r0, #16]
    hdma->DmaBaseAddress = DMA2;
  }
#else
  /* calculation of the channel index */
  /* DMA1 */
  hdma->ChannelIndex = (((uint32_t)hdma->Instance - (uint32_t)DMA1_Channel1) / ((uint32_t)DMA1_Channel2 - (uint32_t)DMA1_Channel1)) << 2U;
 8001a86:	4915      	ldr	r1, [pc, #84]	; (8001adc <HAL_DMA_Init+0x64>)
 8001a88:	4603      	mov	r3, r0
  tmp |=  hdma->Init.Direction        |
 8001a8a:	433a      	orrs	r2, r7
  tmp = hdma->Instance->CCR;
 8001a8c:	6800      	ldr	r0, [r0, #0]
          hdma->Init.PeriphDataAlignment | hdma->Init.MemDataAlignment |
 8001a8e:	695d      	ldr	r5, [r3, #20]
  hdma->ChannelIndex = (((uint32_t)hdma->Instance - (uint32_t)DMA1_Channel1) / ((uint32_t)DMA1_Channel2 - (uint32_t)DMA1_Channel1)) << 2U;
 8001a90:	4f13      	ldr	r7, [pc, #76]	; (8001ae0 <HAL_DMA_Init+0x68>)
          hdma->Init.PeriphInc           | hdma->Init.MemInc           |
 8001a92:	4332      	orrs	r2, r6
 8001a94:	4322      	orrs	r2, r4
          hdma->Init.PeriphDataAlignment | hdma->Init.MemDataAlignment |
 8001a96:	699e      	ldr	r6, [r3, #24]
  tmp = hdma->Instance->CCR;
 8001a98:	6804      	ldr	r4, [r0, #0]
          hdma->Init.PeriphDataAlignment | hdma->Init.MemDataAlignment |
 8001a9a:	432a      	orrs	r2, r5
          hdma->Init.Mode                | hdma->Init.Priority;
 8001a9c:	69dd      	ldr	r5, [r3, #28]
          hdma->Init.PeriphDataAlignment | hdma->Init.MemDataAlignment |
 8001a9e:	4332      	orrs	r2, r6
  hdma->ChannelIndex = (((uint32_t)hdma->Instance - (uint32_t)DMA1_Channel1) / ((uint32_t)DMA1_Channel2 - (uint32_t)DMA1_Channel1)) << 2U;
 8001aa0:	4401      	add	r1, r0
  tmp &= ((uint32_t)~(DMA_CCR_PL    | DMA_CCR_MSIZE  | DMA_CCR_PSIZE  | \
 8001aa2:	f424 547f 	bic.w	r4, r4, #16320	; 0x3fc0
  hdma->ChannelIndex = (((uint32_t)hdma->Instance - (uint32_t)DMA1_Channel1) / ((uint32_t)DMA1_Channel2 - (uint32_t)DMA1_Channel1)) << 2U;
 8001aa6:	fba7 6101 	umull	r6, r1, r7, r1
          hdma->Init.Mode                | hdma->Init.Priority;
 8001aaa:	432a      	orrs	r2, r5
  tmp &= ((uint32_t)~(DMA_CCR_PL    | DMA_CCR_MSIZE  | DMA_CCR_PSIZE  | \
 8001aac:	f024 0430 	bic.w	r4, r4, #48	; 0x30
  tmp |=  hdma->Init.Direction        |
 8001ab0:	4322      	orrs	r2, r4
  hdma->ChannelIndex = (((uint32_t)hdma->Instance - (uint32_t)DMA1_Channel1) / ((uint32_t)DMA1_Channel2 - (uint32_t)DMA1_Channel1)) << 2U;
 8001ab2:	0909      	lsrs	r1, r1, #4
  hdma->Instance->CCR = tmp;  
 8001ab4:	6002      	str	r2, [r0, #0]
  hdma->DmaBaseAddress = DMA1;
 8001ab6:	4c0b      	ldr	r4, [pc, #44]	; (8001ae4 <HAL_DMA_Init+0x6c>)
 8001ab8:	63dc      	str	r4, [r3, #60]	; 0x3c
  hdma->XferCpltCallback = NULL;
 8001aba:	2000      	movs	r0, #0
  hdma->ChannelIndex = (((uint32_t)hdma->Instance - (uint32_t)DMA1_Channel1) / ((uint32_t)DMA1_Channel2 - (uint32_t)DMA1_Channel1)) << 2U;
 8001abc:	0089      	lsls	r1, r1, #2
  hdma->State = HAL_DMA_STATE_READY;
 8001abe:	2201      	movs	r2, #1
  hdma->ChannelIndex = (((uint32_t)hdma->Instance - (uint32_t)DMA1_Channel1) / ((uint32_t)DMA1_Channel2 - (uint32_t)DMA1_Channel1)) << 2U;
 8001ac0:	6419      	str	r1, [r3, #64]	; 0x40
  hdma->XferCpltCallback = NULL;
 8001ac2:	6298      	str	r0, [r3, #40]	; 0x28
  hdma->XferHalfCpltCallback = NULL;
 8001ac4:	62d8      	str	r0, [r3, #44]	; 0x2c
  hdma->XferErrorCallback = NULL;
 8001ac6:	6318      	str	r0, [r3, #48]	; 0x30
  hdma->XferAbortCallback = NULL;
 8001ac8:	6358      	str	r0, [r3, #52]	; 0x34
  hdma->ErrorCode = HAL_DMA_ERROR_NONE;
 8001aca:	6398      	str	r0, [r3, #56]	; 0x38
  hdma->Lock = HAL_UNLOCKED;
 8001acc:	f883 0020 	strb.w	r0, [r3, #32]
  hdma->State = HAL_DMA_STATE_READY;
 8001ad0:	f883 2021 	strb.w	r2, [r3, #33]	; 0x21
}  
 8001ad4:	bcf0      	pop	{r4, r5, r6, r7}
 8001ad6:	4770      	bx	lr
    return HAL_ERROR;
 8001ad8:	2001      	movs	r0, #1
 8001ada:	4770      	bx	lr
 8001adc:	bffdfff8 	.word	0xbffdfff8
 8001ae0:	cccccccd 	.word	0xcccccccd
 8001ae4:	40020000 	.word	0x40020000

08001ae8 <HAL_DMA_Start_IT>:
{
 8001ae8:	b5f0      	push	{r4, r5, r6, r7, lr}
  __HAL_LOCK(hdma);
 8001aea:	f890 4020 	ldrb.w	r4, [r0, #32]
 8001aee:	2c01      	cmp	r4, #1
 8001af0:	d00b      	beq.n	8001b0a <HAL_DMA_Start_IT+0x22>
  if(HAL_DMA_STATE_READY == hdma->State)
 8001af2:	f890 4021 	ldrb.w	r4, [r0, #33]	; 0x21
  __HAL_LOCK(hdma);
 8001af6:	2501      	movs	r5, #1
  if(HAL_DMA_STATE_READY == hdma->State)
 8001af8:	42ac      	cmp	r4, r5
  __HAL_LOCK(hdma);
 8001afa:	f880 5020 	strb.w	r5, [r0, #32]
  if(HAL_DMA_STATE_READY == hdma->State)
 8001afe:	d006      	beq.n	8001b0e <HAL_DMA_Start_IT+0x26>
    __HAL_UNLOCK(hdma); 
 8001b00:	2300      	movs	r3, #0
 8001b02:	f880 3020 	strb.w	r3, [r0, #32]
    status = HAL_BUSY;
 8001b06:	2002      	movs	r0, #2
 8001b08:	bdf0      	pop	{r4, r5, r6, r7, pc}
  __HAL_LOCK(hdma);
 8001b0a:	2002      	movs	r0, #2
} 
 8001b0c:	bdf0      	pop	{r4, r5, r6, r7, pc}
  	hdma->Instance->CCR &= ~DMA_CCR_EN;
 8001b0e:	6805      	ldr	r5, [r0, #0]
  hdma->DmaBaseAddress->IFCR  = (DMA_FLAG_GL1 << hdma->ChannelIndex);
 8001b10:	6c07      	ldr	r7, [r0, #64]	; 0x40
 8001b12:	f8d0 e03c 	ldr.w	lr, [r0, #60]	; 0x3c
  	hdma->ErrorCode = HAL_DMA_ERROR_NONE;
 8001b16:	2600      	movs	r6, #0
 8001b18:	6386      	str	r6, [r0, #56]	; 0x38
  	hdma->Instance->CCR &= ~DMA_CCR_EN;
 8001b1a:	682e      	ldr	r6, [r5, #0]
  hdma->DmaBaseAddress->IFCR  = (DMA_FLAG_GL1 << hdma->ChannelIndex);
 8001b1c:	40bc      	lsls	r4, r7
  	hdma->Instance->CCR &= ~DMA_CCR_EN;
 8001b1e:	f026 0601 	bic.w	r6, r6, #1
  if((hdma->Init.Direction) == DMA_MEMORY_TO_PERIPH)
 8001b22:	6847      	ldr	r7, [r0, #4]
  	hdma->State = HAL_DMA_STATE_BUSY;
 8001b24:	f04f 0c02 	mov.w	ip, #2
 8001b28:	f880 c021 	strb.w	ip, [r0, #33]	; 0x21
  	hdma->Instance->CCR &= ~DMA_CCR_EN;
 8001b2c:	602e      	str	r6, [r5, #0]
  hdma->DmaBaseAddress->IFCR  = (DMA_FLAG_GL1 << hdma->ChannelIndex);
 8001b2e:	f8ce 4004 	str.w	r4, [lr, #4]
  hdma->Instance->CNDTR = DataLength;
 8001b32:	606b      	str	r3, [r5, #4]
    if(NULL != hdma->XferHalfCpltCallback )
 8001b34:	6ac3      	ldr	r3, [r0, #44]	; 0x2c
  if((hdma->Init.Direction) == DMA_MEMORY_TO_PERIPH)
 8001b36:	2f10      	cmp	r7, #16
    hdma->Instance->CPAR = DstAddress;
 8001b38:	bf0b      	itete	eq
 8001b3a:	60aa      	streq	r2, [r5, #8]
    hdma->Instance->CPAR = SrcAddress;
 8001b3c:	60a9      	strne	r1, [r5, #8]
    hdma->Instance->CMAR = SrcAddress;
 8001b3e:	60e9      	streq	r1, [r5, #12]
    hdma->Instance->CMAR = DstAddress;
 8001b40:	60ea      	strne	r2, [r5, #12]
    if(NULL != hdma->XferHalfCpltCallback )
 8001b42:	b14b      	cbz	r3, 8001b58 <HAL_DMA_Start_IT+0x70>
      hdma->Instance->CCR |= (DMA_IT_TC | DMA_IT_HT | DMA_IT_TE);
 8001b44:	682b      	ldr	r3, [r5, #0]
 8001b46:	f043 030e 	orr.w	r3, r3, #14
 8001b4a:	602b      	str	r3, [r5, #0]
  	hdma->Instance->CCR |= DMA_CCR_EN;
 8001b4c:	682b      	ldr	r3, [r5, #0]
 8001b4e:	f043 0301 	orr.w	r3, r3, #1
 8001b52:	602b      	str	r3, [r5, #0]
	HAL_StatusTypeDef status = HAL_OK;
 8001b54:	2000      	movs	r0, #0
 8001b56:	bdf0      	pop	{r4, r5, r6, r7, pc}
  		hdma->Instance->CCR |= (DMA_IT_TC | DMA_IT_TE);
 8001b58:	682b      	ldr	r3, [r5, #0]
 8001b5a:	f043 030a 	orr.w	r3, r3, #10
 8001b5e:	602b      	str	r3, [r5, #0]
  		hdma->Instance->CCR &= ~DMA_IT_HT;
 8001b60:	682b      	ldr	r3, [r5, #0]
 8001b62:	f023 0304 	bic.w	r3, r3, #4
 8001b66:	602b      	str	r3, [r5, #0]
 8001b68:	e7f0      	b.n	8001b4c <HAL_DMA_Start_IT+0x64>
 8001b6a:	bf00      	nop

08001b6c <HAL_DMA_Abort>:
	 hdma->Instance->CCR &= ~(DMA_IT_TC | DMA_IT_HT | DMA_IT_TE);
 8001b6c:	6802      	ldr	r2, [r0, #0]
	hdma->DmaBaseAddress->IFCR = (DMA_FLAG_GL1 << hdma->ChannelIndex);
 8001b6e:	6c01      	ldr	r1, [r0, #64]	; 0x40
{
 8001b70:	4603      	mov	r3, r0
	 hdma->Instance->CCR &= ~(DMA_IT_TC | DMA_IT_HT | DMA_IT_TE);
 8001b72:	6810      	ldr	r0, [r2, #0]
{
 8001b74:	b470      	push	{r4, r5, r6}
	 hdma->Instance->CCR &= ~(DMA_IT_TC | DMA_IT_HT | DMA_IT_TE);
 8001b76:	f020 000e 	bic.w	r0, r0, #14
	hdma->DmaBaseAddress->IFCR = (DMA_FLAG_GL1 << hdma->ChannelIndex);
 8001b7a:	6bde      	ldr	r6, [r3, #60]	; 0x3c
	 hdma->Instance->CCR &= ~(DMA_IT_TC | DMA_IT_HT | DMA_IT_TE);
 8001b7c:	6010      	str	r0, [r2, #0]
	hdma->Instance->CCR &= ~DMA_CCR_EN;
 8001b7e:	6810      	ldr	r0, [r2, #0]
	hdma->DmaBaseAddress->IFCR = (DMA_FLAG_GL1 << hdma->ChannelIndex);
 8001b80:	2501      	movs	r5, #1
	__HAL_UNLOCK(hdma);
 8001b82:	2400      	movs	r4, #0
	hdma->DmaBaseAddress->IFCR = (DMA_FLAG_GL1 << hdma->ChannelIndex);
 8001b84:	fa05 f101 	lsl.w	r1, r5, r1
	hdma->Instance->CCR &= ~DMA_CCR_EN;
 8001b88:	f020 0001 	bic.w	r0, r0, #1
 8001b8c:	6010      	str	r0, [r2, #0]
	hdma->DmaBaseAddress->IFCR = (DMA_FLAG_GL1 << hdma->ChannelIndex);
 8001b8e:	6071      	str	r1, [r6, #4]
}
 8001b90:	4620      	mov	r0, r4
	hdma->State = HAL_DMA_STATE_READY; 
 8001b92:	f883 5021 	strb.w	r5, [r3, #33]	; 0x21
	__HAL_UNLOCK(hdma);
 8001b96:	f883 4020 	strb.w	r4, [r3, #32]
}
 8001b9a:	bc70      	pop	{r4, r5, r6}
 8001b9c:	4770      	bx	lr
 8001b9e:	bf00      	nop

08001ba0 <HAL_DMA_Abort_IT>:
  if(HAL_DMA_STATE_BUSY != hdma->State)
 8001ba0:	f890 2021 	ldrb.w	r2, [r0, #33]	; 0x21
 8001ba4:	2a02      	cmp	r2, #2
{  
 8001ba6:	b5f8      	push	{r3, r4, r5, r6, r7, lr}
  if(HAL_DMA_STATE_BUSY != hdma->State)
 8001ba8:	d003      	beq.n	8001bb2 <HAL_DMA_Abort_IT+0x12>
    hdma->ErrorCode = HAL_DMA_ERROR_NO_XFER;
 8001baa:	2204      	movs	r2, #4
 8001bac:	6382      	str	r2, [r0, #56]	; 0x38
    status = HAL_ERROR;
 8001bae:	2001      	movs	r0, #1
 8001bb0:	bdf8      	pop	{r3, r4, r5, r6, r7, pc}
    hdma->Instance->CCR &= ~(DMA_IT_TC | DMA_IT_HT | DMA_IT_TE);
 8001bb2:	6802      	ldr	r2, [r0, #0]
    hdma->DmaBaseAddress->IFCR = DMA_FLAG_GL1 << hdma->ChannelIndex;
 8001bb4:	6c01      	ldr	r1, [r0, #64]	; 0x40
    hdma->Instance->CCR &= ~(DMA_IT_TC | DMA_IT_HT | DMA_IT_TE);
 8001bb6:	6814      	ldr	r4, [r2, #0]
    hdma->DmaBaseAddress->IFCR = DMA_FLAG_GL1 << hdma->ChannelIndex;
 8001bb8:	6bc7      	ldr	r7, [r0, #60]	; 0x3c
    if(hdma->XferAbortCallback != NULL)
 8001bba:	6b46      	ldr	r6, [r0, #52]	; 0x34
    hdma->Instance->CCR &= ~(DMA_IT_TC | DMA_IT_HT | DMA_IT_TE);
 8001bbc:	f024 040e 	bic.w	r4, r4, #14
 8001bc0:	6014      	str	r4, [r2, #0]
    hdma->Instance->CCR &= ~DMA_CCR_EN;
 8001bc2:	6814      	ldr	r4, [r2, #0]
    hdma->DmaBaseAddress->IFCR = DMA_FLAG_GL1 << hdma->ChannelIndex;
 8001bc4:	2501      	movs	r5, #1
    hdma->Instance->CCR &= ~DMA_CCR_EN;
 8001bc6:	f024 0401 	bic.w	r4, r4, #1
 8001bca:	6014      	str	r4, [r2, #0]
    hdma->DmaBaseAddress->IFCR = DMA_FLAG_GL1 << hdma->ChannelIndex;
 8001bcc:	fa05 f101 	lsl.w	r1, r5, r1
    __HAL_UNLOCK(hdma);
 8001bd0:	2400      	movs	r4, #0
    hdma->DmaBaseAddress->IFCR = DMA_FLAG_GL1 << hdma->ChannelIndex;
 8001bd2:	6079      	str	r1, [r7, #4]
    hdma->State = HAL_DMA_STATE_READY;
 8001bd4:	f880 5021 	strb.w	r5, [r0, #33]	; 0x21
    __HAL_UNLOCK(hdma);
 8001bd8:	f880 4020 	strb.w	r4, [r0, #32]
    if(hdma->XferAbortCallback != NULL)
 8001bdc:	b116      	cbz	r6, 8001be4 <HAL_DMA_Abort_IT+0x44>
      hdma->XferAbortCallback(hdma);
 8001bde:	47b0      	blx	r6
  HAL_StatusTypeDef status = HAL_OK;
 8001be0:	4620      	mov	r0, r4
 8001be2:	bdf8      	pop	{r3, r4, r5, r6, r7, pc}
 8001be4:	4630      	mov	r0, r6
}
 8001be6:	bdf8      	pop	{r3, r4, r5, r6, r7, pc}

08001be8 <HAL_DMA_IRQHandler>:
{
 8001be8:	b4f0      	push	{r4, r5, r6, r7}
	uint32_t flag_it = hdma->DmaBaseAddress->ISR;
 8001bea:	6bc5      	ldr	r5, [r0, #60]	; 0x3c
  if ((RESET != (flag_it & (DMA_FLAG_HT1 << hdma->ChannelIndex))) && (RESET != (source_it & DMA_IT_HT)))
 8001bec:	6c02      	ldr	r2, [r0, #64]	; 0x40
	uint32_t flag_it = hdma->DmaBaseAddress->ISR;
 8001bee:	6829      	ldr	r1, [r5, #0]
  uint32_t source_it = hdma->Instance->CCR;
 8001bf0:	6804      	ldr	r4, [r0, #0]
  if ((RESET != (flag_it & (DMA_FLAG_HT1 << hdma->ChannelIndex))) && (RESET != (source_it & DMA_IT_HT)))
 8001bf2:	2304      	movs	r3, #4
 8001bf4:	4093      	lsls	r3, r2
 8001bf6:	4219      	tst	r1, r3
  uint32_t source_it = hdma->Instance->CCR;
 8001bf8:	6826      	ldr	r6, [r4, #0]
  if ((RESET != (flag_it & (DMA_FLAG_HT1 << hdma->ChannelIndex))) && (RESET != (source_it & DMA_IT_HT)))
 8001bfa:	d00d      	beq.n	8001c18 <HAL_DMA_IRQHandler+0x30>
 8001bfc:	0777      	lsls	r7, r6, #29
 8001bfe:	d50b      	bpl.n	8001c18 <HAL_DMA_IRQHandler+0x30>
  	if((hdma->Instance->CCR & DMA_CCR_CIRC) == 0U)
 8001c00:	6822      	ldr	r2, [r4, #0]
 8001c02:	0692      	lsls	r2, r2, #26
 8001c04:	d403      	bmi.n	8001c0e <HAL_DMA_IRQHandler+0x26>
  		hdma->Instance->CCR &= ~DMA_IT_HT;
 8001c06:	6822      	ldr	r2, [r4, #0]
 8001c08:	f022 0204 	bic.w	r2, r2, #4
 8001c0c:	6022      	str	r2, [r4, #0]
  	if(hdma->XferHalfCpltCallback != NULL)
 8001c0e:	6ac2      	ldr	r2, [r0, #44]	; 0x2c
  	hdma->DmaBaseAddress->IFCR = DMA_FLAG_HT1 << hdma->ChannelIndex;
 8001c10:	606b      	str	r3, [r5, #4]
  	if(hdma->XferHalfCpltCallback != NULL)
 8001c12:	b1c2      	cbz	r2, 8001c46 <HAL_DMA_IRQHandler+0x5e>
}  
 8001c14:	bcf0      	pop	{r4, r5, r6, r7}
  		hdma->XferCpltCallback(hdma);
 8001c16:	4710      	bx	r2
  else if ((RESET != (flag_it & (DMA_FLAG_TC1 << hdma->ChannelIndex))) && (RESET != (source_it & DMA_IT_TC)))
 8001c18:	2302      	movs	r3, #2
 8001c1a:	4093      	lsls	r3, r2
 8001c1c:	4219      	tst	r1, r3
 8001c1e:	d014      	beq.n	8001c4a <HAL_DMA_IRQHandler+0x62>
 8001c20:	07b7      	lsls	r7, r6, #30
 8001c22:	d512      	bpl.n	8001c4a <HAL_DMA_IRQHandler+0x62>
  	if((hdma->Instance->CCR & DMA_CCR_CIRC) == 0U)
 8001c24:	6822      	ldr	r2, [r4, #0]
 8001c26:	0692      	lsls	r2, r2, #26
 8001c28:	d406      	bmi.n	8001c38 <HAL_DMA_IRQHandler+0x50>
  		hdma->Instance->CCR &= ~(DMA_IT_TC | DMA_IT_TE);
 8001c2a:	6822      	ldr	r2, [r4, #0]
  		hdma->State = HAL_DMA_STATE_READY;
 8001c2c:	2101      	movs	r1, #1
  		hdma->Instance->CCR &= ~(DMA_IT_TC | DMA_IT_TE);
 8001c2e:	f022 020a 	bic.w	r2, r2, #10
 8001c32:	6022      	str	r2, [r4, #0]
  		hdma->State = HAL_DMA_STATE_READY;
 8001c34:	f880 1021 	strb.w	r1, [r0, #33]	; 0x21
  	if(hdma->XferCpltCallback != NULL)
 8001c38:	6a82      	ldr	r2, [r0, #40]	; 0x28
  	hdma->DmaBaseAddress->IFCR = DMA_FLAG_TC1 << hdma->ChannelIndex;
 8001c3a:	606b      	str	r3, [r5, #4]
  	__HAL_UNLOCK(hdma);
 8001c3c:	2300      	movs	r3, #0
 8001c3e:	f880 3020 	strb.w	r3, [r0, #32]
  	if(hdma->XferCpltCallback != NULL)
 8001c42:	2a00      	cmp	r2, #0
 8001c44:	d1e6      	bne.n	8001c14 <HAL_DMA_IRQHandler+0x2c>
}  
 8001c46:	bcf0      	pop	{r4, r5, r6, r7}
 8001c48:	4770      	bx	lr
  else if (( RESET != (flag_it & (DMA_FLAG_TE1 << hdma->ChannelIndex))) && (RESET != (source_it & DMA_IT_TE)))
 8001c4a:	2308      	movs	r3, #8
 8001c4c:	4093      	lsls	r3, r2
 8001c4e:	420b      	tst	r3, r1
 8001c50:	d0f9      	beq.n	8001c46 <HAL_DMA_IRQHandler+0x5e>
 8001c52:	0733      	lsls	r3, r6, #28
 8001c54:	d5f7      	bpl.n	8001c46 <HAL_DMA_IRQHandler+0x5e>
    hdma->Instance->CCR &= ~(DMA_IT_TC | DMA_IT_HT | DMA_IT_TE);
 8001c56:	6821      	ldr	r1, [r4, #0]
    if(hdma->XferErrorCallback != NULL)
 8001c58:	6b06      	ldr	r6, [r0, #48]	; 0x30
    hdma->DmaBaseAddress->IFCR = DMA_FLAG_GL1 << hdma->ChannelIndex;
 8001c5a:	2301      	movs	r3, #1
    hdma->Instance->CCR &= ~(DMA_IT_TC | DMA_IT_HT | DMA_IT_TE);
 8001c5c:	f021 010e 	bic.w	r1, r1, #14
    hdma->DmaBaseAddress->IFCR = DMA_FLAG_GL1 << hdma->ChannelIndex;
 8001c60:	fa03 f202 	lsl.w	r2, r3, r2
    __HAL_UNLOCK(hdma); 
 8001c64:	2700      	movs	r7, #0
    hdma->Instance->CCR &= ~(DMA_IT_TC | DMA_IT_HT | DMA_IT_TE);
 8001c66:	6021      	str	r1, [r4, #0]
    hdma->DmaBaseAddress->IFCR = DMA_FLAG_GL1 << hdma->ChannelIndex;
 8001c68:	606a      	str	r2, [r5, #4]
    hdma->ErrorCode = HAL_DMA_ERROR_TE;
 8001c6a:	6383      	str	r3, [r0, #56]	; 0x38
    hdma->State = HAL_DMA_STATE_READY;    
 8001c6c:	f880 3021 	strb.w	r3, [r0, #33]	; 0x21
    __HAL_UNLOCK(hdma); 
 8001c70:	f880 7020 	strb.w	r7, [r0, #32]
    if(hdma->XferErrorCallback != NULL)
 8001c74:	2e00      	cmp	r6, #0
 8001c76:	d0e6      	beq.n	8001c46 <HAL_DMA_IRQHandler+0x5e>
    	hdma->XferErrorCallback(hdma);
 8001c78:	4633      	mov	r3, r6
}  
 8001c7a:	bcf0      	pop	{r4, r5, r6, r7}
    	hdma->XferErrorCallback(hdma);
 8001c7c:	4718      	bx	r3
 8001c7e:	bf00      	nop

08001c80 <HAL_GPIO_Init>:
  * @param  GPIO_Init pointer to a GPIO_InitTypeDef structure that contains
  *         the configuration information for the specified GPIO peripheral.
  * @retval None
  */
void HAL_GPIO_Init(GPIO_TypeDef  *GPIOx, GPIO_InitTypeDef *GPIO_Init)
{
 8001c80:	468c      	mov	ip, r1
  assert_param(IS_GPIO_PIN(GPIO_Init->Pin));
  assert_param(IS_GPIO_MODE(GPIO_Init->Mode));
  assert_param(IS_GPIO_PULL(GPIO_Init->Pull));

  /* Configure the port pins */
  while (((GPIO_Init->Pin) >> position) != RESET)
 8001c82:	6809      	ldr	r1, [r1, #0]
 8001c84:	2900      	cmp	r1, #0
 8001c86:	f000 80d9 	beq.w	8001e3c <HAL_GPIO_Init+0x1bc>
{
 8001c8a:	e92d 4ff0 	stmdb	sp!, {r4, r5, r6, r7, r8, r9, sl, fp, lr}
        temp &= ~((0x0FU) << (4U * (position & 0x03U)));
        temp |= (GPIO_GET_INDEX(GPIOx) << (4U * (position & 0x03U)));
        SYSCFG->EXTICR[position >> 2] = temp;

        /* Clear EXTI line configuration */
        temp = EXTI->IMR;
 8001c8e:	f8df e1c0 	ldr.w	lr, [pc, #448]	; 8001e50 <HAL_GPIO_Init+0x1d0>
{
 8001c92:	b083      	sub	sp, #12
  while (((GPIO_Init->Pin) >> position) != RESET)
 8001c94:	2500      	movs	r5, #0
    iocurrent = (GPIO_Init->Pin) & (1U << position);
 8001c96:	f04f 0801 	mov.w	r8, #1
 8001c9a:	e079      	b.n	8001d90 <HAL_GPIO_Init+0x110>
 8001c9c:	ea4f 0945 	mov.w	r9, r5, lsl #1
      temp &= ~(GPIO_MODER_MODER0 << (position * 2U));
 8001ca0:	2303      	movs	r3, #3
      temp = GPIOx->MODER;
 8001ca2:	f8d0 b000 	ldr.w	fp, [r0]
      temp &= ~(GPIO_MODER_MODER0 << (position * 2U));
 8001ca6:	fa03 f309 	lsl.w	r3, r3, r9
 8001caa:	43db      	mvns	r3, r3
      temp |= ((GPIO_Init->Mode & GPIO_MODE) << (position * 2U));
 8001cac:	f004 0603 	and.w	r6, r4, #3
      temp &= ~(GPIO_MODER_MODER0 << (position * 2U));
 8001cb0:	ea0b 0b03 	and.w	fp, fp, r3
      temp |= ((GPIO_Init->Mode & GPIO_MODE) << (position * 2U));
 8001cb4:	fa06 f609 	lsl.w	r6, r6, r9
      if((GPIO_Init->Mode == GPIO_MODE_OUTPUT_PP) || (GPIO_Init->Mode == GPIO_MODE_AF_PP) ||
 8001cb8:	f10a 3aff 	add.w	sl, sl, #4294967295
      temp |= ((GPIO_Init->Mode & GPIO_MODE) << (position * 2U));
 8001cbc:	ea46 060b 	orr.w	r6, r6, fp
      if((GPIO_Init->Mode == GPIO_MODE_OUTPUT_PP) || (GPIO_Init->Mode == GPIO_MODE_AF_PP) ||
 8001cc0:	f1ba 0f01 	cmp.w	sl, #1
      GPIOx->MODER = temp;
 8001cc4:	6006      	str	r6, [r0, #0]
      if((GPIO_Init->Mode == GPIO_MODE_OUTPUT_PP) || (GPIO_Init->Mode == GPIO_MODE_AF_PP) ||
 8001cc6:	f240 8098 	bls.w	8001dfa <HAL_GPIO_Init+0x17a>
      temp = GPIOx->PUPDR;
 8001cca:	68c6      	ldr	r6, [r0, #12]
      temp |= ((GPIO_Init->Pull) << (position * 2U));
 8001ccc:	f8dc 2008 	ldr.w	r2, [ip, #8]
      temp &= ~(GPIO_PUPDR_PUPDR0 << (position * 2U));
 8001cd0:	4033      	ands	r3, r6
      temp |= ((GPIO_Init->Pull) << (position * 2U));
 8001cd2:	fa02 f209 	lsl.w	r2, r2, r9
 8001cd6:	431a      	orrs	r2, r3
      if((GPIO_Init->Mode & EXTI_MODE) == EXTI_MODE)
 8001cd8:	00e3      	lsls	r3, r4, #3
      GPIOx->PUPDR = temp;
 8001cda:	60c2      	str	r2, [r0, #12]
      if((GPIO_Init->Mode & EXTI_MODE) == EXTI_MODE)
 8001cdc:	d554      	bpl.n	8001d88 <HAL_GPIO_Init+0x108>
        __HAL_RCC_SYSCFG_CLK_ENABLE();
 8001cde:	4b58      	ldr	r3, [pc, #352]	; (8001e40 <HAL_GPIO_Init+0x1c0>)
 8001ce0:	4a57      	ldr	r2, [pc, #348]	; (8001e40 <HAL_GPIO_Init+0x1c0>)
 8001ce2:	699b      	ldr	r3, [r3, #24]
 8001ce4:	f043 0301 	orr.w	r3, r3, #1
 8001ce8:	6193      	str	r3, [r2, #24]
 8001cea:	6993      	ldr	r3, [r2, #24]
 8001cec:	f025 0603 	bic.w	r6, r5, #3
 8001cf0:	f106 4680 	add.w	r6, r6, #1073741824	; 0x40000000
 8001cf4:	f003 0301 	and.w	r3, r3, #1
 8001cf8:	f506 3680 	add.w	r6, r6, #65536	; 0x10000
 8001cfc:	9301      	str	r3, [sp, #4]
        temp &= ~((0x0FU) << (4U * (position & 0x03U)));
 8001cfe:	f005 0303 	and.w	r3, r5, #3
        __HAL_RCC_SYSCFG_CLK_ENABLE();
 8001d02:	9a01      	ldr	r2, [sp, #4]
        temp = SYSCFG->EXTICR[position >> 2];
 8001d04:	68b2      	ldr	r2, [r6, #8]
        temp &= ~((0x0FU) << (4U * (position & 0x03U)));
 8001d06:	009b      	lsls	r3, r3, #2
 8001d08:	f04f 090f 	mov.w	r9, #15
 8001d0c:	fa09 f903 	lsl.w	r9, r9, r3
        temp |= (GPIO_GET_INDEX(GPIOx) << (4U * (position & 0x03U)));
 8001d10:	f1b0 4f90 	cmp.w	r0, #1207959552	; 0x48000000
        temp &= ~((0x0FU) << (4U * (position & 0x03U)));
 8001d14:	ea22 0a09 	bic.w	sl, r2, r9
        temp |= (GPIO_GET_INDEX(GPIOx) << (4U * (position & 0x03U)));
 8001d18:	f000 8086 	beq.w	8001e28 <HAL_GPIO_Init+0x1a8>
 8001d1c:	4a49      	ldr	r2, [pc, #292]	; (8001e44 <HAL_GPIO_Init+0x1c4>)
 8001d1e:	4290      	cmp	r0, r2
 8001d20:	f000 8084 	beq.w	8001e2c <HAL_GPIO_Init+0x1ac>
 8001d24:	4a48      	ldr	r2, [pc, #288]	; (8001e48 <HAL_GPIO_Init+0x1c8>)
 8001d26:	4290      	cmp	r0, r2
 8001d28:	f000 8083 	beq.w	8001e32 <HAL_GPIO_Init+0x1b2>
 8001d2c:	4a47      	ldr	r2, [pc, #284]	; (8001e4c <HAL_GPIO_Init+0x1cc>)
 8001d2e:	4290      	cmp	r0, r2
 8001d30:	bf0b      	itete	eq
 8001d32:	f04f 0903 	moveq.w	r9, #3
 8001d36:	2205      	movne	r2, #5
 8001d38:	fa09 f303 	lsleq.w	r3, r9, r3
 8001d3c:	fa02 f303 	lslne.w	r3, r2, r3
 8001d40:	ea43 030a 	orr.w	r3, r3, sl
        SYSCFG->EXTICR[position >> 2] = temp;
 8001d44:	60b3      	str	r3, [r6, #8]
        temp = EXTI->IMR;
 8001d46:	f8de 3000 	ldr.w	r3, [lr]
        temp &= ~((uint32_t)iocurrent);
 8001d4a:	43fa      	mvns	r2, r7
        if((GPIO_Init->Mode & GPIO_MODE_IT) == GPIO_MODE_IT)
 8001d4c:	03e6      	lsls	r6, r4, #15
        temp &= ~((uint32_t)iocurrent);
 8001d4e:	bf54      	ite	pl
 8001d50:	4013      	andpl	r3, r2
        {
          temp |= iocurrent;
 8001d52:	433b      	orrmi	r3, r7
        }
        EXTI->IMR = temp;
 8001d54:	f8ce 3000 	str.w	r3, [lr]

        temp = EXTI->EMR;
 8001d58:	f8de 3004 	ldr.w	r3, [lr, #4]
        temp &= ~((uint32_t)iocurrent);
        if((GPIO_Init->Mode & GPIO_MODE_EVT) == GPIO_MODE_EVT)
 8001d5c:	03a6      	lsls	r6, r4, #14
        temp &= ~((uint32_t)iocurrent);
 8001d5e:	bf54      	ite	pl
 8001d60:	4013      	andpl	r3, r2
        {
          temp |= iocurrent;
 8001d62:	433b      	orrmi	r3, r7
        }
        EXTI->EMR = temp;
 8001d64:	f8ce 3004 	str.w	r3, [lr, #4]

        /* Clear Rising Falling edge configuration */
        temp = EXTI->RTSR;
 8001d68:	f8de 3008 	ldr.w	r3, [lr, #8]
        temp &= ~((uint32_t)iocurrent);
        if((GPIO_Init->Mode & RISING_EDGE) == RISING_EDGE)
 8001d6c:	02e6      	lsls	r6, r4, #11
        temp &= ~((uint32_t)iocurrent);
 8001d6e:	bf54      	ite	pl
 8001d70:	4013      	andpl	r3, r2
        {
          temp |= iocurrent;
 8001d72:	433b      	orrmi	r3, r7
        }
        EXTI->RTSR = temp;
 8001d74:	f8ce 3008 	str.w	r3, [lr, #8]

        temp = EXTI->FTSR;
 8001d78:	f8de 300c 	ldr.w	r3, [lr, #12]
        temp &= ~((uint32_t)iocurrent);
        if((GPIO_Init->Mode & FALLING_EDGE) == FALLING_EDGE)
 8001d7c:	02a4      	lsls	r4, r4, #10
        temp &= ~((uint32_t)iocurrent);
 8001d7e:	bf54      	ite	pl
 8001d80:	4013      	andpl	r3, r2
        {
          temp |= iocurrent;
 8001d82:	433b      	orrmi	r3, r7
        }
        EXTI->FTSR = temp;
 8001d84:	f8ce 300c 	str.w	r3, [lr, #12]
      }
    }
    
    position++;
 8001d88:	3501      	adds	r5, #1
  while (((GPIO_Init->Pin) >> position) != RESET)
 8001d8a:	fa31 f305 	lsrs.w	r3, r1, r5
 8001d8e:	d048      	beq.n	8001e22 <HAL_GPIO_Init+0x1a2>
    iocurrent = (GPIO_Init->Pin) & (1U << position);
 8001d90:	fa08 f205 	lsl.w	r2, r8, r5
    if(iocurrent)
 8001d94:	ea12 0701 	ands.w	r7, r2, r1
 8001d98:	d0f6      	beq.n	8001d88 <HAL_GPIO_Init+0x108>
      if((GPIO_Init->Mode == GPIO_MODE_AF_PP) || (GPIO_Init->Mode == GPIO_MODE_AF_OD))
 8001d9a:	f8dc 4004 	ldr.w	r4, [ip, #4]
 8001d9e:	f024 0a10 	bic.w	sl, r4, #16
 8001da2:	f1ba 0f02 	cmp.w	sl, #2
 8001da6:	f47f af79 	bne.w	8001c9c <HAL_GPIO_Init+0x1c>
        temp = GPIOx->AFR[position >> 3];
 8001daa:	ea4f 09d5 	mov.w	r9, r5, lsr #3
 8001dae:	eb00 0989 	add.w	r9, r0, r9, lsl #2
        temp &= ~(0xFU << ((uint32_t)(position & 0x07U) * 4U)) ;
 8001db2:	f005 0307 	and.w	r3, r5, #7
        temp = GPIOx->AFR[position >> 3];
 8001db6:	f8d9 6020 	ldr.w	r6, [r9, #32]
        temp &= ~(0xFU << ((uint32_t)(position & 0x07U) * 4U)) ;
 8001dba:	009b      	lsls	r3, r3, #2
 8001dbc:	f04f 0a0f 	mov.w	sl, #15
 8001dc0:	fa0a fb03 	lsl.w	fp, sl, r3
 8001dc4:	ea26 0a0b 	bic.w	sl, r6, fp
        temp |= ((uint32_t)(GPIO_Init->Alternate) << (((uint32_t)position & 0x07U) * 4U));
 8001dc8:	f8dc 6010 	ldr.w	r6, [ip, #16]
 8001dcc:	fa06 f303 	lsl.w	r3, r6, r3
 8001dd0:	ea43 030a 	orr.w	r3, r3, sl
        GPIOx->AFR[position >> 3] = temp;
 8001dd4:	f8c9 3020 	str.w	r3, [r9, #32]
 8001dd8:	ea4f 0945 	mov.w	r9, r5, lsl #1
      temp &= ~(GPIO_MODER_MODER0 << (position * 2U));
 8001ddc:	2303      	movs	r3, #3
      temp = GPIOx->MODER;
 8001dde:	f8d0 a000 	ldr.w	sl, [r0]
      temp &= ~(GPIO_MODER_MODER0 << (position * 2U));
 8001de2:	fa03 f309 	lsl.w	r3, r3, r9
 8001de6:	43db      	mvns	r3, r3
      temp |= ((GPIO_Init->Mode & GPIO_MODE) << (position * 2U));
 8001de8:	f004 0603 	and.w	r6, r4, #3
      temp &= ~(GPIO_MODER_MODER0 << (position * 2U));
 8001dec:	ea03 0a0a 	and.w	sl, r3, sl
      temp |= ((GPIO_Init->Mode & GPIO_MODE) << (position * 2U));
 8001df0:	fa06 f609 	lsl.w	r6, r6, r9
 8001df4:	ea46 060a 	orr.w	r6, r6, sl
      GPIOx->MODER = temp;
 8001df8:	6006      	str	r6, [r0, #0]
        temp = GPIOx->OSPEEDR;
 8001dfa:	6886      	ldr	r6, [r0, #8]
        temp &= ~(GPIO_OSPEEDER_OSPEEDR0 << (position * 2U));
 8001dfc:	ea06 0a03 	and.w	sl, r6, r3
        temp |= (GPIO_Init->Speed << (position * 2U));
 8001e00:	f8dc 600c 	ldr.w	r6, [ip, #12]
 8001e04:	fa06 f609 	lsl.w	r6, r6, r9
 8001e08:	ea46 060a 	orr.w	r6, r6, sl
        GPIOx->OSPEEDR = temp;
 8001e0c:	6086      	str	r6, [r0, #8]
        temp = GPIOx->OTYPER;
 8001e0e:	f8d0 a004 	ldr.w	sl, [r0, #4]
        temp |= (((GPIO_Init->Mode & GPIO_OUTPUT_TYPE) >> 4U) << position);
 8001e12:	f3c4 1600 	ubfx	r6, r4, #4, #1
        temp &= ~(GPIO_OTYPER_OT_0 << position) ;
 8001e16:	ea2a 0202 	bic.w	r2, sl, r2
        temp |= (((GPIO_Init->Mode & GPIO_OUTPUT_TYPE) >> 4U) << position);
 8001e1a:	40ae      	lsls	r6, r5
 8001e1c:	4316      	orrs	r6, r2
        GPIOx->OTYPER = temp;
 8001e1e:	6046      	str	r6, [r0, #4]
 8001e20:	e753      	b.n	8001cca <HAL_GPIO_Init+0x4a>
  }
}
 8001e22:	b003      	add	sp, #12
 8001e24:	e8bd 8ff0 	ldmia.w	sp!, {r4, r5, r6, r7, r8, r9, sl, fp, pc}
 8001e28:	2300      	movs	r3, #0
 8001e2a:	e789      	b.n	8001d40 <HAL_GPIO_Init+0xc0>
 8001e2c:	fa08 f303 	lsl.w	r3, r8, r3
 8001e30:	e786      	b.n	8001d40 <HAL_GPIO_Init+0xc0>
 8001e32:	f04f 0902 	mov.w	r9, #2
 8001e36:	fa09 f303 	lsl.w	r3, r9, r3
 8001e3a:	e781      	b.n	8001d40 <HAL_GPIO_Init+0xc0>
 8001e3c:	4770      	bx	lr
 8001e3e:	bf00      	nop
 8001e40:	40021000 	.word	0x40021000
 8001e44:	48000400 	.word	0x48000400
 8001e48:	48000800 	.word	0x48000800
 8001e4c:	48000c00 	.word	0x48000c00
 8001e50:	40010400 	.word	0x40010400

08001e54 <HAL_GPIO_WritePin>:
{
  /* Check the parameters */
  assert_param(IS_GPIO_PIN(GPIO_Pin));
  assert_param(IS_GPIO_PIN_ACTION(PinState));

  if(PinState != GPIO_PIN_RESET)
 8001e54:	b90a      	cbnz	r2, 8001e5a <HAL_GPIO_WritePin+0x6>
  {
    GPIOx->BSRR = (uint32_t)GPIO_Pin;
  }
  else
  {
    GPIOx->BRR = (uint32_t)GPIO_Pin;
 8001e56:	6281      	str	r1, [r0, #40]	; 0x28
 8001e58:	4770      	bx	lr
    GPIOx->BSRR = (uint32_t)GPIO_Pin;
 8001e5a:	6181      	str	r1, [r0, #24]
 8001e5c:	4770      	bx	lr
 8001e5e:	bf00      	nop

08001e60 <HAL_GPIO_EXTI_Callback>:
  * @brief  EXTI line detection callback.
  * @param  GPIO_Pin Specifies the port pin connected to corresponding EXTI line.
  * @retval None
  */
__weak void HAL_GPIO_EXTI_Callback(uint16_t GPIO_Pin)
{
 8001e60:	4770      	bx	lr
 8001e62:	bf00      	nop

08001e64 <HAL_GPIO_EXTI_IRQHandler>:
  if(__HAL_GPIO_EXTI_GET_IT(GPIO_Pin) != RESET)
 8001e64:	4a04      	ldr	r2, [pc, #16]	; (8001e78 <HAL_GPIO_EXTI_IRQHandler+0x14>)
 8001e66:	6951      	ldr	r1, [r2, #20]
 8001e68:	4201      	tst	r1, r0
 8001e6a:	d100      	bne.n	8001e6e <HAL_GPIO_EXTI_IRQHandler+0xa>
 8001e6c:	4770      	bx	lr
{
 8001e6e:	b508      	push	{r3, lr}
    __HAL_GPIO_EXTI_CLEAR_IT(GPIO_Pin);
 8001e70:	6150      	str	r0, [r2, #20]
    HAL_GPIO_EXTI_Callback(GPIO_Pin);
 8001e72:	f7ff fff5 	bl	8001e60 <HAL_GPIO_EXTI_Callback>
 8001e76:	bd08      	pop	{r3, pc}
 8001e78:	40010400 	.word	0x40010400

08001e7c <HAL_RCC_OscConfig>:
  *         supported by this macro. User should request a transition to HSE Off
  *         first and then HSE On or HSE Bypass.
  * @retval HAL status
  */
HAL_StatusTypeDef HAL_RCC_OscConfig(RCC_OscInitTypeDef  *RCC_OscInitStruct)
{
 8001e7c:	e92d 43f0 	stmdb	sp!, {r4, r5, r6, r7, r8, r9, lr}
  /* Check the parameters */
  assert_param(RCC_OscInitStruct != NULL);
  assert_param(IS_RCC_OSCILLATORTYPE(RCC_OscInitStruct->OscillatorType));

  /*------------------------------- HSE Configuration ------------------------*/ 
  if(((RCC_OscInitStruct->OscillatorType) & RCC_OSCILLATORTYPE_HSE) == RCC_OSCILLATORTYPE_HSE)
 8001e80:	6803      	ldr	r3, [r0, #0]
 8001e82:	07d9      	lsls	r1, r3, #31
{
 8001e84:	b083      	sub	sp, #12
 8001e86:	4604      	mov	r4, r0
  if(((RCC_OscInitStruct->OscillatorType) & RCC_OSCILLATORTYPE_HSE) == RCC_OSCILLATORTYPE_HSE)
 8001e88:	d543      	bpl.n	8001f12 <HAL_RCC_OscConfig+0x96>
  {
    /* Check the parameters */
    assert_param(IS_RCC_HSE(RCC_OscInitStruct->HSEState));

    /* When the HSE is used as system clock or clock source for PLL in these cases it is not allowed to be disabled */
    if((__HAL_RCC_GET_SYSCLK_SOURCE() == RCC_SYSCLKSOURCE_STATUS_HSE) 
 8001e8a:	49c0      	ldr	r1, [pc, #768]	; (800218c <HAL_RCC_OscConfig+0x310>)
 8001e8c:	684a      	ldr	r2, [r1, #4]
 8001e8e:	f002 020c 	and.w	r2, r2, #12
 8001e92:	2a04      	cmp	r2, #4
 8001e94:	f000 8184 	beq.w	80021a0 <HAL_RCC_OscConfig+0x324>
       || ((__HAL_RCC_GET_SYSCLK_SOURCE() == RCC_SYSCLKSOURCE_STATUS_PLLCLK) && (__HAL_RCC_GET_PLL_OSCSOURCE() == RCC_PLLSOURCE_HSE)))
 8001e98:	684a      	ldr	r2, [r1, #4]
 8001e9a:	f002 020c 	and.w	r2, r2, #12
 8001e9e:	2a08      	cmp	r2, #8
 8001ea0:	f000 817a 	beq.w	8002198 <HAL_RCC_OscConfig+0x31c>
      }
    }
    else
    {
      /* Set the new HSE configuration ---------------------------------------*/
      __HAL_RCC_HSE_CONFIG(RCC_OscInitStruct->HSEState);
 8001ea4:	6863      	ldr	r3, [r4, #4]
 8001ea6:	f5b3 3f80 	cmp.w	r3, #65536	; 0x10000
 8001eaa:	f000 823d 	beq.w	8002328 <HAL_RCC_OscConfig+0x4ac>
 8001eae:	2b00      	cmp	r3, #0
 8001eb0:	f000 81a1 	beq.w	80021f6 <HAL_RCC_OscConfig+0x37a>
 8001eb4:	f5b3 2fa0 	cmp.w	r3, #327680	; 0x50000
 8001eb8:	f000 8297 	beq.w	80023ea <HAL_RCC_OscConfig+0x56e>
 8001ebc:	4bb3      	ldr	r3, [pc, #716]	; (800218c <HAL_RCC_OscConfig+0x310>)
 8001ebe:	681a      	ldr	r2, [r3, #0]
 8001ec0:	f422 3280 	bic.w	r2, r2, #65536	; 0x10000
 8001ec4:	601a      	str	r2, [r3, #0]
 8001ec6:	681a      	ldr	r2, [r3, #0]
 8001ec8:	f422 2280 	bic.w	r2, r2, #262144	; 0x40000
 8001ecc:	601a      	str	r2, [r3, #0]
      
#if defined(RCC_CFGR_PLLSRC_HSI_DIV2)
      /* Configure the HSE predivision factor --------------------------------*/
      __HAL_RCC_HSE_PREDIV_CONFIG(RCC_OscInitStruct->HSEPredivValue);
 8001ece:	4daf      	ldr	r5, [pc, #700]	; (800218c <HAL_RCC_OscConfig+0x310>)
 8001ed0:	68a2      	ldr	r2, [r4, #8]
 8001ed2:	6aeb      	ldr	r3, [r5, #44]	; 0x2c
 8001ed4:	f023 030f 	bic.w	r3, r3, #15
 8001ed8:	4313      	orrs	r3, r2
 8001eda:	62eb      	str	r3, [r5, #44]	; 0x2c

       /* Check the HSE State */
      if(RCC_OscInitStruct->HSEState != RCC_HSE_OFF)
      {
        /* Get Start Tick */
        tickstart = HAL_GetTick();
 8001edc:	f7ff f834 	bl	8000f48 <HAL_GetTick>
__attribute__((always_inline)) __STATIC_INLINE uint32_t __RBIT(uint32_t value)
{
  uint32_t result;

#if       (__CORTEX_M >= 0x03U) || (__CORTEX_SC >= 300U)
   __ASM volatile ("rbit %0, %1" : "=r" (result) : "r" (value) );
 8001ee0:	f44f 3800 	mov.w	r8, #131072	; 0x20000
 8001ee4:	4607      	mov	r7, r0
        
        /* Wait till HSE is ready */
        while(__HAL_RCC_GET_FLAG(RCC_FLAG_HSERDY) == RESET)
 8001ee6:	2601      	movs	r6, #1
 8001ee8:	e005      	b.n	8001ef6 <HAL_RCC_OscConfig+0x7a>
        {
          if((HAL_GetTick() - tickstart ) > HSE_TIMEOUT_VALUE)
 8001eea:	f7ff f82d 	bl	8000f48 <HAL_GetTick>
 8001eee:	1bc0      	subs	r0, r0, r7
 8001ef0:	2864      	cmp	r0, #100	; 0x64
 8001ef2:	f200 81b9 	bhi.w	8002268 <HAL_RCC_OscConfig+0x3ec>
 8001ef6:	fa98 f3a8 	rbit	r3, r8
        while(__HAL_RCC_GET_FLAG(RCC_FLAG_HSERDY) == RESET)
 8001efa:	682a      	ldr	r2, [r5, #0]
 8001efc:	fa98 f3a8 	rbit	r3, r8
 8001f00:	fab3 f383 	clz	r3, r3
 8001f04:	f003 031f 	and.w	r3, r3, #31
 8001f08:	fa06 f303 	lsl.w	r3, r6, r3
 8001f0c:	4213      	tst	r3, r2
 8001f0e:	d0ec      	beq.n	8001eea <HAL_RCC_OscConfig+0x6e>
 8001f10:	6823      	ldr	r3, [r4, #0]
        }
      }
    }
  }
  /*----------------------------- HSI Configuration --------------------------*/ 
  if(((RCC_OscInitStruct->OscillatorType) & RCC_OSCILLATORTYPE_HSI) == RCC_OSCILLATORTYPE_HSI)
 8001f12:	079f      	lsls	r7, r3, #30
 8001f14:	d542      	bpl.n	8001f9c <HAL_RCC_OscConfig+0x120>
    /* Check the parameters */
    assert_param(IS_RCC_HSI(RCC_OscInitStruct->HSIState));
    assert_param(IS_RCC_CALIBRATION_VALUE(RCC_OscInitStruct->HSICalibrationValue));
    
    /* Check if HSI is used as system clock or as PLL source when PLL is selected as system clock */ 
    if((__HAL_RCC_GET_SYSCLK_SOURCE() == RCC_SYSCLKSOURCE_STATUS_HSI) 
 8001f16:	4a9d      	ldr	r2, [pc, #628]	; (800218c <HAL_RCC_OscConfig+0x310>)
 8001f18:	6851      	ldr	r1, [r2, #4]
 8001f1a:	f011 0f0c 	tst.w	r1, #12
 8001f1e:	f000 80f7 	beq.w	8002110 <HAL_RCC_OscConfig+0x294>
       || ((__HAL_RCC_GET_SYSCLK_SOURCE() == RCC_SYSCLKSOURCE_STATUS_PLLCLK) && (__HAL_RCC_GET_PLL_OSCSOURCE() == RCC_PLLSOURCE_HSI)))
 8001f22:	6851      	ldr	r1, [r2, #4]
 8001f24:	f001 010c 	and.w	r1, r1, #12
 8001f28:	2908      	cmp	r1, #8
 8001f2a:	f000 80ed 	beq.w	8002108 <HAL_RCC_OscConfig+0x28c>
      }
    }
    else
    {
      /* Check the HSI State */
      if(RCC_OscInitStruct->HSIState != RCC_HSI_OFF)
 8001f2e:	6922      	ldr	r2, [r4, #16]
 8001f30:	2a00      	cmp	r2, #0
 8001f32:	f000 81d3 	beq.w	80022dc <HAL_RCC_OscConfig+0x460>
 8001f36:	2201      	movs	r2, #1
 8001f38:	fa92 f3a2 	rbit	r3, r2
      {
       /* Enable the Internal High Speed oscillator (HSI). */
        __HAL_RCC_HSI_ENABLE();
 8001f3c:	fab3 f383 	clz	r3, r3
 8001f40:	f103 5384 	add.w	r3, r3, #276824064	; 0x10800000
 8001f44:	f503 1384 	add.w	r3, r3, #1081344	; 0x108000
 8001f48:	009b      	lsls	r3, r3, #2
        
        /* Get Start Tick */
        tickstart = HAL_GetTick();
        
        /* Wait till HSI is ready */
        while(__HAL_RCC_GET_FLAG(RCC_FLAG_HSIRDY) == RESET)
 8001f4a:	4616      	mov	r6, r2
        __HAL_RCC_HSI_ENABLE();
 8001f4c:	601a      	str	r2, [r3, #0]
        tickstart = HAL_GetTick();
 8001f4e:	f7fe fffb 	bl	8000f48 <HAL_GetTick>
 8001f52:	f04f 0802 	mov.w	r8, #2
 8001f56:	4607      	mov	r7, r0
        while(__HAL_RCC_GET_FLAG(RCC_FLAG_HSIRDY) == RESET)
 8001f58:	4d8c      	ldr	r5, [pc, #560]	; (800218c <HAL_RCC_OscConfig+0x310>)
 8001f5a:	e005      	b.n	8001f68 <HAL_RCC_OscConfig+0xec>
        {
          if((HAL_GetTick() - tickstart ) > HSI_TIMEOUT_VALUE)
 8001f5c:	f7fe fff4 	bl	8000f48 <HAL_GetTick>
 8001f60:	1bc0      	subs	r0, r0, r7
 8001f62:	2802      	cmp	r0, #2
 8001f64:	f200 8180 	bhi.w	8002268 <HAL_RCC_OscConfig+0x3ec>
 8001f68:	fa98 f3a8 	rbit	r3, r8
        while(__HAL_RCC_GET_FLAG(RCC_FLAG_HSIRDY) == RESET)
 8001f6c:	682a      	ldr	r2, [r5, #0]
 8001f6e:	fa98 f3a8 	rbit	r3, r8
 8001f72:	fab3 f383 	clz	r3, r3
 8001f76:	f003 031f 	and.w	r3, r3, #31
 8001f7a:	fa06 f303 	lsl.w	r3, r6, r3
 8001f7e:	4213      	tst	r3, r2
 8001f80:	d0ec      	beq.n	8001f5c <HAL_RCC_OscConfig+0xe0>
            return HAL_TIMEOUT;
          }
        }
                
        /* Adjusts the Internal High Speed oscillator (HSI) calibration value.*/
        __HAL_RCC_HSI_CALIBRATIONVALUE_ADJUST(RCC_OscInitStruct->HSICalibrationValue);
 8001f82:	6829      	ldr	r1, [r5, #0]
 8001f84:	22f8      	movs	r2, #248	; 0xf8
 8001f86:	fa92 f2a2 	rbit	r2, r2
 8001f8a:	6963      	ldr	r3, [r4, #20]
 8001f8c:	fab2 f282 	clz	r2, r2
 8001f90:	f021 01f8 	bic.w	r1, r1, #248	; 0xf8
 8001f94:	4093      	lsls	r3, r2
 8001f96:	430b      	orrs	r3, r1
 8001f98:	602b      	str	r3, [r5, #0]
 8001f9a:	6823      	ldr	r3, [r4, #0]
        }
      }
    }
  }
  /*------------------------------ LSI Configuration -------------------------*/ 
  if(((RCC_OscInitStruct->OscillatorType) & RCC_OSCILLATORTYPE_LSI) == RCC_OSCILLATORTYPE_LSI)
 8001f9c:	071d      	lsls	r5, r3, #28
 8001f9e:	d44f      	bmi.n	8002040 <HAL_RCC_OscConfig+0x1c4>
        }
      }
    }
  }
  /*------------------------------ LSE Configuration -------------------------*/ 
  if(((RCC_OscInitStruct->OscillatorType) & RCC_OSCILLATORTYPE_LSE) == RCC_OSCILLATORTYPE_LSE)
 8001fa0:	0758      	lsls	r0, r3, #29
 8001fa2:	d57b      	bpl.n	800209c <HAL_RCC_OscConfig+0x220>
    /* Check the parameters */
    assert_param(IS_RCC_LSE(RCC_OscInitStruct->LSEState));

    /* Update LSE configuration in Backup Domain control register    */
    /* Requires to enable write access to Backup Domain of necessary */
    if(__HAL_RCC_PWR_IS_CLK_DISABLED())
 8001fa4:	4b79      	ldr	r3, [pc, #484]	; (800218c <HAL_RCC_OscConfig+0x310>)
 8001fa6:	69da      	ldr	r2, [r3, #28]
 8001fa8:	00d1      	lsls	r1, r2, #3
 8001faa:	f100 8110 	bmi.w	80021ce <HAL_RCC_OscConfig+0x352>
    {
      __HAL_RCC_PWR_CLK_ENABLE();
 8001fae:	69da      	ldr	r2, [r3, #28]
 8001fb0:	f042 5280 	orr.w	r2, r2, #268435456	; 0x10000000
 8001fb4:	61da      	str	r2, [r3, #28]
 8001fb6:	69db      	ldr	r3, [r3, #28]
 8001fb8:	f003 5380 	and.w	r3, r3, #268435456	; 0x10000000
 8001fbc:	9301      	str	r3, [sp, #4]
 8001fbe:	9b01      	ldr	r3, [sp, #4]
      pwrclkchanged = SET;
 8001fc0:	f04f 0801 	mov.w	r8, #1
    }
    
    if(HAL_IS_BIT_CLR(PWR->CR, PWR_CR_DBP))
 8001fc4:	4d72      	ldr	r5, [pc, #456]	; (8002190 <HAL_RCC_OscConfig+0x314>)
 8001fc6:	682b      	ldr	r3, [r5, #0]
 8001fc8:	05da      	lsls	r2, r3, #23
 8001fca:	f140 813d 	bpl.w	8002248 <HAL_RCC_OscConfig+0x3cc>
        }
      }
    }

    /* Set the new LSE configuration -----------------------------------------*/
    __HAL_RCC_LSE_CONFIG(RCC_OscInitStruct->LSEState);
 8001fce:	68e3      	ldr	r3, [r4, #12]
 8001fd0:	2b01      	cmp	r3, #1
 8001fd2:	f000 81af 	beq.w	8002334 <HAL_RCC_OscConfig+0x4b8>
 8001fd6:	2b00      	cmp	r3, #0
 8001fd8:	f000 8154 	beq.w	8002284 <HAL_RCC_OscConfig+0x408>
 8001fdc:	2b05      	cmp	r3, #5
 8001fde:	4b6b      	ldr	r3, [pc, #428]	; (800218c <HAL_RCC_OscConfig+0x310>)
 8001fe0:	6a1a      	ldr	r2, [r3, #32]
 8001fe2:	f000 820f 	beq.w	8002404 <HAL_RCC_OscConfig+0x588>
 8001fe6:	f022 0201 	bic.w	r2, r2, #1
 8001fea:	621a      	str	r2, [r3, #32]
 8001fec:	6a1a      	ldr	r2, [r3, #32]
 8001fee:	f022 0204 	bic.w	r2, r2, #4
 8001ff2:	621a      	str	r2, [r3, #32]
    /* Check the LSE State */
    if(RCC_OscInitStruct->LSEState != RCC_LSE_OFF)
    {
      /* Get Start Tick */
      tickstart = HAL_GetTick();
 8001ff4:	f7fe ffa8 	bl	8000f48 <HAL_GetTick>
 8001ff8:	f04f 0902 	mov.w	r9, #2
 8001ffc:	4607      	mov	r7, r0
      
      /* Wait till LSE is ready */  
      while(__HAL_RCC_GET_FLAG(RCC_FLAG_LSERDY) == RESET)
 8001ffe:	4e63      	ldr	r6, [pc, #396]	; (800218c <HAL_RCC_OscConfig+0x310>)
 8002000:	2501      	movs	r5, #1
 8002002:	e015      	b.n	8002030 <HAL_RCC_OscConfig+0x1b4>
 8002004:	fa99 f3a9 	rbit	r3, r9
 8002008:	6a72      	ldr	r2, [r6, #36]	; 0x24
 800200a:	fa99 f3a9 	rbit	r3, r9
 800200e:	fab3 f383 	clz	r3, r3
 8002012:	f003 031f 	and.w	r3, r3, #31
 8002016:	fa05 f303 	lsl.w	r3, r5, r3
 800201a:	4213      	tst	r3, r2
 800201c:	f040 8128 	bne.w	8002270 <HAL_RCC_OscConfig+0x3f4>
      {
        if((HAL_GetTick() - tickstart ) > RCC_LSE_TIMEOUT_VALUE)
 8002020:	f7fe ff92 	bl	8000f48 <HAL_GetTick>
 8002024:	f241 3388 	movw	r3, #5000	; 0x1388
 8002028:	1bc0      	subs	r0, r0, r7
 800202a:	4298      	cmp	r0, r3
 800202c:	f200 811c 	bhi.w	8002268 <HAL_RCC_OscConfig+0x3ec>
 8002030:	fa99 f3a9 	rbit	r3, r9
 8002034:	fa99 f3a9 	rbit	r3, r9
      while(__HAL_RCC_GET_FLAG(RCC_FLAG_LSERDY) == RESET)
 8002038:	2b00      	cmp	r3, #0
 800203a:	d0e3      	beq.n	8002004 <HAL_RCC_OscConfig+0x188>
 800203c:	6a32      	ldr	r2, [r6, #32]
 800203e:	e7e4      	b.n	800200a <HAL_RCC_OscConfig+0x18e>
    if(RCC_OscInitStruct->LSIState != RCC_LSI_OFF)
 8002040:	69a2      	ldr	r2, [r4, #24]
 8002042:	2a00      	cmp	r2, #0
 8002044:	d07b      	beq.n	800213e <HAL_RCC_OscConfig+0x2c2>
 8002046:	2201      	movs	r2, #1
 8002048:	fa92 f1a2 	rbit	r1, r2
      __HAL_RCC_LSI_ENABLE();
 800204c:	4b51      	ldr	r3, [pc, #324]	; (8002194 <HAL_RCC_OscConfig+0x318>)
      while(__HAL_RCC_GET_FLAG(RCC_FLAG_LSIRDY) == RESET)
 800204e:	4e4f      	ldr	r6, [pc, #316]	; (800218c <HAL_RCC_OscConfig+0x310>)
      __HAL_RCC_LSI_ENABLE();
 8002050:	fab1 f181 	clz	r1, r1
 8002054:	440b      	add	r3, r1
 8002056:	009b      	lsls	r3, r3, #2
      while(__HAL_RCC_GET_FLAG(RCC_FLAG_LSIRDY) == RESET)
 8002058:	4615      	mov	r5, r2
      __HAL_RCC_LSI_ENABLE();
 800205a:	601a      	str	r2, [r3, #0]
      tickstart = HAL_GetTick();
 800205c:	f7fe ff74 	bl	8000f48 <HAL_GetTick>
 8002060:	f04f 0802 	mov.w	r8, #2
 8002064:	4607      	mov	r7, r0
      while(__HAL_RCC_GET_FLAG(RCC_FLAG_LSIRDY) == RESET)
 8002066:	e005      	b.n	8002074 <HAL_RCC_OscConfig+0x1f8>
        if((HAL_GetTick() - tickstart ) > LSI_TIMEOUT_VALUE)
 8002068:	f7fe ff6e 	bl	8000f48 <HAL_GetTick>
 800206c:	1bc0      	subs	r0, r0, r7
 800206e:	2802      	cmp	r0, #2
 8002070:	f200 80fa 	bhi.w	8002268 <HAL_RCC_OscConfig+0x3ec>
 8002074:	fa98 f3a8 	rbit	r3, r8
 8002078:	fa98 f3a8 	rbit	r3, r8
 800207c:	fa98 f3a8 	rbit	r3, r8
      while(__HAL_RCC_GET_FLAG(RCC_FLAG_LSIRDY) == RESET)
 8002080:	6a72      	ldr	r2, [r6, #36]	; 0x24
 8002082:	fa98 f3a8 	rbit	r3, r8
 8002086:	fab3 f383 	clz	r3, r3
 800208a:	f003 031f 	and.w	r3, r3, #31
 800208e:	fa05 f303 	lsl.w	r3, r5, r3
 8002092:	4213      	tst	r3, r2
 8002094:	d0e8      	beq.n	8002068 <HAL_RCC_OscConfig+0x1ec>
 8002096:	6823      	ldr	r3, [r4, #0]
  if(((RCC_OscInitStruct->OscillatorType) & RCC_OSCILLATORTYPE_LSE) == RCC_OSCILLATORTYPE_LSE)
 8002098:	0758      	lsls	r0, r3, #29
 800209a:	d483      	bmi.n	8001fa4 <HAL_RCC_OscConfig+0x128>
  }

  /*-------------------------------- PLL Configuration -----------------------*/
  /* Check the parameters */
  assert_param(IS_RCC_PLL(RCC_OscInitStruct->PLL.PLLState));
  if ((RCC_OscInitStruct->PLL.PLLState) != RCC_PLL_NONE)
 800209c:	69e3      	ldr	r3, [r4, #28]
 800209e:	b37b      	cbz	r3, 8002100 <HAL_RCC_OscConfig+0x284>
  {
    /* Check if the PLL is used as system clock or not */
    if(__HAL_RCC_GET_SYSCLK_SOURCE() != RCC_SYSCLKSOURCE_STATUS_PLLCLK)
 80020a0:	4d3a      	ldr	r5, [pc, #232]	; (800218c <HAL_RCC_OscConfig+0x310>)
 80020a2:	686a      	ldr	r2, [r5, #4]
 80020a4:	f002 020c 	and.w	r2, r2, #12
 80020a8:	2a08      	cmp	r2, #8
 80020aa:	d044      	beq.n	8002136 <HAL_RCC_OscConfig+0x2ba>
    { 
      if((RCC_OscInitStruct->PLL.PLLState) == RCC_PLL_ON)
 80020ac:	2b02      	cmp	r3, #2
 80020ae:	f04f 7380 	mov.w	r3, #16777216	; 0x1000000
 80020b2:	f000 8145 	beq.w	8002340 <HAL_RCC_OscConfig+0x4c4>
 80020b6:	fa93 f3a3 	rbit	r3, r3
        }
      }
      else
      {
        /* Disable the main PLL. */
        __HAL_RCC_PLL_DISABLE();
 80020ba:	fab3 f383 	clz	r3, r3
 80020be:	f103 5384 	add.w	r3, r3, #276824064	; 0x10800000
 80020c2:	f503 1384 	add.w	r3, r3, #1081344	; 0x108000
 80020c6:	009b      	lsls	r3, r3, #2
 80020c8:	2200      	movs	r2, #0
 80020ca:	601a      	str	r2, [r3, #0]
 
        /* Get Start Tick */
        tickstart = HAL_GetTick();
 80020cc:	f7fe ff3c 	bl	8000f48 <HAL_GetTick>
 80020d0:	f04f 7400 	mov.w	r4, #33554432	; 0x2000000
 80020d4:	4607      	mov	r7, r0
        
        /* Wait till PLL is disabled */  
        while(__HAL_RCC_GET_FLAG(RCC_FLAG_PLLRDY)  != RESET)
 80020d6:	2601      	movs	r6, #1
 80020d8:	e005      	b.n	80020e6 <HAL_RCC_OscConfig+0x26a>
        {
          if((HAL_GetTick() - tickstart ) > PLL_TIMEOUT_VALUE)
 80020da:	f7fe ff35 	bl	8000f48 <HAL_GetTick>
 80020de:	1bc0      	subs	r0, r0, r7
 80020e0:	2802      	cmp	r0, #2
 80020e2:	f200 80c1 	bhi.w	8002268 <HAL_RCC_OscConfig+0x3ec>
 80020e6:	fa94 f3a4 	rbit	r3, r4
        while(__HAL_RCC_GET_FLAG(RCC_FLAG_PLLRDY)  != RESET)
 80020ea:	682a      	ldr	r2, [r5, #0]
 80020ec:	fa94 f3a4 	rbit	r3, r4
 80020f0:	fab3 f383 	clz	r3, r3
 80020f4:	f003 031f 	and.w	r3, r3, #31
 80020f8:	fa06 f303 	lsl.w	r3, r6, r3
 80020fc:	4213      	tst	r3, r2
 80020fe:	d1ec      	bne.n	80020da <HAL_RCC_OscConfig+0x25e>
    {
      return HAL_ERROR;
    }
  }
  
  return HAL_OK;
 8002100:	2000      	movs	r0, #0
}
 8002102:	b003      	add	sp, #12
 8002104:	e8bd 83f0 	ldmia.w	sp!, {r4, r5, r6, r7, r8, r9, pc}
       || ((__HAL_RCC_GET_SYSCLK_SOURCE() == RCC_SYSCLKSOURCE_STATUS_PLLCLK) && (__HAL_RCC_GET_PLL_OSCSOURCE() == RCC_PLLSOURCE_HSI)))
 8002108:	6852      	ldr	r2, [r2, #4]
 800210a:	03d6      	lsls	r6, r2, #15
 800210c:	f53f af0f 	bmi.w	8001f2e <HAL_RCC_OscConfig+0xb2>
 8002110:	2202      	movs	r2, #2
 8002112:	fa92 f1a2 	rbit	r1, r2
      if((__HAL_RCC_GET_FLAG(RCC_FLAG_HSIRDY) != RESET) && (RCC_OscInitStruct->HSIState != RCC_HSI_ON))
 8002116:	491d      	ldr	r1, [pc, #116]	; (800218c <HAL_RCC_OscConfig+0x310>)
 8002118:	6808      	ldr	r0, [r1, #0]
 800211a:	fa92 f2a2 	rbit	r2, r2
 800211e:	fab2 f282 	clz	r2, r2
 8002122:	f002 021f 	and.w	r2, r2, #31
 8002126:	2101      	movs	r1, #1
 8002128:	fa01 f202 	lsl.w	r2, r1, r2
 800212c:	4202      	tst	r2, r0
 800212e:	d051      	beq.n	80021d4 <HAL_RCC_OscConfig+0x358>
 8002130:	6922      	ldr	r2, [r4, #16]
 8002132:	428a      	cmp	r2, r1
 8002134:	d04e      	beq.n	80021d4 <HAL_RCC_OscConfig+0x358>
        return HAL_ERROR;
 8002136:	2001      	movs	r0, #1
}
 8002138:	b003      	add	sp, #12
 800213a:	e8bd 83f0 	ldmia.w	sp!, {r4, r5, r6, r7, r8, r9, pc}
 800213e:	2501      	movs	r5, #1
 8002140:	fa95 f1a5 	rbit	r1, r5
      __HAL_RCC_LSI_DISABLE();
 8002144:	4b13      	ldr	r3, [pc, #76]	; (8002194 <HAL_RCC_OscConfig+0x318>)
      while(__HAL_RCC_GET_FLAG(RCC_FLAG_LSIRDY) != RESET)
 8002146:	4e11      	ldr	r6, [pc, #68]	; (800218c <HAL_RCC_OscConfig+0x310>)
      __HAL_RCC_LSI_DISABLE();
 8002148:	fab1 f181 	clz	r1, r1
 800214c:	440b      	add	r3, r1
 800214e:	009b      	lsls	r3, r3, #2
 8002150:	f04f 0802 	mov.w	r8, #2
 8002154:	601a      	str	r2, [r3, #0]
      tickstart = HAL_GetTick();
 8002156:	f7fe fef7 	bl	8000f48 <HAL_GetTick>
 800215a:	4607      	mov	r7, r0
      while(__HAL_RCC_GET_FLAG(RCC_FLAG_LSIRDY) != RESET)
 800215c:	e004      	b.n	8002168 <HAL_RCC_OscConfig+0x2ec>
        if((HAL_GetTick() - tickstart ) > LSI_TIMEOUT_VALUE)
 800215e:	f7fe fef3 	bl	8000f48 <HAL_GetTick>
 8002162:	1bc0      	subs	r0, r0, r7
 8002164:	2802      	cmp	r0, #2
 8002166:	d87f      	bhi.n	8002268 <HAL_RCC_OscConfig+0x3ec>
 8002168:	fa98 f3a8 	rbit	r3, r8
 800216c:	fa98 f3a8 	rbit	r3, r8
 8002170:	fa98 f3a8 	rbit	r3, r8
      while(__HAL_RCC_GET_FLAG(RCC_FLAG_LSIRDY) != RESET)
 8002174:	6a72      	ldr	r2, [r6, #36]	; 0x24
 8002176:	fa98 f3a8 	rbit	r3, r8
 800217a:	fab3 f383 	clz	r3, r3
 800217e:	f003 031f 	and.w	r3, r3, #31
 8002182:	fa05 f303 	lsl.w	r3, r5, r3
 8002186:	4213      	tst	r3, r2
 8002188:	d1e9      	bne.n	800215e <HAL_RCC_OscConfig+0x2e2>
 800218a:	e784      	b.n	8002096 <HAL_RCC_OscConfig+0x21a>
 800218c:	40021000 	.word	0x40021000
 8002190:	40007000 	.word	0x40007000
 8002194:	10908120 	.word	0x10908120
       || ((__HAL_RCC_GET_SYSCLK_SOURCE() == RCC_SYSCLKSOURCE_STATUS_PLLCLK) && (__HAL_RCC_GET_PLL_OSCSOURCE() == RCC_PLLSOURCE_HSE)))
 8002198:	684a      	ldr	r2, [r1, #4]
 800219a:	03d2      	lsls	r2, r2, #15
 800219c:	f57f ae82 	bpl.w	8001ea4 <HAL_RCC_OscConfig+0x28>
 80021a0:	f44f 3200 	mov.w	r2, #131072	; 0x20000
 80021a4:	fa92 f1a2 	rbit	r1, r2
      if((__HAL_RCC_GET_FLAG(RCC_FLAG_HSERDY) != RESET) && (RCC_OscInitStruct->HSEState == RCC_HSE_OFF))
 80021a8:	499a      	ldr	r1, [pc, #616]	; (8002414 <HAL_RCC_OscConfig+0x598>)
 80021aa:	6808      	ldr	r0, [r1, #0]
 80021ac:	fa92 f2a2 	rbit	r2, r2
 80021b0:	fab2 f282 	clz	r2, r2
 80021b4:	f002 021f 	and.w	r2, r2, #31
 80021b8:	2101      	movs	r1, #1
 80021ba:	fa01 f202 	lsl.w	r2, r1, r2
 80021be:	4202      	tst	r2, r0
 80021c0:	f43f aea7 	beq.w	8001f12 <HAL_RCC_OscConfig+0x96>
 80021c4:	6862      	ldr	r2, [r4, #4]
 80021c6:	2a00      	cmp	r2, #0
 80021c8:	f47f aea3 	bne.w	8001f12 <HAL_RCC_OscConfig+0x96>
 80021cc:	e7b3      	b.n	8002136 <HAL_RCC_OscConfig+0x2ba>
    FlagStatus       pwrclkchanged = RESET;
 80021ce:	f04f 0800 	mov.w	r8, #0
 80021d2:	e6f7      	b.n	8001fc4 <HAL_RCC_OscConfig+0x148>
        __HAL_RCC_HSI_CALIBRATIONVALUE_ADJUST(RCC_OscInitStruct->HSICalibrationValue);
 80021d4:	4d8f      	ldr	r5, [pc, #572]	; (8002414 <HAL_RCC_OscConfig+0x598>)
 80021d6:	21f8      	movs	r1, #248	; 0xf8
 80021d8:	6828      	ldr	r0, [r5, #0]
 80021da:	fa91 f1a1 	rbit	r1, r1
 80021de:	6962      	ldr	r2, [r4, #20]
 80021e0:	fab1 f181 	clz	r1, r1
 80021e4:	f020 00f8 	bic.w	r0, r0, #248	; 0xf8
 80021e8:	408a      	lsls	r2, r1
 80021ea:	4302      	orrs	r2, r0
 80021ec:	602a      	str	r2, [r5, #0]
  if(((RCC_OscInitStruct->OscillatorType) & RCC_OSCILLATORTYPE_LSI) == RCC_OSCILLATORTYPE_LSI)
 80021ee:	071d      	lsls	r5, r3, #28
 80021f0:	f57f aed6 	bpl.w	8001fa0 <HAL_RCC_OscConfig+0x124>
 80021f4:	e724      	b.n	8002040 <HAL_RCC_OscConfig+0x1c4>
      __HAL_RCC_HSE_CONFIG(RCC_OscInitStruct->HSEState);
 80021f6:	4d87      	ldr	r5, [pc, #540]	; (8002414 <HAL_RCC_OscConfig+0x598>)
 80021f8:	682b      	ldr	r3, [r5, #0]
 80021fa:	f423 3380 	bic.w	r3, r3, #65536	; 0x10000
 80021fe:	602b      	str	r3, [r5, #0]
 8002200:	682b      	ldr	r3, [r5, #0]
 8002202:	f423 2380 	bic.w	r3, r3, #262144	; 0x40000
 8002206:	602b      	str	r3, [r5, #0]
      __HAL_RCC_HSE_PREDIV_CONFIG(RCC_OscInitStruct->HSEPredivValue);
 8002208:	6aeb      	ldr	r3, [r5, #44]	; 0x2c
 800220a:	68a2      	ldr	r2, [r4, #8]
 800220c:	f023 030f 	bic.w	r3, r3, #15
 8002210:	4313      	orrs	r3, r2
 8002212:	62eb      	str	r3, [r5, #44]	; 0x2c
        tickstart = HAL_GetTick();
 8002214:	f7fe fe98 	bl	8000f48 <HAL_GetTick>
 8002218:	f44f 3800 	mov.w	r8, #131072	; 0x20000
 800221c:	4607      	mov	r7, r0
        while(__HAL_RCC_GET_FLAG(RCC_FLAG_HSERDY) != RESET)
 800221e:	2601      	movs	r6, #1
 8002220:	e004      	b.n	800222c <HAL_RCC_OscConfig+0x3b0>
           if((HAL_GetTick() - tickstart ) > HSE_TIMEOUT_VALUE)
 8002222:	f7fe fe91 	bl	8000f48 <HAL_GetTick>
 8002226:	1bc0      	subs	r0, r0, r7
 8002228:	2864      	cmp	r0, #100	; 0x64
 800222a:	d81d      	bhi.n	8002268 <HAL_RCC_OscConfig+0x3ec>
 800222c:	fa98 f3a8 	rbit	r3, r8
        while(__HAL_RCC_GET_FLAG(RCC_FLAG_HSERDY) != RESET)
 8002230:	682a      	ldr	r2, [r5, #0]
 8002232:	fa98 f3a8 	rbit	r3, r8
 8002236:	fab3 f383 	clz	r3, r3
 800223a:	f003 031f 	and.w	r3, r3, #31
 800223e:	fa06 f303 	lsl.w	r3, r6, r3
 8002242:	4213      	tst	r3, r2
 8002244:	d1ed      	bne.n	8002222 <HAL_RCC_OscConfig+0x3a6>
 8002246:	e663      	b.n	8001f10 <HAL_RCC_OscConfig+0x94>
      SET_BIT(PWR->CR, PWR_CR_DBP);
 8002248:	682b      	ldr	r3, [r5, #0]
 800224a:	f443 7380 	orr.w	r3, r3, #256	; 0x100
 800224e:	602b      	str	r3, [r5, #0]
      tickstart = HAL_GetTick();
 8002250:	f7fe fe7a 	bl	8000f48 <HAL_GetTick>
 8002254:	4606      	mov	r6, r0
      while(HAL_IS_BIT_CLR(PWR->CR, PWR_CR_DBP))
 8002256:	682b      	ldr	r3, [r5, #0]
 8002258:	05db      	lsls	r3, r3, #23
 800225a:	f53f aeb8 	bmi.w	8001fce <HAL_RCC_OscConfig+0x152>
        if((HAL_GetTick() - tickstart) > RCC_DBP_TIMEOUT_VALUE)
 800225e:	f7fe fe73 	bl	8000f48 <HAL_GetTick>
 8002262:	1b80      	subs	r0, r0, r6
 8002264:	2864      	cmp	r0, #100	; 0x64
 8002266:	d9f6      	bls.n	8002256 <HAL_RCC_OscConfig+0x3da>
            return HAL_TIMEOUT;
 8002268:	2003      	movs	r0, #3
}
 800226a:	b003      	add	sp, #12
 800226c:	e8bd 83f0 	ldmia.w	sp!, {r4, r5, r6, r7, r8, r9, pc}
    if(pwrclkchanged == SET)
 8002270:	f1b8 0f00 	cmp.w	r8, #0
 8002274:	f43f af12 	beq.w	800209c <HAL_RCC_OscConfig+0x220>
      __HAL_RCC_PWR_CLK_DISABLE();
 8002278:	4a66      	ldr	r2, [pc, #408]	; (8002414 <HAL_RCC_OscConfig+0x598>)
 800227a:	69d3      	ldr	r3, [r2, #28]
 800227c:	f023 5380 	bic.w	r3, r3, #268435456	; 0x10000000
 8002280:	61d3      	str	r3, [r2, #28]
 8002282:	e70b      	b.n	800209c <HAL_RCC_OscConfig+0x220>
    __HAL_RCC_LSE_CONFIG(RCC_OscInitStruct->LSEState);
 8002284:	4d63      	ldr	r5, [pc, #396]	; (8002414 <HAL_RCC_OscConfig+0x598>)
 8002286:	6a2b      	ldr	r3, [r5, #32]
 8002288:	f023 0301 	bic.w	r3, r3, #1
 800228c:	622b      	str	r3, [r5, #32]
 800228e:	6a2b      	ldr	r3, [r5, #32]
 8002290:	f023 0304 	bic.w	r3, r3, #4
 8002294:	622b      	str	r3, [r5, #32]
      tickstart = HAL_GetTick();
 8002296:	f7fe fe57 	bl	8000f48 <HAL_GetTick>
 800229a:	f04f 0902 	mov.w	r9, #2
 800229e:	4607      	mov	r7, r0
      while(__HAL_RCC_GET_FLAG(RCC_FLAG_LSERDY) != RESET)
 80022a0:	2601      	movs	r6, #1
 80022a2:	e013      	b.n	80022cc <HAL_RCC_OscConfig+0x450>
 80022a4:	fa99 f3a9 	rbit	r3, r9
 80022a8:	6a6a      	ldr	r2, [r5, #36]	; 0x24
 80022aa:	fa99 f3a9 	rbit	r3, r9
 80022ae:	fab3 f383 	clz	r3, r3
 80022b2:	f003 031f 	and.w	r3, r3, #31
 80022b6:	fa06 f303 	lsl.w	r3, r6, r3
 80022ba:	4213      	tst	r3, r2
 80022bc:	d0d8      	beq.n	8002270 <HAL_RCC_OscConfig+0x3f4>
        if((HAL_GetTick() - tickstart ) > RCC_LSE_TIMEOUT_VALUE)
 80022be:	f7fe fe43 	bl	8000f48 <HAL_GetTick>
 80022c2:	f241 3388 	movw	r3, #5000	; 0x1388
 80022c6:	1bc0      	subs	r0, r0, r7
 80022c8:	4298      	cmp	r0, r3
 80022ca:	d8cd      	bhi.n	8002268 <HAL_RCC_OscConfig+0x3ec>
 80022cc:	fa99 f3a9 	rbit	r3, r9
 80022d0:	fa99 f3a9 	rbit	r3, r9
      while(__HAL_RCC_GET_FLAG(RCC_FLAG_LSERDY) != RESET)
 80022d4:	2b00      	cmp	r3, #0
 80022d6:	d0e5      	beq.n	80022a4 <HAL_RCC_OscConfig+0x428>
 80022d8:	6a2a      	ldr	r2, [r5, #32]
 80022da:	e7e6      	b.n	80022aa <HAL_RCC_OscConfig+0x42e>
 80022dc:	2501      	movs	r5, #1
 80022de:	fa95 f3a5 	rbit	r3, r5
        __HAL_RCC_HSI_DISABLE();
 80022e2:	fab3 f383 	clz	r3, r3
 80022e6:	f103 5384 	add.w	r3, r3, #276824064	; 0x10800000
 80022ea:	f503 1384 	add.w	r3, r3, #1081344	; 0x108000
 80022ee:	009b      	lsls	r3, r3, #2
 80022f0:	f04f 0802 	mov.w	r8, #2
 80022f4:	601a      	str	r2, [r3, #0]
        tickstart = HAL_GetTick();
 80022f6:	f7fe fe27 	bl	8000f48 <HAL_GetTick>
        while(__HAL_RCC_GET_FLAG(RCC_FLAG_HSIRDY) != RESET)
 80022fa:	4e46      	ldr	r6, [pc, #280]	; (8002414 <HAL_RCC_OscConfig+0x598>)
        tickstart = HAL_GetTick();
 80022fc:	4607      	mov	r7, r0
        while(__HAL_RCC_GET_FLAG(RCC_FLAG_HSIRDY) != RESET)
 80022fe:	e004      	b.n	800230a <HAL_RCC_OscConfig+0x48e>
          if((HAL_GetTick() - tickstart ) > HSI_TIMEOUT_VALUE)
 8002300:	f7fe fe22 	bl	8000f48 <HAL_GetTick>
 8002304:	1bc0      	subs	r0, r0, r7
 8002306:	2802      	cmp	r0, #2
 8002308:	d8ae      	bhi.n	8002268 <HAL_RCC_OscConfig+0x3ec>
 800230a:	fa98 f3a8 	rbit	r3, r8
        while(__HAL_RCC_GET_FLAG(RCC_FLAG_HSIRDY) != RESET)
 800230e:	6832      	ldr	r2, [r6, #0]
 8002310:	fa98 f3a8 	rbit	r3, r8
 8002314:	fab3 f383 	clz	r3, r3
 8002318:	f003 031f 	and.w	r3, r3, #31
 800231c:	fa05 f303 	lsl.w	r3, r5, r3
 8002320:	4213      	tst	r3, r2
 8002322:	d1ed      	bne.n	8002300 <HAL_RCC_OscConfig+0x484>
 8002324:	6823      	ldr	r3, [r4, #0]
 8002326:	e639      	b.n	8001f9c <HAL_RCC_OscConfig+0x120>
      __HAL_RCC_HSE_CONFIG(RCC_OscInitStruct->HSEState);
 8002328:	4a3a      	ldr	r2, [pc, #232]	; (8002414 <HAL_RCC_OscConfig+0x598>)
 800232a:	6813      	ldr	r3, [r2, #0]
 800232c:	f443 3380 	orr.w	r3, r3, #65536	; 0x10000
 8002330:	6013      	str	r3, [r2, #0]
 8002332:	e5cc      	b.n	8001ece <HAL_RCC_OscConfig+0x52>
    __HAL_RCC_LSE_CONFIG(RCC_OscInitStruct->LSEState);
 8002334:	4a37      	ldr	r2, [pc, #220]	; (8002414 <HAL_RCC_OscConfig+0x598>)
 8002336:	6a13      	ldr	r3, [r2, #32]
 8002338:	f043 0301 	orr.w	r3, r3, #1
 800233c:	6213      	str	r3, [r2, #32]
 800233e:	e659      	b.n	8001ff4 <HAL_RCC_OscConfig+0x178>
 8002340:	fa93 f3a3 	rbit	r3, r3
        __HAL_RCC_PLL_DISABLE();
 8002344:	fab3 f383 	clz	r3, r3
 8002348:	f103 5384 	add.w	r3, r3, #276824064	; 0x10800000
 800234c:	f503 1384 	add.w	r3, r3, #1081344	; 0x108000
 8002350:	009b      	lsls	r3, r3, #2
 8002352:	2200      	movs	r2, #0
 8002354:	601a      	str	r2, [r3, #0]
        tickstart = HAL_GetTick();
 8002356:	f7fe fdf7 	bl	8000f48 <HAL_GetTick>
 800235a:	f04f 7800 	mov.w	r8, #33554432	; 0x2000000
 800235e:	4607      	mov	r7, r0
        while(__HAL_RCC_GET_FLAG(RCC_FLAG_PLLRDY)  != RESET)
 8002360:	2601      	movs	r6, #1
 8002362:	e005      	b.n	8002370 <HAL_RCC_OscConfig+0x4f4>
          if((HAL_GetTick() - tickstart ) > PLL_TIMEOUT_VALUE)
 8002364:	f7fe fdf0 	bl	8000f48 <HAL_GetTick>
 8002368:	1bc0      	subs	r0, r0, r7
 800236a:	2802      	cmp	r0, #2
 800236c:	f63f af7c 	bhi.w	8002268 <HAL_RCC_OscConfig+0x3ec>
 8002370:	fa98 f3a8 	rbit	r3, r8
        while(__HAL_RCC_GET_FLAG(RCC_FLAG_PLLRDY)  != RESET)
 8002374:	682a      	ldr	r2, [r5, #0]
 8002376:	fa98 f3a8 	rbit	r3, r8
 800237a:	fab3 f383 	clz	r3, r3
 800237e:	f003 031f 	and.w	r3, r3, #31
 8002382:	fa06 f303 	lsl.w	r3, r6, r3
 8002386:	4213      	tst	r3, r2
 8002388:	d1ec      	bne.n	8002364 <HAL_RCC_OscConfig+0x4e8>
      __HAL_RCC_PLL_CONFIG(RCC_OscInitStruct->PLL.PLLSource,
 800238a:	686a      	ldr	r2, [r5, #4]
 800238c:	6a63      	ldr	r3, [r4, #36]	; 0x24
 800238e:	6a21      	ldr	r1, [r4, #32]
 8002390:	f422 1274 	bic.w	r2, r2, #3997696	; 0x3d0000
 8002394:	430b      	orrs	r3, r1
 8002396:	4313      	orrs	r3, r2
 8002398:	606b      	str	r3, [r5, #4]
 800239a:	f04f 7380 	mov.w	r3, #16777216	; 0x1000000
 800239e:	fa93 f3a3 	rbit	r3, r3
        __HAL_RCC_PLL_ENABLE();
 80023a2:	fab3 f383 	clz	r3, r3
 80023a6:	f103 5384 	add.w	r3, r3, #276824064	; 0x10800000
 80023aa:	f503 1384 	add.w	r3, r3, #1081344	; 0x108000
 80023ae:	009b      	lsls	r3, r3, #2
 80023b0:	f04f 7400 	mov.w	r4, #33554432	; 0x2000000
 80023b4:	601e      	str	r6, [r3, #0]
        tickstart = HAL_GetTick();
 80023b6:	f7fe fdc7 	bl	8000f48 <HAL_GetTick>
        while(__HAL_RCC_GET_FLAG(RCC_FLAG_PLLRDY)  == RESET)
 80023ba:	4e16      	ldr	r6, [pc, #88]	; (8002414 <HAL_RCC_OscConfig+0x598>)
        tickstart = HAL_GetTick();
 80023bc:	4607      	mov	r7, r0
        while(__HAL_RCC_GET_FLAG(RCC_FLAG_PLLRDY)  == RESET)
 80023be:	2501      	movs	r5, #1
 80023c0:	e005      	b.n	80023ce <HAL_RCC_OscConfig+0x552>
          if((HAL_GetTick() - tickstart ) > PLL_TIMEOUT_VALUE)
 80023c2:	f7fe fdc1 	bl	8000f48 <HAL_GetTick>
 80023c6:	1bc0      	subs	r0, r0, r7
 80023c8:	2802      	cmp	r0, #2
 80023ca:	f63f af4d 	bhi.w	8002268 <HAL_RCC_OscConfig+0x3ec>
 80023ce:	fa94 f3a4 	rbit	r3, r4
        while(__HAL_RCC_GET_FLAG(RCC_FLAG_PLLRDY)  == RESET)
 80023d2:	6832      	ldr	r2, [r6, #0]
 80023d4:	fa94 f3a4 	rbit	r3, r4
 80023d8:	fab3 f383 	clz	r3, r3
 80023dc:	f003 031f 	and.w	r3, r3, #31
 80023e0:	fa05 f303 	lsl.w	r3, r5, r3
 80023e4:	4213      	tst	r3, r2
 80023e6:	d0ec      	beq.n	80023c2 <HAL_RCC_OscConfig+0x546>
 80023e8:	e68a      	b.n	8002100 <HAL_RCC_OscConfig+0x284>
      __HAL_RCC_HSE_CONFIG(RCC_OscInitStruct->HSEState);
 80023ea:	f103 4380 	add.w	r3, r3, #1073741824	; 0x40000000
 80023ee:	f5a3 333c 	sub.w	r3, r3, #192512	; 0x2f000
 80023f2:	681a      	ldr	r2, [r3, #0]
 80023f4:	f442 2280 	orr.w	r2, r2, #262144	; 0x40000
 80023f8:	601a      	str	r2, [r3, #0]
 80023fa:	681a      	ldr	r2, [r3, #0]
 80023fc:	f442 3280 	orr.w	r2, r2, #65536	; 0x10000
 8002400:	601a      	str	r2, [r3, #0]
 8002402:	e564      	b.n	8001ece <HAL_RCC_OscConfig+0x52>
    __HAL_RCC_LSE_CONFIG(RCC_OscInitStruct->LSEState);
 8002404:	f042 0204 	orr.w	r2, r2, #4
 8002408:	621a      	str	r2, [r3, #32]
 800240a:	6a1a      	ldr	r2, [r3, #32]
 800240c:	f042 0201 	orr.w	r2, r2, #1
 8002410:	621a      	str	r2, [r3, #32]
 8002412:	e5ef      	b.n	8001ff4 <HAL_RCC_OscConfig+0x178>
 8002414:	40021000 	.word	0x40021000

08002418 <HAL_RCC_ClockConfig>:
  /* To correctly read data from FLASH memory, the number of wait states (LATENCY) 
  must be correctly programmed according to the frequency of the CPU clock 
    (HCLK) of the device. */

  /* Increasing the number of wait states because of higher CPU frequency */
  if(FLatency > (FLASH->ACR & FLASH_ACR_LATENCY))
 8002418:	4a70      	ldr	r2, [pc, #448]	; (80025dc <HAL_RCC_ClockConfig+0x1c4>)
 800241a:	6813      	ldr	r3, [r2, #0]
 800241c:	f003 0307 	and.w	r3, r3, #7
 8002420:	428b      	cmp	r3, r1
 8002422:	d20b      	bcs.n	800243c <HAL_RCC_ClockConfig+0x24>
  {    
    /* Program the new number of wait states to the LATENCY bits in the FLASH_ACR register */
    __HAL_FLASH_SET_LATENCY(FLatency);
 8002424:	6813      	ldr	r3, [r2, #0]
 8002426:	f023 0307 	bic.w	r3, r3, #7
 800242a:	430b      	orrs	r3, r1
 800242c:	6013      	str	r3, [r2, #0]
    
    /* Check that the new number of wait states is taken into account to access the Flash
    memory by reading the FLASH_ACR register */
    if((FLASH->ACR & FLASH_ACR_LATENCY) != FLatency)
 800242e:	6813      	ldr	r3, [r2, #0]
 8002430:	f003 0307 	and.w	r3, r3, #7
 8002434:	4299      	cmp	r1, r3
 8002436:	d001      	beq.n	800243c <HAL_RCC_ClockConfig+0x24>
    {
      return HAL_ERROR;
 8002438:	2001      	movs	r0, #1

  /* Configure the source of time base considering new system clocks settings*/
  HAL_InitTick (TICK_INT_PRIORITY);
  
  return HAL_OK;
}
 800243a:	4770      	bx	lr
  if(((RCC_ClkInitStruct->ClockType) & RCC_CLOCKTYPE_HCLK) == RCC_CLOCKTYPE_HCLK)
 800243c:	6803      	ldr	r3, [r0, #0]
{
 800243e:	e92d 41f0 	stmdb	sp!, {r4, r5, r6, r7, r8, lr}
  if(((RCC_ClkInitStruct->ClockType) & RCC_CLOCKTYPE_HCLK) == RCC_CLOCKTYPE_HCLK)
 8002442:	079e      	lsls	r6, r3, #30
 8002444:	d506      	bpl.n	8002454 <HAL_RCC_ClockConfig+0x3c>
    MODIFY_REG(RCC->CFGR, RCC_CFGR_HPRE, RCC_ClkInitStruct->AHBCLKDivider);
 8002446:	4c66      	ldr	r4, [pc, #408]	; (80025e0 <HAL_RCC_ClockConfig+0x1c8>)
 8002448:	6885      	ldr	r5, [r0, #8]
 800244a:	6862      	ldr	r2, [r4, #4]
 800244c:	f022 02f0 	bic.w	r2, r2, #240	; 0xf0
 8002450:	432a      	orrs	r2, r5
 8002452:	6062      	str	r2, [r4, #4]
  if(((RCC_ClkInitStruct->ClockType) & RCC_CLOCKTYPE_SYSCLK) == RCC_CLOCKTYPE_SYSCLK)
 8002454:	07dd      	lsls	r5, r3, #31
 8002456:	4606      	mov	r6, r0
 8002458:	460c      	mov	r4, r1
 800245a:	d531      	bpl.n	80024c0 <HAL_RCC_ClockConfig+0xa8>
    if(RCC_ClkInitStruct->SYSCLKSource == RCC_SYSCLKSOURCE_HSE)
 800245c:	6842      	ldr	r2, [r0, #4]
 800245e:	2a01      	cmp	r2, #1
 8002460:	f000 80aa 	beq.w	80025b8 <HAL_RCC_ClockConfig+0x1a0>
    else if(RCC_ClkInitStruct->SYSCLKSource == RCC_SYSCLKSOURCE_PLLCLK)
 8002464:	2a02      	cmp	r2, #2
 8002466:	bf0c      	ite	eq
 8002468:	f04f 7300 	moveq.w	r3, #33554432	; 0x2000000
 800246c:	2302      	movne	r3, #2
 800246e:	fa93 f1a3 	rbit	r1, r3
      if(__HAL_RCC_GET_FLAG(RCC_FLAG_HSIRDY) == RESET)
 8002472:	495b      	ldr	r1, [pc, #364]	; (80025e0 <HAL_RCC_ClockConfig+0x1c8>)
 8002474:	6808      	ldr	r0, [r1, #0]
 8002476:	fa93 f3a3 	rbit	r3, r3
 800247a:	fab3 f383 	clz	r3, r3
 800247e:	f003 031f 	and.w	r3, r3, #31
 8002482:	2101      	movs	r1, #1
 8002484:	fa01 f303 	lsl.w	r3, r1, r3
 8002488:	4203      	tst	r3, r0
 800248a:	d029      	beq.n	80024e0 <HAL_RCC_ClockConfig+0xc8>
    __HAL_RCC_SYSCLK_CONFIG(RCC_ClkInitStruct->SYSCLKSource);
 800248c:	4d54      	ldr	r5, [pc, #336]	; (80025e0 <HAL_RCC_ClockConfig+0x1c8>)
 800248e:	686b      	ldr	r3, [r5, #4]
 8002490:	f023 0303 	bic.w	r3, r3, #3
 8002494:	4313      	orrs	r3, r2
 8002496:	606b      	str	r3, [r5, #4]
    tickstart = HAL_GetTick();
 8002498:	f7fe fd56 	bl	8000f48 <HAL_GetTick>
    if(RCC_ClkInitStruct->SYSCLKSource == RCC_SYSCLKSOURCE_HSE)
 800249c:	6873      	ldr	r3, [r6, #4]
 800249e:	2b01      	cmp	r3, #1
    tickstart = HAL_GetTick();
 80024a0:	4607      	mov	r7, r0
        if((HAL_GetTick() - tickstart ) > CLOCKSWITCH_TIMEOUT_VALUE)
 80024a2:	f241 3888 	movw	r8, #5000	; 0x1388
    if(RCC_ClkInitStruct->SYSCLKSource == RCC_SYSCLKSOURCE_HSE)
 80024a6:	d023      	beq.n	80024f0 <HAL_RCC_ClockConfig+0xd8>
    else if(RCC_ClkInitStruct->SYSCLKSource == RCC_SYSCLKSOURCE_PLLCLK)
 80024a8:	2b02      	cmp	r3, #2
 80024aa:	d105      	bne.n	80024b8 <HAL_RCC_ClockConfig+0xa0>
 80024ac:	e07b      	b.n	80025a6 <HAL_RCC_ClockConfig+0x18e>
        if((HAL_GetTick() - tickstart ) > CLOCKSWITCH_TIMEOUT_VALUE)
 80024ae:	f7fe fd4b 	bl	8000f48 <HAL_GetTick>
 80024b2:	1bc0      	subs	r0, r0, r7
 80024b4:	4540      	cmp	r0, r8
 80024b6:	d87c      	bhi.n	80025b2 <HAL_RCC_ClockConfig+0x19a>
      while (__HAL_RCC_GET_SYSCLK_SOURCE() != RCC_SYSCLKSOURCE_STATUS_HSI)
 80024b8:	686b      	ldr	r3, [r5, #4]
 80024ba:	f013 0f0c 	tst.w	r3, #12
 80024be:	d1f6      	bne.n	80024ae <HAL_RCC_ClockConfig+0x96>
  if(FLatency < (FLASH->ACR & FLASH_ACR_LATENCY))
 80024c0:	4a46      	ldr	r2, [pc, #280]	; (80025dc <HAL_RCC_ClockConfig+0x1c4>)
 80024c2:	6813      	ldr	r3, [r2, #0]
 80024c4:	f003 0307 	and.w	r3, r3, #7
 80024c8:	429c      	cmp	r4, r3
 80024ca:	d217      	bcs.n	80024fc <HAL_RCC_ClockConfig+0xe4>
    __HAL_FLASH_SET_LATENCY(FLatency);
 80024cc:	6813      	ldr	r3, [r2, #0]
 80024ce:	f023 0307 	bic.w	r3, r3, #7
 80024d2:	4323      	orrs	r3, r4
 80024d4:	6013      	str	r3, [r2, #0]
    if((FLASH->ACR & FLASH_ACR_LATENCY) != FLatency)
 80024d6:	6813      	ldr	r3, [r2, #0]
 80024d8:	f003 0307 	and.w	r3, r3, #7
 80024dc:	429c      	cmp	r4, r3
 80024de:	d00d      	beq.n	80024fc <HAL_RCC_ClockConfig+0xe4>
      return HAL_ERROR;
 80024e0:	2001      	movs	r0, #1
 80024e2:	e8bd 81f0 	ldmia.w	sp!, {r4, r5, r6, r7, r8, pc}
        if((HAL_GetTick() - tickstart ) > CLOCKSWITCH_TIMEOUT_VALUE)
 80024e6:	f7fe fd2f 	bl	8000f48 <HAL_GetTick>
 80024ea:	1bc0      	subs	r0, r0, r7
 80024ec:	4540      	cmp	r0, r8
 80024ee:	d860      	bhi.n	80025b2 <HAL_RCC_ClockConfig+0x19a>
      while (__HAL_RCC_GET_SYSCLK_SOURCE() != RCC_SYSCLKSOURCE_STATUS_HSE)
 80024f0:	686b      	ldr	r3, [r5, #4]
 80024f2:	f003 030c 	and.w	r3, r3, #12
 80024f6:	2b04      	cmp	r3, #4
 80024f8:	d1f5      	bne.n	80024e6 <HAL_RCC_ClockConfig+0xce>
 80024fa:	e7e1      	b.n	80024c0 <HAL_RCC_ClockConfig+0xa8>
  if(((RCC_ClkInitStruct->ClockType) & RCC_CLOCKTYPE_PCLK1) == RCC_CLOCKTYPE_PCLK1)
 80024fc:	6833      	ldr	r3, [r6, #0]
 80024fe:	0758      	lsls	r0, r3, #29
 8002500:	d506      	bpl.n	8002510 <HAL_RCC_ClockConfig+0xf8>
    MODIFY_REG(RCC->CFGR, RCC_CFGR_PPRE1, RCC_ClkInitStruct->APB1CLKDivider);
 8002502:	4937      	ldr	r1, [pc, #220]	; (80025e0 <HAL_RCC_ClockConfig+0x1c8>)
 8002504:	68f0      	ldr	r0, [r6, #12]
 8002506:	684a      	ldr	r2, [r1, #4]
 8002508:	f422 62e0 	bic.w	r2, r2, #1792	; 0x700
 800250c:	4302      	orrs	r2, r0
 800250e:	604a      	str	r2, [r1, #4]
  if(((RCC_ClkInitStruct->ClockType) & RCC_CLOCKTYPE_PCLK2) == RCC_CLOCKTYPE_PCLK2)
 8002510:	0719      	lsls	r1, r3, #28
 8002512:	d507      	bpl.n	8002524 <HAL_RCC_ClockConfig+0x10c>
    MODIFY_REG(RCC->CFGR, RCC_CFGR_PPRE2, ((RCC_ClkInitStruct->APB2CLKDivider) << 3U));
 8002514:	4a32      	ldr	r2, [pc, #200]	; (80025e0 <HAL_RCC_ClockConfig+0x1c8>)
 8002516:	6931      	ldr	r1, [r6, #16]
 8002518:	6853      	ldr	r3, [r2, #4]
 800251a:	f423 5360 	bic.w	r3, r3, #14336	; 0x3800
 800251e:	ea43 03c1 	orr.w	r3, r3, r1, lsl #3
 8002522:	6053      	str	r3, [r2, #4]
uint32_t HAL_RCC_GetSysClockFreq(void)
{
  uint32_t tmpreg = 0U, prediv = 0U, pllclk = 0U, pllmul = 0U;
  uint32_t sysclockfreq = 0U;
  
  tmpreg = RCC->CFGR;
 8002524:	4b2e      	ldr	r3, [pc, #184]	; (80025e0 <HAL_RCC_ClockConfig+0x1c8>)
 8002526:	685a      	ldr	r2, [r3, #4]
  
  /* Get SYSCLK source -------------------------------------------------------*/
  switch (tmpreg & RCC_CFGR_SWS)
 8002528:	f002 010c 	and.w	r1, r2, #12
 800252c:	2908      	cmp	r1, #8
 800252e:	d016      	beq.n	800255e <HAL_RCC_ClockConfig+0x146>
  {
    case RCC_SYSCLKSOURCE_STATUS_HSE:  /* HSE used as system clock */
    {
      sysclockfreq = HSE_VALUE;
 8002530:	492c      	ldr	r1, [pc, #176]	; (80025e4 <HAL_RCC_ClockConfig+0x1cc>)
  SystemCoreClock = HAL_RCC_GetSysClockFreq() >> AHBPrescTable[(RCC->CFGR & RCC_CFGR_HPRE)>> RCC_CFGR_HPRE_BITNUMBER];
 8002532:	4b2b      	ldr	r3, [pc, #172]	; (80025e0 <HAL_RCC_ClockConfig+0x1c8>)
 8002534:	22f0      	movs	r2, #240	; 0xf0
 8002536:	685b      	ldr	r3, [r3, #4]
 8002538:	fa92 f2a2 	rbit	r2, r2
 800253c:	fab2 f282 	clz	r2, r2
 8002540:	f003 03f0 	and.w	r3, r3, #240	; 0xf0
 8002544:	40d3      	lsrs	r3, r2
 8002546:	4828      	ldr	r0, [pc, #160]	; (80025e8 <HAL_RCC_ClockConfig+0x1d0>)
 8002548:	4a28      	ldr	r2, [pc, #160]	; (80025ec <HAL_RCC_ClockConfig+0x1d4>)
 800254a:	5cc3      	ldrb	r3, [r0, r3]
  HAL_InitTick (TICK_INT_PRIORITY);
 800254c:	2000      	movs	r0, #0
  SystemCoreClock = HAL_RCC_GetSysClockFreq() >> AHBPrescTable[(RCC->CFGR & RCC_CFGR_HPRE)>> RCC_CFGR_HPRE_BITNUMBER];
 800254e:	fa21 f303 	lsr.w	r3, r1, r3
 8002552:	6013      	str	r3, [r2, #0]
  HAL_InitTick (TICK_INT_PRIORITY);
 8002554:	f7fe fcc8 	bl	8000ee8 <HAL_InitTick>
  return HAL_OK;
 8002558:	2000      	movs	r0, #0
}
 800255a:	e8bd 81f0 	ldmia.w	sp!, {r4, r5, r6, r7, r8, pc}
 800255e:	f44f 1170 	mov.w	r1, #3932160	; 0x3c0000
 8002562:	fa91 f1a1 	rbit	r1, r1
      break;
    }
    case RCC_SYSCLKSOURCE_STATUS_PLLCLK:  /* PLL used as system clock */
    {
      pllmul = aPLLMULFactorTable[(uint32_t)(tmpreg & RCC_CFGR_PLLMUL) >> POSITION_VAL(RCC_CFGR_PLLMUL)];
 8002566:	fab1 f181 	clz	r1, r1
 800256a:	f402 1070 	and.w	r0, r2, #3932160	; 0x3c0000
 800256e:	40c8      	lsrs	r0, r1
 8002570:	4c1f      	ldr	r4, [pc, #124]	; (80025f0 <HAL_RCC_ClockConfig+0x1d8>)
      prediv = aPredivFactorTable[(uint32_t)(RCC->CFGR2 & RCC_CFGR2_PREDIV) >> POSITION_VAL(RCC_CFGR2_PREDIV)];
 8002572:	6ad9      	ldr	r1, [r3, #44]	; 0x2c
      pllmul = aPLLMULFactorTable[(uint32_t)(tmpreg & RCC_CFGR_PLLMUL) >> POSITION_VAL(RCC_CFGR_PLLMUL)];
 8002574:	5c23      	ldrb	r3, [r4, r0]
 8002576:	200f      	movs	r0, #15
 8002578:	fa90 f0a0 	rbit	r0, r0
      prediv = aPredivFactorTable[(uint32_t)(RCC->CFGR2 & RCC_CFGR2_PREDIV) >> POSITION_VAL(RCC_CFGR2_PREDIV)];
 800257c:	fab0 f080 	clz	r0, r0
 8002580:	f001 010f 	and.w	r1, r1, #15
 8002584:	40c1      	lsrs	r1, r0
 8002586:	481b      	ldr	r0, [pc, #108]	; (80025f4 <HAL_RCC_ClockConfig+0x1dc>)
#if defined(RCC_CFGR_PLLSRC_HSI_DIV2)
      if ((tmpreg & RCC_CFGR_PLLSRC) != RCC_PLLSOURCE_HSI)
 8002588:	03d2      	lsls	r2, r2, #15
      prediv = aPredivFactorTable[(uint32_t)(RCC->CFGR2 & RCC_CFGR2_PREDIV) >> POSITION_VAL(RCC_CFGR2_PREDIV)];
 800258a:	5c40      	ldrb	r0, [r0, r1]
      {
        /* HSE used as PLL clock source : PLLCLK = HSE/PREDIV * PLLMUL */
        pllclk = (HSE_VALUE / prediv) * pllmul;
 800258c:	bf4a      	itet	mi
 800258e:	4915      	ldrmi	r1, [pc, #84]	; (80025e4 <HAL_RCC_ClockConfig+0x1cc>)
      }
      else
      {
        /* HSI used as PLL clock source : PLLCLK = HSI/2 * PLLMUL */
        pllclk = (HSI_VALUE >> 1U) * pllmul;
 8002590:	4919      	ldrpl	r1, [pc, #100]	; (80025f8 <HAL_RCC_ClockConfig+0x1e0>)
        pllclk = (HSE_VALUE / prediv) * pllmul;
 8002592:	fbb1 f1f0 	udivmi	r1, r1, r0
        pllclk = (HSI_VALUE >> 1U) * pllmul;
 8002596:	fb01 f103 	mul.w	r1, r1, r3
 800259a:	e7ca      	b.n	8002532 <HAL_RCC_ClockConfig+0x11a>
        if((HAL_GetTick() - tickstart ) > CLOCKSWITCH_TIMEOUT_VALUE)
 800259c:	f7fe fcd4 	bl	8000f48 <HAL_GetTick>
 80025a0:	1bc0      	subs	r0, r0, r7
 80025a2:	4540      	cmp	r0, r8
 80025a4:	d805      	bhi.n	80025b2 <HAL_RCC_ClockConfig+0x19a>
      while (__HAL_RCC_GET_SYSCLK_SOURCE() != RCC_SYSCLKSOURCE_STATUS_PLLCLK)
 80025a6:	686b      	ldr	r3, [r5, #4]
 80025a8:	f003 030c 	and.w	r3, r3, #12
 80025ac:	2b08      	cmp	r3, #8
 80025ae:	d1f5      	bne.n	800259c <HAL_RCC_ClockConfig+0x184>
 80025b0:	e786      	b.n	80024c0 <HAL_RCC_ClockConfig+0xa8>
          return HAL_TIMEOUT;
 80025b2:	2003      	movs	r0, #3
 80025b4:	e8bd 81f0 	ldmia.w	sp!, {r4, r5, r6, r7, r8, pc}
 80025b8:	f44f 3300 	mov.w	r3, #131072	; 0x20000
 80025bc:	fa93 f1a3 	rbit	r1, r3
      if(__HAL_RCC_GET_FLAG(RCC_FLAG_HSERDY) == RESET)
 80025c0:	4907      	ldr	r1, [pc, #28]	; (80025e0 <HAL_RCC_ClockConfig+0x1c8>)
 80025c2:	6809      	ldr	r1, [r1, #0]
 80025c4:	fa93 f3a3 	rbit	r3, r3
 80025c8:	fab3 f383 	clz	r3, r3
 80025cc:	f003 031f 	and.w	r3, r3, #31
 80025d0:	fa02 f303 	lsl.w	r3, r2, r3
 80025d4:	420b      	tst	r3, r1
 80025d6:	f47f af59 	bne.w	800248c <HAL_RCC_ClockConfig+0x74>
 80025da:	e781      	b.n	80024e0 <HAL_RCC_ClockConfig+0xc8>
 80025dc:	40022000 	.word	0x40022000
 80025e0:	40021000 	.word	0x40021000
 80025e4:	007a1200 	.word	0x007a1200
 80025e8:	08005774 	.word	0x08005774
 80025ec:	20000000 	.word	0x20000000
 80025f0:	08005720 	.word	0x08005720
 80025f4:	08005730 	.word	0x08005730
 80025f8:	003d0900 	.word	0x003d0900

080025fc <HAL_RCC_GetSysClockFreq>:
  tmpreg = RCC->CFGR;
 80025fc:	4a14      	ldr	r2, [pc, #80]	; (8002650 <HAL_RCC_GetSysClockFreq+0x54>)
 80025fe:	6853      	ldr	r3, [r2, #4]
  switch (tmpreg & RCC_CFGR_SWS)
 8002600:	f003 010c 	and.w	r1, r3, #12
 8002604:	2908      	cmp	r1, #8
 8002606:	d121      	bne.n	800264c <HAL_RCC_GetSysClockFreq+0x50>
 8002608:	f44f 1170 	mov.w	r1, #3932160	; 0x3c0000
 800260c:	fa91 f1a1 	rbit	r1, r1
      pllmul = aPLLMULFactorTable[(uint32_t)(tmpreg & RCC_CFGR_PLLMUL) >> POSITION_VAL(RCC_CFGR_PLLMUL)];
 8002610:	f403 1070 	and.w	r0, r3, #3932160	; 0x3c0000
 8002614:	fab1 f181 	clz	r1, r1
 8002618:	fa20 f101 	lsr.w	r1, r0, r1
 800261c:	480d      	ldr	r0, [pc, #52]	; (8002654 <HAL_RCC_GetSysClockFreq+0x58>)
      prediv = aPredivFactorTable[(uint32_t)(RCC->CFGR2 & RCC_CFGR2_PREDIV) >> POSITION_VAL(RCC_CFGR2_PREDIV)];
 800261e:	6ad2      	ldr	r2, [r2, #44]	; 0x2c
      pllmul = aPLLMULFactorTable[(uint32_t)(tmpreg & RCC_CFGR_PLLMUL) >> POSITION_VAL(RCC_CFGR_PLLMUL)];
 8002620:	5c40      	ldrb	r0, [r0, r1]
 8002622:	210f      	movs	r1, #15
 8002624:	fa91 f1a1 	rbit	r1, r1
      if ((tmpreg & RCC_CFGR_PLLSRC) != RCC_PLLSOURCE_HSI)
 8002628:	03db      	lsls	r3, r3, #15
      prediv = aPredivFactorTable[(uint32_t)(RCC->CFGR2 & RCC_CFGR2_PREDIV) >> POSITION_VAL(RCC_CFGR2_PREDIV)];
 800262a:	fab1 f181 	clz	r1, r1
 800262e:	f002 020f 	and.w	r2, r2, #15
        pllclk = (HSE_VALUE / prediv) * pllmul;
 8002632:	bf4c      	ite	mi
 8002634:	4b08      	ldrmi	r3, [pc, #32]	; (8002658 <HAL_RCC_GetSysClockFreq+0x5c>)
        pllclk = (HSI_VALUE >> 1U) * pllmul;
 8002636:	4b09      	ldrpl	r3, [pc, #36]	; (800265c <HAL_RCC_GetSysClockFreq+0x60>)
      prediv = aPredivFactorTable[(uint32_t)(RCC->CFGR2 & RCC_CFGR2_PREDIV) >> POSITION_VAL(RCC_CFGR2_PREDIV)];
 8002638:	fa22 f201 	lsr.w	r2, r2, r1
 800263c:	4908      	ldr	r1, [pc, #32]	; (8002660 <HAL_RCC_GetSysClockFreq+0x64>)
 800263e:	5c8a      	ldrb	r2, [r1, r2]
        pllclk = (HSE_VALUE / prediv) * pllmul;
 8002640:	bf48      	it	mi
 8002642:	fbb3 f3f2 	udivmi	r3, r3, r2
        pllclk = (HSI_VALUE >> 1U) * pllmul;
 8002646:	fb03 f000 	mul.w	r0, r3, r0
 800264a:	4770      	bx	lr
      sysclockfreq = HSE_VALUE;
 800264c:	4802      	ldr	r0, [pc, #8]	; (8002658 <HAL_RCC_GetSysClockFreq+0x5c>)
      sysclockfreq = HSI_VALUE;
      break;
    }
  }
  return sysclockfreq;
}
 800264e:	4770      	bx	lr
 8002650:	40021000 	.word	0x40021000
 8002654:	08005720 	.word	0x08005720
 8002658:	007a1200 	.word	0x007a1200
 800265c:	003d0900 	.word	0x003d0900
 8002660:	08005730 	.word	0x08005730

08002664 <HAL_RCC_GetHCLKFreq>:
  *         and updated within this function
  * @retval HCLK frequency
  */
uint32_t HAL_RCC_GetHCLKFreq(void)
{
  return SystemCoreClock;
 8002664:	4b01      	ldr	r3, [pc, #4]	; (800266c <HAL_RCC_GetHCLKFreq+0x8>)
}
 8002666:	6818      	ldr	r0, [r3, #0]
 8002668:	4770      	bx	lr
 800266a:	bf00      	nop
 800266c:	20000000 	.word	0x20000000

08002670 <HAL_RCC_GetPCLK1Freq>:
  * @retval PCLK1 frequency
  */
uint32_t HAL_RCC_GetPCLK1Freq(void)
{
  /* Get HCLK source and Compute PCLK1 frequency ---------------------------*/
  return (HAL_RCC_GetHCLKFreq() >> APBPrescTable[(RCC->CFGR & RCC_CFGR_PPRE1) >> RCC_CFGR_PPRE1_BITNUMBER]);
 8002670:	4b08      	ldr	r3, [pc, #32]	; (8002694 <HAL_RCC_GetPCLK1Freq+0x24>)
 8002672:	f44f 62e0 	mov.w	r2, #1792	; 0x700
 8002676:	685b      	ldr	r3, [r3, #4]
 8002678:	fa92 f2a2 	rbit	r2, r2
 800267c:	fab2 f282 	clz	r2, r2
 8002680:	f403 63e0 	and.w	r3, r3, #1792	; 0x700
 8002684:	40d3      	lsrs	r3, r2
 8002686:	4904      	ldr	r1, [pc, #16]	; (8002698 <HAL_RCC_GetPCLK1Freq+0x28>)
  return SystemCoreClock;
 8002688:	4a04      	ldr	r2, [pc, #16]	; (800269c <HAL_RCC_GetPCLK1Freq+0x2c>)
  return (HAL_RCC_GetHCLKFreq() >> APBPrescTable[(RCC->CFGR & RCC_CFGR_PPRE1) >> RCC_CFGR_PPRE1_BITNUMBER]);
 800268a:	5ccb      	ldrb	r3, [r1, r3]
 800268c:	6810      	ldr	r0, [r2, #0]
}    
 800268e:	40d8      	lsrs	r0, r3
 8002690:	4770      	bx	lr
 8002692:	bf00      	nop
 8002694:	40021000 	.word	0x40021000
 8002698:	08005784 	.word	0x08005784
 800269c:	20000000 	.word	0x20000000

080026a0 <HAL_RCC_GetPCLK2Freq>:
  * @retval PCLK2 frequency
  */
uint32_t HAL_RCC_GetPCLK2Freq(void)
{
  /* Get HCLK source and Compute PCLK2 frequency ---------------------------*/
  return (HAL_RCC_GetHCLKFreq()>> APBPrescTable[(RCC->CFGR & RCC_CFGR_PPRE2) >> RCC_CFGR_PPRE2_BITNUMBER]);
 80026a0:	4b08      	ldr	r3, [pc, #32]	; (80026c4 <HAL_RCC_GetPCLK2Freq+0x24>)
 80026a2:	f44f 5260 	mov.w	r2, #14336	; 0x3800
 80026a6:	685b      	ldr	r3, [r3, #4]
 80026a8:	fa92 f2a2 	rbit	r2, r2
 80026ac:	fab2 f282 	clz	r2, r2
 80026b0:	f403 5360 	and.w	r3, r3, #14336	; 0x3800
 80026b4:	40d3      	lsrs	r3, r2
 80026b6:	4904      	ldr	r1, [pc, #16]	; (80026c8 <HAL_RCC_GetPCLK2Freq+0x28>)
  return SystemCoreClock;
 80026b8:	4a04      	ldr	r2, [pc, #16]	; (80026cc <HAL_RCC_GetPCLK2Freq+0x2c>)
  return (HAL_RCC_GetHCLKFreq()>> APBPrescTable[(RCC->CFGR & RCC_CFGR_PPRE2) >> RCC_CFGR_PPRE2_BITNUMBER]);
 80026ba:	5ccb      	ldrb	r3, [r1, r3]
 80026bc:	6810      	ldr	r0, [r2, #0]
} 
 80026be:	40d8      	lsrs	r0, r3
 80026c0:	4770      	bx	lr
 80026c2:	bf00      	nop
 80026c4:	40021000 	.word	0x40021000
 80026c8:	08005784 	.word	0x08005784
 80026cc:	20000000 	.word	0x20000000

080026d0 <HAL_RCCEx_PeriphCLKConfig>:
  *         the backup registers) and RCC_BDCR register are set to their reset values.
  *
  * @retval HAL status
  */
HAL_StatusTypeDef HAL_RCCEx_PeriphCLKConfig(RCC_PeriphCLKInitTypeDef  *PeriphClkInit)
{
 80026d0:	e92d 43f0 	stmdb	sp!, {r4, r5, r6, r7, r8, r9, lr}
 80026d4:	4604      	mov	r4, r0
    
  /* Check the parameters */
  assert_param(IS_RCC_PERIPHCLOCK(PeriphClkInit->PeriphClockSelection));
  
  /*---------------------------- RTC configuration -------------------------------*/
  if(((PeriphClkInit->PeriphClockSelection) & RCC_PERIPHCLK_RTC) == (RCC_PERIPHCLK_RTC))
 80026d6:	6800      	ldr	r0, [r0, #0]
 80026d8:	03c5      	lsls	r5, r0, #15
{
 80026da:	b083      	sub	sp, #12
  if(((PeriphClkInit->PeriphClockSelection) & RCC_PERIPHCLK_RTC) == (RCC_PERIPHCLK_RTC))
 80026dc:	d538      	bpl.n	8002750 <HAL_RCCEx_PeriphCLKConfig+0x80>
    FlagStatus       pwrclkchanged = RESET;

    /* As soon as function is called to change RTC clock source, activation of the 
       power domain is done. */
    /* Requires to enable write access to Backup Domain of necessary */
    if(__HAL_RCC_PWR_IS_CLK_DISABLED())
 80026de:	4b5a      	ldr	r3, [pc, #360]	; (8002848 <HAL_RCCEx_PeriphCLKConfig+0x178>)
 80026e0:	69da      	ldr	r2, [r3, #28]
 80026e2:	00d1      	lsls	r1, r2, #3
 80026e4:	d567      	bpl.n	80027b6 <HAL_RCCEx_PeriphCLKConfig+0xe6>
    {
      __HAL_RCC_PWR_CLK_ENABLE();
      pwrclkchanged = SET;
    }
    
    if(HAL_IS_BIT_CLR(PWR->CR, PWR_CR_DBP))
 80026e6:	4d59      	ldr	r5, [pc, #356]	; (800284c <HAL_RCCEx_PeriphCLKConfig+0x17c>)
 80026e8:	682b      	ldr	r3, [r5, #0]
 80026ea:	05da      	lsls	r2, r3, #23
    FlagStatus       pwrclkchanged = RESET;
 80026ec:	f04f 0600 	mov.w	r6, #0
    if(HAL_IS_BIT_CLR(PWR->CR, PWR_CR_DBP))
 80026f0:	d570      	bpl.n	80027d4 <HAL_RCCEx_PeriphCLKConfig+0x104>
        }
      }
    }
    
    /* Reset the Backup domain only if the RTC Clock source selection is modified from reset value */ 
    temp_reg = (RCC->BDCR & RCC_BDCR_RTCSEL);
 80026f2:	4d55      	ldr	r5, [pc, #340]	; (8002848 <HAL_RCCEx_PeriphCLKConfig+0x178>)
 80026f4:	6a2b      	ldr	r3, [r5, #32]
    if((temp_reg != 0x00000000U) && (temp_reg != (PeriphClkInit->RTCClockSelection & RCC_BDCR_RTCSEL)))
 80026f6:	f413 7340 	ands.w	r3, r3, #768	; 0x300
 80026fa:	d01f      	beq.n	800273c <HAL_RCCEx_PeriphCLKConfig+0x6c>
 80026fc:	6861      	ldr	r1, [r4, #4]
 80026fe:	f401 7240 	and.w	r2, r1, #768	; 0x300
 8002702:	4293      	cmp	r3, r2
 8002704:	d01b      	beq.n	800273e <HAL_RCCEx_PeriphCLKConfig+0x6e>
    {
      /* Store the content of BDCR register before the reset of Backup Domain */
      temp_reg = (RCC->BDCR & ~(RCC_BDCR_RTCSEL));
 8002706:	6a29      	ldr	r1, [r5, #32]
 8002708:	f44f 3380 	mov.w	r3, #65536	; 0x10000
 800270c:	f421 7040 	bic.w	r0, r1, #768	; 0x300
 8002710:	fa93 f2a3 	rbit	r2, r3
      /* RTC Clock selection can be changed only if the Backup Domain is reset */
      __HAL_RCC_BACKUPRESET_FORCE();
 8002714:	4f4e      	ldr	r7, [pc, #312]	; (8002850 <HAL_RCCEx_PeriphCLKConfig+0x180>)
 8002716:	fab2 f282 	clz	r2, r2
 800271a:	443a      	add	r2, r7
 800271c:	0092      	lsls	r2, r2, #2
 800271e:	f04f 0e01 	mov.w	lr, #1
 8002722:	f8c2 e000 	str.w	lr, [r2]
 8002726:	fa93 f3a3 	rbit	r3, r3
      __HAL_RCC_BACKUPRESET_RELEASE();
 800272a:	fab3 f383 	clz	r3, r3
 800272e:	443b      	add	r3, r7
 8002730:	009b      	lsls	r3, r3, #2
 8002732:	2200      	movs	r2, #0
      /* Restore the Content of BDCR register */
      RCC->BDCR = temp_reg;
    
      /* Wait for LSERDY if LSE was enabled */
      if (HAL_IS_BIT_SET(temp_reg, RCC_BDCR_LSEON))
 8002734:	07cf      	lsls	r7, r1, #31
      __HAL_RCC_BACKUPRESET_RELEASE();
 8002736:	601a      	str	r2, [r3, #0]
      RCC->BDCR = temp_reg;
 8002738:	6228      	str	r0, [r5, #32]
      if (HAL_IS_BIT_SET(temp_reg, RCC_BDCR_LSEON))
 800273a:	d461      	bmi.n	8002800 <HAL_RCCEx_PeriphCLKConfig+0x130>
 800273c:	6861      	ldr	r1, [r4, #4]
            return HAL_TIMEOUT;
          }      
        }  
      }
    }
    __HAL_RCC_RTC_CONFIG(PeriphClkInit->RTCClockSelection); 
 800273e:	4a42      	ldr	r2, [pc, #264]	; (8002848 <HAL_RCCEx_PeriphCLKConfig+0x178>)
 8002740:	6a13      	ldr	r3, [r2, #32]
 8002742:	f423 7340 	bic.w	r3, r3, #768	; 0x300
 8002746:	430b      	orrs	r3, r1
 8002748:	6213      	str	r3, [r2, #32]

    /* Require to disable power clock if necessary */
    if(pwrclkchanged == SET)
 800274a:	2e00      	cmp	r6, #0
 800274c:	d153      	bne.n	80027f6 <HAL_RCCEx_PeriphCLKConfig+0x126>
 800274e:	6820      	ldr	r0, [r4, #0]
      __HAL_RCC_PWR_CLK_DISABLE();
    }
  }

  /*------------------------------- USART1 Configuration ------------------------*/
  if(((PeriphClkInit->PeriphClockSelection) & RCC_PERIPHCLK_USART1) == RCC_PERIPHCLK_USART1)
 8002750:	07c5      	lsls	r5, r0, #31
 8002752:	d506      	bpl.n	8002762 <HAL_RCCEx_PeriphCLKConfig+0x92>
  {
    /* Check the parameters */
    assert_param(IS_RCC_USART1CLKSOURCE(PeriphClkInit->Usart1ClockSelection));
    
    /* Configure the USART1 clock source */
    __HAL_RCC_USART1_CONFIG(PeriphClkInit->Usart1ClockSelection);
 8002754:	4a3c      	ldr	r2, [pc, #240]	; (8002848 <HAL_RCCEx_PeriphCLKConfig+0x178>)
 8002756:	68a1      	ldr	r1, [r4, #8]
 8002758:	6b13      	ldr	r3, [r2, #48]	; 0x30
 800275a:	f023 0303 	bic.w	r3, r3, #3
 800275e:	430b      	orrs	r3, r1
 8002760:	6313      	str	r3, [r2, #48]	; 0x30
    __HAL_RCC_USART3_CONFIG(PeriphClkInit->Usart3ClockSelection);
  }
#endif /* RCC_CFGR3_USART3SW */

  /*------------------------------ I2C1 Configuration ------------------------*/ 
  if(((PeriphClkInit->PeriphClockSelection) & RCC_PERIPHCLK_I2C1) == RCC_PERIPHCLK_I2C1)
 8002762:	0681      	lsls	r1, r0, #26
 8002764:	d506      	bpl.n	8002774 <HAL_RCCEx_PeriphCLKConfig+0xa4>
  {
    /* Check the parameters */
    assert_param(IS_RCC_I2C1CLKSOURCE(PeriphClkInit->I2c1ClockSelection));
    
    /* Configure the I2C1 clock source */
    __HAL_RCC_I2C1_CONFIG(PeriphClkInit->I2c1ClockSelection);
 8002766:	4a38      	ldr	r2, [pc, #224]	; (8002848 <HAL_RCCEx_PeriphCLKConfig+0x178>)
 8002768:	68e1      	ldr	r1, [r4, #12]
 800276a:	6b13      	ldr	r3, [r2, #48]	; 0x30
 800276c:	f023 0310 	bic.w	r3, r3, #16
 8002770:	430b      	orrs	r3, r1
 8002772:	6313      	str	r3, [r2, #48]	; 0x30
#if defined(STM32F302xE) || defined(STM32F303xE) || defined(STM32F398xx)\
 || defined(STM32F302xC) || defined(STM32F303xC) || defined(STM32F358xx)\
 || defined(STM32F303x8) || defined(STM32F334x8) || defined(STM32F328xx)
      
  /*------------------------------ ADC1 & ADC2 clock Configuration -------------*/ 
  if(((PeriphClkInit->PeriphClockSelection) & RCC_PERIPHCLK_ADC12) == RCC_PERIPHCLK_ADC12)
 8002774:	0602      	lsls	r2, r0, #24
 8002776:	d506      	bpl.n	8002786 <HAL_RCCEx_PeriphCLKConfig+0xb6>
  {
    /* Check the parameters */
    assert_param(IS_RCC_ADC12PLLCLK_DIV(PeriphClkInit->Adc12ClockSelection));
    
    /* Configure the ADC12 clock source */
    __HAL_RCC_ADC12_CONFIG(PeriphClkInit->Adc12ClockSelection);
 8002778:	4a33      	ldr	r2, [pc, #204]	; (8002848 <HAL_RCCEx_PeriphCLKConfig+0x178>)
 800277a:	6921      	ldr	r1, [r4, #16]
 800277c:	6ad3      	ldr	r3, [r2, #44]	; 0x2c
 800277e:	f423 73f8 	bic.w	r3, r3, #496	; 0x1f0
 8002782:	430b      	orrs	r3, r1
 8002784:	62d3      	str	r3, [r2, #44]	; 0x2c
 || defined(STM32F302xC) || defined(STM32F303xC) || defined(STM32F358xx)\
 || defined(STM32F303x8) || defined(STM32F334x8) || defined(STM32F328xx)\
 || defined(STM32F301x8) || defined(STM32F302x8) || defined(STM32F318xx)

  /*------------------------------ TIM1 clock Configuration ----------------*/ 
  if(((PeriphClkInit->PeriphClockSelection) & RCC_PERIPHCLK_TIM1) == RCC_PERIPHCLK_TIM1)
 8002786:	04c3      	lsls	r3, r0, #19
 8002788:	d40d      	bmi.n	80027a6 <HAL_RCCEx_PeriphCLKConfig+0xd6>
#endif /* STM32F301x8 || STM32F302x8 || STM32F318xx */

#if defined(STM32F334x8)

  /*------------------------------ HRTIM1 clock Configuration ----------------*/ 
  if(((PeriphClkInit->PeriphClockSelection) & RCC_PERIPHCLK_HRTIM1) == RCC_PERIPHCLK_HRTIM1)
 800278a:	f410 4080 	ands.w	r0, r0, #16384	; 0x4000
 800278e:	d007      	beq.n	80027a0 <HAL_RCCEx_PeriphCLKConfig+0xd0>
  {
    /* Check the parameters */
    assert_param(IS_RCC_HRTIM1CLKSOURCE(PeriphClkInit->Hrtim1ClockSelection));
    
    /* Configure the HRTIM1 clock source */
    __HAL_RCC_HRTIM1_CONFIG(PeriphClkInit->Hrtim1ClockSelection);
 8002790:	4a2d      	ldr	r2, [pc, #180]	; (8002848 <HAL_RCCEx_PeriphCLKConfig+0x178>)
 8002792:	69a1      	ldr	r1, [r4, #24]
 8002794:	6b13      	ldr	r3, [r2, #48]	; 0x30
 8002796:	f423 5380 	bic.w	r3, r3, #4096	; 0x1000
 800279a:	430b      	orrs	r3, r1
 800279c:	6313      	str	r3, [r2, #48]	; 0x30
    __HAL_RCC_TIM20_CONFIG(PeriphClkInit->Tim20ClockSelection);
  }
#endif /* STM32F303xE || STM32F398xx */  

  
  return HAL_OK;
 800279e:	2000      	movs	r0, #0
}
 80027a0:	b003      	add	sp, #12
 80027a2:	e8bd 83f0 	ldmia.w	sp!, {r4, r5, r6, r7, r8, r9, pc}
    __HAL_RCC_TIM1_CONFIG(PeriphClkInit->Tim1ClockSelection);
 80027a6:	4a28      	ldr	r2, [pc, #160]	; (8002848 <HAL_RCCEx_PeriphCLKConfig+0x178>)
 80027a8:	6961      	ldr	r1, [r4, #20]
 80027aa:	6b13      	ldr	r3, [r2, #48]	; 0x30
 80027ac:	f423 7380 	bic.w	r3, r3, #256	; 0x100
 80027b0:	430b      	orrs	r3, r1
 80027b2:	6313      	str	r3, [r2, #48]	; 0x30
 80027b4:	e7e9      	b.n	800278a <HAL_RCCEx_PeriphCLKConfig+0xba>
      __HAL_RCC_PWR_CLK_ENABLE();
 80027b6:	69da      	ldr	r2, [r3, #28]
    if(HAL_IS_BIT_CLR(PWR->CR, PWR_CR_DBP))
 80027b8:	4d24      	ldr	r5, [pc, #144]	; (800284c <HAL_RCCEx_PeriphCLKConfig+0x17c>)
      __HAL_RCC_PWR_CLK_ENABLE();
 80027ba:	f042 5280 	orr.w	r2, r2, #268435456	; 0x10000000
 80027be:	61da      	str	r2, [r3, #28]
 80027c0:	69db      	ldr	r3, [r3, #28]
 80027c2:	f003 5380 	and.w	r3, r3, #268435456	; 0x10000000
 80027c6:	9301      	str	r3, [sp, #4]
 80027c8:	9b01      	ldr	r3, [sp, #4]
    if(HAL_IS_BIT_CLR(PWR->CR, PWR_CR_DBP))
 80027ca:	682b      	ldr	r3, [r5, #0]
 80027cc:	05da      	lsls	r2, r3, #23
      pwrclkchanged = SET;
 80027ce:	f04f 0601 	mov.w	r6, #1
    if(HAL_IS_BIT_CLR(PWR->CR, PWR_CR_DBP))
 80027d2:	d48e      	bmi.n	80026f2 <HAL_RCCEx_PeriphCLKConfig+0x22>
      SET_BIT(PWR->CR, PWR_CR_DBP);
 80027d4:	682b      	ldr	r3, [r5, #0]
 80027d6:	f443 7380 	orr.w	r3, r3, #256	; 0x100
 80027da:	602b      	str	r3, [r5, #0]
      tickstart = HAL_GetTick();
 80027dc:	f7fe fbb4 	bl	8000f48 <HAL_GetTick>
 80027e0:	4607      	mov	r7, r0
      while(HAL_IS_BIT_CLR(PWR->CR, PWR_CR_DBP))
 80027e2:	682b      	ldr	r3, [r5, #0]
 80027e4:	05db      	lsls	r3, r3, #23
 80027e6:	d484      	bmi.n	80026f2 <HAL_RCCEx_PeriphCLKConfig+0x22>
          if((HAL_GetTick() - tickstart) > RCC_DBP_TIMEOUT_VALUE)
 80027e8:	f7fe fbae 	bl	8000f48 <HAL_GetTick>
 80027ec:	1bc0      	subs	r0, r0, r7
 80027ee:	2864      	cmp	r0, #100	; 0x64
 80027f0:	d9f7      	bls.n	80027e2 <HAL_RCCEx_PeriphCLKConfig+0x112>
          return HAL_TIMEOUT;
 80027f2:	2003      	movs	r0, #3
 80027f4:	e7d4      	b.n	80027a0 <HAL_RCCEx_PeriphCLKConfig+0xd0>
      __HAL_RCC_PWR_CLK_DISABLE();
 80027f6:	69d3      	ldr	r3, [r2, #28]
 80027f8:	f023 5380 	bic.w	r3, r3, #268435456	; 0x10000000
 80027fc:	61d3      	str	r3, [r2, #28]
 80027fe:	e7a6      	b.n	800274e <HAL_RCCEx_PeriphCLKConfig+0x7e>
        while(__HAL_RCC_GET_FLAG(RCC_FLAG_LSERDY) == RESET)
 8002800:	4677      	mov	r7, lr
        tickstart = HAL_GetTick();
 8002802:	f7fe fba1 	bl	8000f48 <HAL_GetTick>
 8002806:	f04f 0902 	mov.w	r9, #2
 800280a:	4680      	mov	r8, r0
        while(__HAL_RCC_GET_FLAG(RCC_FLAG_LSERDY) == RESET)
 800280c:	e014      	b.n	8002838 <HAL_RCCEx_PeriphCLKConfig+0x168>
 800280e:	fa99 f3a9 	rbit	r3, r9
 8002812:	6a6a      	ldr	r2, [r5, #36]	; 0x24
 8002814:	fa99 f3a9 	rbit	r3, r9
 8002818:	fab3 f383 	clz	r3, r3
 800281c:	f003 031f 	and.w	r3, r3, #31
 8002820:	fa07 f303 	lsl.w	r3, r7, r3
 8002824:	4213      	tst	r3, r2
 8002826:	d189      	bne.n	800273c <HAL_RCCEx_PeriphCLKConfig+0x6c>
            if((HAL_GetTick() - tickstart) > RCC_LSE_TIMEOUT_VALUE)
 8002828:	f7fe fb8e 	bl	8000f48 <HAL_GetTick>
 800282c:	f241 3388 	movw	r3, #5000	; 0x1388
 8002830:	eba0 0008 	sub.w	r0, r0, r8
 8002834:	4298      	cmp	r0, r3
 8002836:	d8dc      	bhi.n	80027f2 <HAL_RCCEx_PeriphCLKConfig+0x122>
 8002838:	fa99 f3a9 	rbit	r3, r9
 800283c:	fa99 f3a9 	rbit	r3, r9
        while(__HAL_RCC_GET_FLAG(RCC_FLAG_LSERDY) == RESET)
 8002840:	2b00      	cmp	r3, #0
 8002842:	d0e4      	beq.n	800280e <HAL_RCCEx_PeriphCLKConfig+0x13e>
 8002844:	6a2a      	ldr	r2, [r5, #32]
 8002846:	e7e5      	b.n	8002814 <HAL_RCCEx_PeriphCLKConfig+0x144>
 8002848:	40021000 	.word	0x40021000
 800284c:	40007000 	.word	0x40007000
 8002850:	10908100 	.word	0x10908100

08002854 <HAL_RTC_Init>:
  * @retval HAL status
  */
HAL_StatusTypeDef HAL_RTC_Init(RTC_HandleTypeDef *hrtc)
{
  /* Check the RTC peripheral state */
  if(hrtc == NULL)
 8002854:	2800      	cmp	r0, #0
 8002856:	d067      	beq.n	8002928 <HAL_RTC_Init+0xd4>
{
 8002858:	b5f8      	push	{r3, r4, r5, r6, r7, lr}
  assert_param(IS_RTC_SYNCH_PREDIV(hrtc->Init.SynchPrediv));
  assert_param(IS_RTC_OUTPUT(hrtc->Init.OutPut));
  assert_param(IS_RTC_OUTPUT_POL(hrtc->Init.OutPutPolarity));
  assert_param(IS_RTC_OUTPUT_TYPE(hrtc->Init.OutPutType));
    
  if(hrtc->State == HAL_RTC_STATE_RESET)
 800285a:	7f43      	ldrb	r3, [r0, #29]
 800285c:	4604      	mov	r4, r0
 800285e:	f003 02ff 	and.w	r2, r3, #255	; 0xff
 8002862:	2b00      	cmp	r3, #0
 8002864:	d04a      	beq.n	80028fc <HAL_RTC_Init+0xa8>
  
  /* Set RTC state */  
  hrtc->State = HAL_RTC_STATE_BUSY;  
       
  /* Disable the write protection for RTC registers */
  __HAL_RTC_WRITEPROTECTION_DISABLE(hrtc);
 8002866:	6823      	ldr	r3, [r4, #0]
 8002868:	2253      	movs	r2, #83	; 0x53
  hrtc->State = HAL_RTC_STATE_BUSY;  
 800286a:	2002      	movs	r0, #2
  __HAL_RTC_WRITEPROTECTION_DISABLE(hrtc);
 800286c:	21ca      	movs	r1, #202	; 0xca
  hrtc->State = HAL_RTC_STATE_BUSY;  
 800286e:	7760      	strb	r0, [r4, #29]
  __HAL_RTC_WRITEPROTECTION_DISABLE(hrtc);
 8002870:	6259      	str	r1, [r3, #36]	; 0x24
 8002872:	625a      	str	r2, [r3, #36]	; 0x24
HAL_StatusTypeDef RTC_EnterInitMode(RTC_HandleTypeDef* hrtc)
{
  uint32_t tickstart = 0U;
  
  /* Check if the Initialization mode is set */
  if((hrtc->Instance->ISR & RTC_ISR_INITF) == (uint32_t)RESET)
 8002874:	68da      	ldr	r2, [r3, #12]
 8002876:	0655      	lsls	r5, r2, #25
 8002878:	d529      	bpl.n	80028ce <HAL_RTC_Init+0x7a>
    hrtc->Instance->CR &= ((uint32_t)~(RTC_CR_FMT | RTC_CR_OSEL | RTC_CR_POL));
 800287a:	6899      	ldr	r1, [r3, #8]
    hrtc->Instance->CR |= (uint32_t)(hrtc->Init.HourFormat | hrtc->Init.OutPut | hrtc->Init.OutPutPolarity);
 800287c:	6862      	ldr	r2, [r4, #4]
 800287e:	6927      	ldr	r7, [r4, #16]
 8002880:	6966      	ldr	r6, [r4, #20]
    hrtc->Instance->PRER |= (uint32_t)(hrtc->Init.AsynchPrediv << 16U);
 8002882:	68a0      	ldr	r0, [r4, #8]
    hrtc->Instance->PRER = (uint32_t)(hrtc->Init.SynchPrediv);
 8002884:	68e5      	ldr	r5, [r4, #12]
    hrtc->Instance->CR &= ((uint32_t)~(RTC_CR_FMT | RTC_CR_OSEL | RTC_CR_POL));
 8002886:	f421 01e0 	bic.w	r1, r1, #7340032	; 0x700000
 800288a:	f021 0140 	bic.w	r1, r1, #64	; 0x40
 800288e:	6099      	str	r1, [r3, #8]
    hrtc->Instance->CR |= (uint32_t)(hrtc->Init.HourFormat | hrtc->Init.OutPut | hrtc->Init.OutPutPolarity);
 8002890:	6899      	ldr	r1, [r3, #8]
 8002892:	433a      	orrs	r2, r7
 8002894:	4332      	orrs	r2, r6
 8002896:	430a      	orrs	r2, r1
 8002898:	609a      	str	r2, [r3, #8]
    hrtc->Instance->PRER = (uint32_t)(hrtc->Init.SynchPrediv);
 800289a:	611d      	str	r5, [r3, #16]
    hrtc->Instance->PRER |= (uint32_t)(hrtc->Init.AsynchPrediv << 16U);
 800289c:	691a      	ldr	r2, [r3, #16]
 800289e:	ea42 4200 	orr.w	r2, r2, r0, lsl #16
 80028a2:	611a      	str	r2, [r3, #16]
    hrtc->Instance->ISR &= (uint32_t)~RTC_ISR_INIT;
 80028a4:	68da      	ldr	r2, [r3, #12]
 80028a6:	f022 0280 	bic.w	r2, r2, #128	; 0x80
 80028aa:	60da      	str	r2, [r3, #12]
    if((hrtc->Instance->CR & RTC_CR_BYPSHAD) == RESET)
 80028ac:	689a      	ldr	r2, [r3, #8]
 80028ae:	0692      	lsls	r2, r2, #26
 80028b0:	d528      	bpl.n	8002904 <HAL_RTC_Init+0xb0>
    hrtc->Instance->TAFCR &= (uint32_t)~RTC_TAFCR_ALARMOUTTYPE;
 80028b2:	6c19      	ldr	r1, [r3, #64]	; 0x40
    hrtc->Instance->TAFCR |= (uint32_t)(hrtc->Init.OutPutType); 
 80028b4:	69a0      	ldr	r0, [r4, #24]
    hrtc->Instance->TAFCR &= (uint32_t)~RTC_TAFCR_ALARMOUTTYPE;
 80028b6:	f421 2180 	bic.w	r1, r1, #262144	; 0x40000
 80028ba:	6419      	str	r1, [r3, #64]	; 0x40
    hrtc->Instance->TAFCR |= (uint32_t)(hrtc->Init.OutPutType); 
 80028bc:	6c1a      	ldr	r2, [r3, #64]	; 0x40
    __HAL_RTC_WRITEPROTECTION_ENABLE(hrtc); 
 80028be:	25ff      	movs	r5, #255	; 0xff
    hrtc->Instance->TAFCR |= (uint32_t)(hrtc->Init.OutPutType); 
 80028c0:	4302      	orrs	r2, r0
    hrtc->State = HAL_RTC_STATE_READY;
 80028c2:	2101      	movs	r1, #1
    hrtc->Instance->TAFCR |= (uint32_t)(hrtc->Init.OutPutType); 
 80028c4:	641a      	str	r2, [r3, #64]	; 0x40
    return HAL_OK;
 80028c6:	2000      	movs	r0, #0
    __HAL_RTC_WRITEPROTECTION_ENABLE(hrtc); 
 80028c8:	625d      	str	r5, [r3, #36]	; 0x24
    hrtc->State = HAL_RTC_STATE_READY;
 80028ca:	7761      	strb	r1, [r4, #29]
    return HAL_OK;
 80028cc:	bdf8      	pop	{r3, r4, r5, r6, r7, pc}
  {
    /* Set the Initialization mode */
    hrtc->Instance->ISR = (uint32_t)RTC_INIT_MASK;
 80028ce:	f04f 32ff 	mov.w	r2, #4294967295
 80028d2:	60da      	str	r2, [r3, #12]
    
    tickstart = HAL_GetTick();
 80028d4:	f7fe fb38 	bl	8000f48 <HAL_GetTick>
 80028d8:	4605      	mov	r5, r0
    /* Wait till RTC is in INIT state and if Time out is reached exit */
    while((hrtc->Instance->ISR & RTC_ISR_INITF) == (uint32_t)RESET)
 80028da:	6823      	ldr	r3, [r4, #0]
 80028dc:	68da      	ldr	r2, [r3, #12]
 80028de:	0650      	lsls	r0, r2, #25
 80028e0:	d4cb      	bmi.n	800287a <HAL_RTC_Init+0x26>
    {
      if((HAL_GetTick()-tickstart) > RTC_TIMEOUT_VALUE)
 80028e2:	f7fe fb31 	bl	8000f48 <HAL_GetTick>
 80028e6:	1b40      	subs	r0, r0, r5
 80028e8:	f5b0 7f7a 	cmp.w	r0, #1000	; 0x3e8
 80028ec:	d9f5      	bls.n	80028da <HAL_RTC_Init+0x86>
        __HAL_RTC_WRITEPROTECTION_ENABLE(hrtc);
 80028ee:	6822      	ldr	r2, [r4, #0]
 80028f0:	21ff      	movs	r1, #255	; 0xff
        hrtc->State = HAL_RTC_STATE_ERROR;
 80028f2:	2304      	movs	r3, #4
        __HAL_RTC_WRITEPROTECTION_ENABLE(hrtc);
 80028f4:	6251      	str	r1, [r2, #36]	; 0x24
        return HAL_ERROR;
 80028f6:	2001      	movs	r0, #1
        hrtc->State = HAL_RTC_STATE_ERROR;
 80028f8:	7763      	strb	r3, [r4, #29]
}
 80028fa:	bdf8      	pop	{r3, r4, r5, r6, r7, pc}
    hrtc->Lock = HAL_UNLOCKED;
 80028fc:	7702      	strb	r2, [r0, #28]
    HAL_RTC_MspInit(hrtc);
 80028fe:	f001 fcc1 	bl	8004284 <HAL_RTC_MspInit>
 8002902:	e7b0      	b.n	8002866 <HAL_RTC_Init+0x12>
  hrtc->Instance->ISR &= (uint32_t)RTC_RSF_MASK;
 8002904:	68da      	ldr	r2, [r3, #12]
 8002906:	f022 02a0 	bic.w	r2, r2, #160	; 0xa0
 800290a:	60da      	str	r2, [r3, #12]
  tickstart = HAL_GetTick();
 800290c:	f7fe fb1c 	bl	8000f48 <HAL_GetTick>
 8002910:	4605      	mov	r5, r0
  while((hrtc->Instance->ISR & RTC_ISR_RSF) == (uint32_t)RESET)
 8002912:	6823      	ldr	r3, [r4, #0]
 8002914:	68da      	ldr	r2, [r3, #12]
 8002916:	0691      	lsls	r1, r2, #26
 8002918:	d4cb      	bmi.n	80028b2 <HAL_RTC_Init+0x5e>
    if((HAL_GetTick()-tickstart) > RTC_TIMEOUT_VALUE)
 800291a:	f7fe fb15 	bl	8000f48 <HAL_GetTick>
 800291e:	1b40      	subs	r0, r0, r5
 8002920:	f5b0 7f7a 	cmp.w	r0, #1000	; 0x3e8
 8002924:	d9f5      	bls.n	8002912 <HAL_RTC_Init+0xbe>
 8002926:	e7e2      	b.n	80028ee <HAL_RTC_Init+0x9a>
     return HAL_ERROR;
 8002928:	2001      	movs	r0, #1
 800292a:	4770      	bx	lr

0800292c <HAL_TIM_Base_Init>:
  * @retval HAL status
  */
HAL_StatusTypeDef HAL_TIM_Base_Init(TIM_HandleTypeDef *htim)
{ 
  /* Check the TIM handle allocation */
  if(htim == NULL)
 800292c:	2800      	cmp	r0, #0
 800292e:	d066      	beq.n	80029fe <HAL_TIM_Base_Init+0xd2>
{ 
 8002930:	b5f8      	push	{r3, r4, r5, r6, r7, lr}
  assert_param(IS_TIM_INSTANCE(htim->Instance)); 
  assert_param(IS_TIM_COUNTER_MODE(htim->Init.CounterMode));
  assert_param(IS_TIM_CLOCKDIVISION_DIV(htim->Init.ClockDivision));
  assert_param(IS_TIM_AUTORELOAD_PRELOAD(htim->Init.AutoReloadPreload));
  
  if(htim->State == HAL_TIM_STATE_RESET)
 8002932:	f890 303d 	ldrb.w	r3, [r0, #61]	; 0x3d
 8002936:	4604      	mov	r4, r0
 8002938:	f003 02ff 	and.w	r2, r3, #255	; 0xff
 800293c:	2b00      	cmp	r3, #0
 800293e:	d039      	beq.n	80029b4 <HAL_TIM_Base_Init+0x88>
  
  /* Set the TIM state */
  htim->State= HAL_TIM_STATE_BUSY;
  
  /* Set the Time Base configuration */
  TIM_Base_SetConfig(htim->Instance, &htim->Init); 
 8002940:	6823      	ldr	r3, [r4, #0]
{
  uint32_t tmpcr1 = 0U;
  tmpcr1 = TIMx->CR1;
  
  /* Set TIM Time Base Unit parameters ---------------------------------------*/
  if (IS_TIM_COUNTER_MODE_SELECT_INSTANCE(TIMx))
 8002942:	4930      	ldr	r1, [pc, #192]	; (8002a04 <HAL_TIM_Base_Init+0xd8>)
  htim->State= HAL_TIM_STATE_BUSY;
 8002944:	2202      	movs	r2, #2
 8002946:	f884 203d 	strb.w	r2, [r4, #61]	; 0x3d
  if (IS_TIM_COUNTER_MODE_SELECT_INSTANCE(TIMx))
 800294a:	428b      	cmp	r3, r1
  tmpcr1 = TIMx->CR1;
 800294c:	681a      	ldr	r2, [r3, #0]
  if (IS_TIM_COUNTER_MODE_SELECT_INSTANCE(TIMx))
 800294e:	d04f      	beq.n	80029f0 <HAL_TIM_Base_Init+0xc4>
 8002950:	f1b3 4f80 	cmp.w	r3, #1073741824	; 0x40000000
 8002954:	d033      	beq.n	80029be <HAL_TIM_Base_Init+0x92>
 8002956:	f5a1 3194 	sub.w	r1, r1, #75776	; 0x12800
 800295a:	428b      	cmp	r3, r1
 800295c:	d02f      	beq.n	80029be <HAL_TIM_Base_Init+0x92>
    /* Select the Counter Mode */
    tmpcr1 &= ~(TIM_CR1_DIR | TIM_CR1_CMS);
    tmpcr1 |= Structure->CounterMode;
  }
 
  if(IS_TIM_CLOCK_DIVISION_INSTANCE(TIMx))
 800295e:	f501 319e 	add.w	r1, r1, #80896	; 0x13c00
 8002962:	428b      	cmp	r3, r1
 8002964:	d016      	beq.n	8002994 <HAL_TIM_Base_Init+0x68>
 8002966:	f501 6180 	add.w	r1, r1, #1024	; 0x400
 800296a:	428b      	cmp	r3, r1
 800296c:	d012      	beq.n	8002994 <HAL_TIM_Base_Init+0x68>
 800296e:	f501 6180 	add.w	r1, r1, #1024	; 0x400
 8002972:	428b      	cmp	r3, r1
 8002974:	d00e      	beq.n	8002994 <HAL_TIM_Base_Init+0x68>
    tmpcr1 &= ~TIM_CR1_CKD;
    tmpcr1 |= (uint32_t)Structure->ClockDivision;
  }

  /* Set the auto-reload preload */
  MODIFY_REG(tmpcr1, TIM_CR1_ARPE, Structure->AutoReloadPreload);
 8002976:	69a5      	ldr	r5, [r4, #24]

  TIMx->CR1 = tmpcr1;

  /* Set the Autoreload value */
  TIMx->ARR = (uint32_t)Structure->Period ;
 8002978:	68e0      	ldr	r0, [r4, #12]
 
  /* Set the Prescaler value */
  TIMx->PSC = (uint32_t)Structure->Prescaler;
 800297a:	6861      	ldr	r1, [r4, #4]
  MODIFY_REG(tmpcr1, TIM_CR1_ARPE, Structure->AutoReloadPreload);
 800297c:	f022 0280 	bic.w	r2, r2, #128	; 0x80
 8002980:	432a      	orrs	r2, r5
  TIMx->CR1 = tmpcr1;
 8002982:	601a      	str	r2, [r3, #0]
  TIMx->ARR = (uint32_t)Structure->Period ;
 8002984:	62d8      	str	r0, [r3, #44]	; 0x2c
  TIMx->PSC = (uint32_t)Structure->Prescaler;
 8002986:	6299      	str	r1, [r3, #40]	; 0x28
    TIMx->RCR = Structure->RepetitionCounter;
  }

  /* Generate an update event to reload the Prescaler 
     and the repetition counter(only for TIM1 and TIM8) value immediatly */
  TIMx->EGR = TIM_EGR_UG;
 8002988:	2201      	movs	r2, #1
 800298a:	615a      	str	r2, [r3, #20]
  return HAL_OK;
 800298c:	2000      	movs	r0, #0
  htim->State= HAL_TIM_STATE_READY;
 800298e:	f884 203d 	strb.w	r2, [r4, #61]	; 0x3d
  return HAL_OK;
 8002992:	bdf8      	pop	{r3, r4, r5, r6, r7, pc}
    tmpcr1 |= (uint32_t)Structure->ClockDivision;
 8002994:	6920      	ldr	r0, [r4, #16]
  MODIFY_REG(tmpcr1, TIM_CR1_ARPE, Structure->AutoReloadPreload);
 8002996:	69a1      	ldr	r1, [r4, #24]
    tmpcr1 &= ~TIM_CR1_CKD;
 8002998:	f422 7240 	bic.w	r2, r2, #768	; 0x300
    tmpcr1 |= (uint32_t)Structure->ClockDivision;
 800299c:	4302      	orrs	r2, r0
  MODIFY_REG(tmpcr1, TIM_CR1_ARPE, Structure->AutoReloadPreload);
 800299e:	f022 0280 	bic.w	r2, r2, #128	; 0x80
 80029a2:	430a      	orrs	r2, r1
  TIMx->CR1 = tmpcr1;
 80029a4:	601a      	str	r2, [r3, #0]
  TIMx->ARR = (uint32_t)Structure->Period ;
 80029a6:	68e2      	ldr	r2, [r4, #12]
 80029a8:	62da      	str	r2, [r3, #44]	; 0x2c
  TIMx->PSC = (uint32_t)Structure->Prescaler;
 80029aa:	6862      	ldr	r2, [r4, #4]
 80029ac:	629a      	str	r2, [r3, #40]	; 0x28
    TIMx->RCR = Structure->RepetitionCounter;
 80029ae:	6962      	ldr	r2, [r4, #20]
 80029b0:	631a      	str	r2, [r3, #48]	; 0x30
 80029b2:	e7e9      	b.n	8002988 <HAL_TIM_Base_Init+0x5c>
    htim->Lock = HAL_UNLOCKED;
 80029b4:	f880 203c 	strb.w	r2, [r0, #60]	; 0x3c
    HAL_TIM_Base_MspInit(htim);
 80029b8:	f001 fc7a 	bl	80042b0 <HAL_TIM_Base_MspInit>
 80029bc:	e7c0      	b.n	8002940 <HAL_TIM_Base_Init+0x14>
    tmpcr1 |= Structure->CounterMode;
 80029be:	68a6      	ldr	r6, [r4, #8]
    tmpcr1 |= (uint32_t)Structure->ClockDivision;
 80029c0:	6920      	ldr	r0, [r4, #16]
  MODIFY_REG(tmpcr1, TIM_CR1_ARPE, Structure->AutoReloadPreload);
 80029c2:	69a1      	ldr	r1, [r4, #24]
  TIMx->ARR = (uint32_t)Structure->Period ;
 80029c4:	68e7      	ldr	r7, [r4, #12]
  TIMx->PSC = (uint32_t)Structure->Prescaler;
 80029c6:	6865      	ldr	r5, [r4, #4]
    tmpcr1 &= ~(TIM_CR1_DIR | TIM_CR1_CMS);
 80029c8:	f022 0270 	bic.w	r2, r2, #112	; 0x70
    tmpcr1 |= Structure->CounterMode;
 80029cc:	4332      	orrs	r2, r6
    tmpcr1 &= ~TIM_CR1_CKD;
 80029ce:	f422 7240 	bic.w	r2, r2, #768	; 0x300
    tmpcr1 |= (uint32_t)Structure->ClockDivision;
 80029d2:	4302      	orrs	r2, r0
  MODIFY_REG(tmpcr1, TIM_CR1_ARPE, Structure->AutoReloadPreload);
 80029d4:	f022 0280 	bic.w	r2, r2, #128	; 0x80
 80029d8:	430a      	orrs	r2, r1
  TIMx->CR1 = tmpcr1;
 80029da:	601a      	str	r2, [r3, #0]
  if (IS_TIM_REPETITION_COUNTER_INSTANCE(TIMx))  
 80029dc:	4a0a      	ldr	r2, [pc, #40]	; (8002a08 <HAL_TIM_Base_Init+0xdc>)
  TIMx->ARR = (uint32_t)Structure->Period ;
 80029de:	62df      	str	r7, [r3, #44]	; 0x2c
  if (IS_TIM_REPETITION_COUNTER_INSTANCE(TIMx))  
 80029e0:	4293      	cmp	r3, r2
  TIMx->PSC = (uint32_t)Structure->Prescaler;
 80029e2:	629d      	str	r5, [r3, #40]	; 0x28
  if (IS_TIM_REPETITION_COUNTER_INSTANCE(TIMx))  
 80029e4:	d0e3      	beq.n	80029ae <HAL_TIM_Base_Init+0x82>
 80029e6:	f502 6280 	add.w	r2, r2, #1024	; 0x400
 80029ea:	4293      	cmp	r3, r2
 80029ec:	d1cc      	bne.n	8002988 <HAL_TIM_Base_Init+0x5c>
 80029ee:	e7de      	b.n	80029ae <HAL_TIM_Base_Init+0x82>
    tmpcr1 |= Structure->CounterMode;
 80029f0:	68a5      	ldr	r5, [r4, #8]
    tmpcr1 |= (uint32_t)Structure->ClockDivision;
 80029f2:	6920      	ldr	r0, [r4, #16]
  MODIFY_REG(tmpcr1, TIM_CR1_ARPE, Structure->AutoReloadPreload);
 80029f4:	69a1      	ldr	r1, [r4, #24]
    tmpcr1 &= ~(TIM_CR1_DIR | TIM_CR1_CMS);
 80029f6:	f022 0270 	bic.w	r2, r2, #112	; 0x70
    tmpcr1 |= Structure->CounterMode;
 80029fa:	432a      	orrs	r2, r5
 80029fc:	e7cc      	b.n	8002998 <HAL_TIM_Base_Init+0x6c>
    return HAL_ERROR;
 80029fe:	2001      	movs	r0, #1
 8002a00:	4770      	bx	lr
 8002a02:	bf00      	nop
 8002a04:	40012c00 	.word	0x40012c00
 8002a08:	40014400 	.word	0x40014400

08002a0c <HAL_TIM_Base_Start_IT>:
   __HAL_TIM_ENABLE_IT(htim, TIM_IT_UPDATE);
 8002a0c:	6803      	ldr	r3, [r0, #0]
 8002a0e:	68da      	ldr	r2, [r3, #12]
 8002a10:	f042 0201 	orr.w	r2, r2, #1
 8002a14:	60da      	str	r2, [r3, #12]
  __HAL_TIM_ENABLE(htim);
 8002a16:	681a      	ldr	r2, [r3, #0]
 8002a18:	f042 0201 	orr.w	r2, r2, #1
 8002a1c:	601a      	str	r2, [r3, #0]
}
 8002a1e:	2000      	movs	r0, #0
 8002a20:	4770      	bx	lr
 8002a22:	bf00      	nop

08002a24 <HAL_TIM_ConfigClockSource>:
  __HAL_LOCK(htim);
 8002a24:	f890 303c 	ldrb.w	r3, [r0, #60]	; 0x3c
 8002a28:	2b01      	cmp	r3, #1
 8002a2a:	d040      	beq.n	8002aae <HAL_TIM_ConfigClockSource+0x8a>
  htim->State = HAL_TIM_STATE_BUSY;
 8002a2c:	2202      	movs	r2, #2
  tmpsmcr = htim->Instance->SMCR;
 8002a2e:	6803      	ldr	r3, [r0, #0]
{
 8002a30:	b4f0      	push	{r4, r5, r6, r7}
  htim->State = HAL_TIM_STATE_BUSY;
 8002a32:	f880 203d 	strb.w	r2, [r0, #61]	; 0x3d
  tmpsmcr = htim->Instance->SMCR;
 8002a36:	689d      	ldr	r5, [r3, #8]
  switch (sClockSourceConfig->ClockSource)
 8002a38:	680c      	ldr	r4, [r1, #0]
  tmpsmcr &= ~(TIM_SMCR_ETF | TIM_SMCR_ETPS | TIM_SMCR_ECE | TIM_SMCR_ETP);
 8002a3a:	4a5d      	ldr	r2, [pc, #372]	; (8002bb0 <HAL_TIM_ConfigClockSource+0x18c>)
  switch (sClockSourceConfig->ClockSource)
 8002a3c:	2c40      	cmp	r4, #64	; 0x40
  tmpsmcr &= ~(TIM_SMCR_ETF | TIM_SMCR_ETPS | TIM_SMCR_ECE | TIM_SMCR_ETP);
 8002a3e:	ea02 0205 	and.w	r2, r2, r5
  __HAL_LOCK(htim);
 8002a42:	f04f 0501 	mov.w	r5, #1
 8002a46:	f880 503c 	strb.w	r5, [r0, #60]	; 0x3c
  htim->Instance->SMCR = tmpsmcr;
 8002a4a:	609a      	str	r2, [r3, #8]
  switch (sClockSourceConfig->ClockSource)
 8002a4c:	d079      	beq.n	8002b42 <HAL_TIM_ConfigClockSource+0x11e>
 8002a4e:	d918      	bls.n	8002a82 <HAL_TIM_ConfigClockSource+0x5e>
 8002a50:	2c70      	cmp	r4, #112	; 0x70
 8002a52:	d062      	beq.n	8002b1a <HAL_TIM_ConfigClockSource+0xf6>
 8002a54:	d92d      	bls.n	8002ab2 <HAL_TIM_ConfigClockSource+0x8e>
 8002a56:	f5b4 5f80 	cmp.w	r4, #4096	; 0x1000
 8002a5a:	d057      	beq.n	8002b0c <HAL_TIM_ConfigClockSource+0xe8>
 8002a5c:	f5b4 5f00 	cmp.w	r4, #8192	; 0x2000
 8002a60:	d11c      	bne.n	8002a9c <HAL_TIM_ConfigClockSource+0x78>

  /* Reset the ETR Bits */
  tmpsmcr &= ~(TIM_SMCR_ETF | TIM_SMCR_ETPS | TIM_SMCR_ECE | TIM_SMCR_ETP);

  /* Set the Prescaler, the Filter value and the Polarity */
  tmpsmcr |= (uint32_t)(TIM_ExtTRGPrescaler | (TIM_ExtTRGPolarity | (ExtTRGFilter << 8U)));
 8002a62:	688a      	ldr	r2, [r1, #8]
 8002a64:	684d      	ldr	r5, [r1, #4]
 8002a66:	68cc      	ldr	r4, [r1, #12]
  tmpsmcr = TIMx->SMCR;
 8002a68:	6899      	ldr	r1, [r3, #8]
  tmpsmcr |= (uint32_t)(TIM_ExtTRGPrescaler | (TIM_ExtTRGPolarity | (ExtTRGFilter << 8U)));
 8002a6a:	432a      	orrs	r2, r5
 8002a6c:	ea42 2204 	orr.w	r2, r2, r4, lsl #8
  tmpsmcr &= ~(TIM_SMCR_ETF | TIM_SMCR_ETPS | TIM_SMCR_ECE | TIM_SMCR_ETP);
 8002a70:	f421 417f 	bic.w	r1, r1, #65280	; 0xff00
  tmpsmcr |= (uint32_t)(TIM_ExtTRGPrescaler | (TIM_ExtTRGPolarity | (ExtTRGFilter << 8U)));
 8002a74:	430a      	orrs	r2, r1

  /* Write to TIMx SMCR */
  TIMx->SMCR = tmpsmcr;
 8002a76:	609a      	str	r2, [r3, #8]
      htim->Instance->SMCR |= TIM_SMCR_ECE;
 8002a78:	689a      	ldr	r2, [r3, #8]
 8002a7a:	f442 4280 	orr.w	r2, r2, #16384	; 0x4000
 8002a7e:	609a      	str	r2, [r3, #8]
    break;
 8002a80:	e00c      	b.n	8002a9c <HAL_TIM_ConfigClockSource+0x78>
  switch (sClockSourceConfig->ClockSource)
 8002a82:	2c10      	cmp	r4, #16
 8002a84:	d032      	beq.n	8002aec <HAL_TIM_ConfigClockSource+0xc8>
 8002a86:	d938      	bls.n	8002afa <HAL_TIM_ConfigClockSource+0xd6>
 8002a88:	2c20      	cmp	r4, #32
 8002a8a:	d072      	beq.n	8002b72 <HAL_TIM_ConfigClockSource+0x14e>
 8002a8c:	2c30      	cmp	r4, #48	; 0x30
 8002a8e:	d105      	bne.n	8002a9c <HAL_TIM_ConfigClockSource+0x78>
   tmpsmcr = TIMx->SMCR;
 8002a90:	689a      	ldr	r2, [r3, #8]
   tmpsmcr &= ~TIM_SMCR_TS;
 8002a92:	f022 0270 	bic.w	r2, r2, #112	; 0x70
   tmpsmcr |= InputTriggerSource | TIM_SLAVEMODE_EXTERNAL1;
 8002a96:	f042 0237 	orr.w	r2, r2, #55	; 0x37
   TIMx->SMCR = tmpsmcr;
 8002a9a:	609a      	str	r2, [r3, #8]
  __HAL_UNLOCK(htim);
 8002a9c:	2300      	movs	r3, #0
  htim->State = HAL_TIM_STATE_READY;
 8002a9e:	2201      	movs	r2, #1
 8002aa0:	f880 203d 	strb.w	r2, [r0, #61]	; 0x3d
  __HAL_UNLOCK(htim);
 8002aa4:	f880 303c 	strb.w	r3, [r0, #60]	; 0x3c
}
 8002aa8:	bcf0      	pop	{r4, r5, r6, r7}
  return HAL_OK;
 8002aaa:	4618      	mov	r0, r3
}
 8002aac:	4770      	bx	lr
  __HAL_LOCK(htim);
 8002aae:	2002      	movs	r0, #2
 8002ab0:	4770      	bx	lr
  switch (sClockSourceConfig->ClockSource)
 8002ab2:	2c50      	cmp	r4, #80	; 0x50
 8002ab4:	d064      	beq.n	8002b80 <HAL_TIM_ConfigClockSource+0x15c>
 8002ab6:	2c60      	cmp	r4, #96	; 0x60
 8002ab8:	d1f0      	bne.n	8002a9c <HAL_TIM_ConfigClockSource+0x78>
  TIMx->CCER &= ~TIM_CCER_CC2E;
 8002aba:	6a1c      	ldr	r4, [r3, #32]
      TIM_TI2_ConfigInputStage(htim->Instance, 
 8002abc:	684d      	ldr	r5, [r1, #4]
 8002abe:	68ce      	ldr	r6, [r1, #12]
  TIMx->CCER &= ~TIM_CCER_CC2E;
 8002ac0:	f024 0410 	bic.w	r4, r4, #16
 8002ac4:	621c      	str	r4, [r3, #32]
  tmpccmr1 = TIMx->CCMR1;
 8002ac6:	6999      	ldr	r1, [r3, #24]
  tmpccer = TIMx->CCER;
 8002ac8:	6a1a      	ldr	r2, [r3, #32]
  tmpccmr1 &= ~TIM_CCMR1_IC2F;
 8002aca:	f421 4170 	bic.w	r1, r1, #61440	; 0xf000
  tmpccer &= ~(TIM_CCER_CC2P | TIM_CCER_CC2NP);
 8002ace:	f022 02a0 	bic.w	r2, r2, #160	; 0xa0
  tmpccer |= (TIM_ICPolarity << 4U);
 8002ad2:	ea42 1205 	orr.w	r2, r2, r5, lsl #4
  tmpccmr1 |= (TIM_ICFilter << 12U);
 8002ad6:	ea41 3106 	orr.w	r1, r1, r6, lsl #12
  TIMx->CCMR1 = tmpccmr1 ;
 8002ada:	6199      	str	r1, [r3, #24]
  TIMx->CCER = tmpccer;
 8002adc:	621a      	str	r2, [r3, #32]
   tmpsmcr = TIMx->SMCR;
 8002ade:	689a      	ldr	r2, [r3, #8]
   tmpsmcr &= ~TIM_SMCR_TS;
 8002ae0:	f022 0270 	bic.w	r2, r2, #112	; 0x70
   tmpsmcr |= InputTriggerSource | TIM_SLAVEMODE_EXTERNAL1;
 8002ae4:	f042 0267 	orr.w	r2, r2, #103	; 0x67
   TIMx->SMCR = tmpsmcr;
 8002ae8:	609a      	str	r2, [r3, #8]
 8002aea:	e7d7      	b.n	8002a9c <HAL_TIM_ConfigClockSource+0x78>
   tmpsmcr = TIMx->SMCR;
 8002aec:	689a      	ldr	r2, [r3, #8]
   tmpsmcr &= ~TIM_SMCR_TS;
 8002aee:	f022 0270 	bic.w	r2, r2, #112	; 0x70
   tmpsmcr |= InputTriggerSource | TIM_SLAVEMODE_EXTERNAL1;
 8002af2:	f042 0217 	orr.w	r2, r2, #23
   TIMx->SMCR = tmpsmcr;
 8002af6:	609a      	str	r2, [r3, #8]
 8002af8:	e7d0      	b.n	8002a9c <HAL_TIM_ConfigClockSource+0x78>
  switch (sClockSourceConfig->ClockSource)
 8002afa:	2c00      	cmp	r4, #0
 8002afc:	d1ce      	bne.n	8002a9c <HAL_TIM_ConfigClockSource+0x78>
   tmpsmcr = TIMx->SMCR;
 8002afe:	689a      	ldr	r2, [r3, #8]
   tmpsmcr &= ~TIM_SMCR_TS;
 8002b00:	f022 0270 	bic.w	r2, r2, #112	; 0x70
   tmpsmcr |= InputTriggerSource | TIM_SLAVEMODE_EXTERNAL1;
 8002b04:	f042 0207 	orr.w	r2, r2, #7
   TIMx->SMCR = tmpsmcr;
 8002b08:	609a      	str	r2, [r3, #8]
 8002b0a:	e7c7      	b.n	8002a9c <HAL_TIM_ConfigClockSource+0x78>
      htim->Instance->SMCR &= ~TIM_SMCR_SMS;
 8002b0c:	689a      	ldr	r2, [r3, #8]
 8002b0e:	f422 3280 	bic.w	r2, r2, #65536	; 0x10000
 8002b12:	f022 0207 	bic.w	r2, r2, #7
 8002b16:	609a      	str	r2, [r3, #8]
    break;
 8002b18:	e7c0      	b.n	8002a9c <HAL_TIM_ConfigClockSource+0x78>
  tmpsmcr |= (uint32_t)(TIM_ExtTRGPrescaler | (TIM_ExtTRGPolarity | (ExtTRGFilter << 8U)));
 8002b1a:	688a      	ldr	r2, [r1, #8]
 8002b1c:	684d      	ldr	r5, [r1, #4]
 8002b1e:	68cc      	ldr	r4, [r1, #12]
  tmpsmcr = TIMx->SMCR;
 8002b20:	6899      	ldr	r1, [r3, #8]
  tmpsmcr |= (uint32_t)(TIM_ExtTRGPrescaler | (TIM_ExtTRGPolarity | (ExtTRGFilter << 8U)));
 8002b22:	432a      	orrs	r2, r5
 8002b24:	ea42 2204 	orr.w	r2, r2, r4, lsl #8
  tmpsmcr &= ~(TIM_SMCR_ETF | TIM_SMCR_ETPS | TIM_SMCR_ECE | TIM_SMCR_ETP);
 8002b28:	f421 417f 	bic.w	r1, r1, #65280	; 0xff00
  tmpsmcr |= (uint32_t)(TIM_ExtTRGPrescaler | (TIM_ExtTRGPolarity | (ExtTRGFilter << 8U)));
 8002b2c:	430a      	orrs	r2, r1
  TIMx->SMCR = tmpsmcr;
 8002b2e:	609a      	str	r2, [r3, #8]
      tmpsmcr = htim->Instance->SMCR;
 8002b30:	689a      	ldr	r2, [r3, #8]
      tmpsmcr &= ~(TIM_SMCR_SMS | TIM_SMCR_TS);
 8002b32:	f422 3280 	bic.w	r2, r2, #65536	; 0x10000
 8002b36:	f022 0277 	bic.w	r2, r2, #119	; 0x77
      tmpsmcr |= (TIM_SLAVEMODE_EXTERNAL1 | TIM_CLOCKSOURCE_ETRMODE1);
 8002b3a:	f042 0277 	orr.w	r2, r2, #119	; 0x77
      htim->Instance->SMCR = tmpsmcr;
 8002b3e:	609a      	str	r2, [r3, #8]
    break;
 8002b40:	e7ac      	b.n	8002a9c <HAL_TIM_ConfigClockSource+0x78>
  tmpccer = TIMx->CCER;
 8002b42:	6a1d      	ldr	r5, [r3, #32]
  TIMx->CCER &= ~TIM_CCER_CC1E;
 8002b44:	6a1e      	ldr	r6, [r3, #32]
      TIM_TI1_ConfigInputStage(htim->Instance, 
 8002b46:	684c      	ldr	r4, [r1, #4]
 8002b48:	68cf      	ldr	r7, [r1, #12]
  TIMx->CCER &= ~TIM_CCER_CC1E;
 8002b4a:	f026 0601 	bic.w	r6, r6, #1
 8002b4e:	621e      	str	r6, [r3, #32]
  tmpccmr1 = TIMx->CCMR1;    
 8002b50:	699a      	ldr	r2, [r3, #24]
  tmpccer &= ~(TIM_CCER_CC1P | TIM_CCER_CC1NP);
 8002b52:	f025 010a 	bic.w	r1, r5, #10
  tmpccmr1 &= ~TIM_CCMR1_IC1F;
 8002b56:	f022 02f0 	bic.w	r2, r2, #240	; 0xf0
  tmpccmr1 |= (TIM_ICFilter << 4U);
 8002b5a:	ea42 1207 	orr.w	r2, r2, r7, lsl #4
  tmpccer |= TIM_ICPolarity;
 8002b5e:	4321      	orrs	r1, r4
  TIMx->CCMR1 = tmpccmr1;
 8002b60:	619a      	str	r2, [r3, #24]
  TIMx->CCER = tmpccer;
 8002b62:	6219      	str	r1, [r3, #32]
   tmpsmcr = TIMx->SMCR;
 8002b64:	689a      	ldr	r2, [r3, #8]
   tmpsmcr &= ~TIM_SMCR_TS;
 8002b66:	f022 0270 	bic.w	r2, r2, #112	; 0x70
   tmpsmcr |= InputTriggerSource | TIM_SLAVEMODE_EXTERNAL1;
 8002b6a:	f042 0247 	orr.w	r2, r2, #71	; 0x47
   TIMx->SMCR = tmpsmcr;
 8002b6e:	609a      	str	r2, [r3, #8]
 8002b70:	e794      	b.n	8002a9c <HAL_TIM_ConfigClockSource+0x78>
   tmpsmcr = TIMx->SMCR;
 8002b72:	689a      	ldr	r2, [r3, #8]
   tmpsmcr &= ~TIM_SMCR_TS;
 8002b74:	f022 0270 	bic.w	r2, r2, #112	; 0x70
   tmpsmcr |= InputTriggerSource | TIM_SLAVEMODE_EXTERNAL1;
 8002b78:	f042 0227 	orr.w	r2, r2, #39	; 0x27
   TIMx->SMCR = tmpsmcr;
 8002b7c:	609a      	str	r2, [r3, #8]
 8002b7e:	e78d      	b.n	8002a9c <HAL_TIM_ConfigClockSource+0x78>
  tmpccer = TIMx->CCER;
 8002b80:	6a1d      	ldr	r5, [r3, #32]
  TIMx->CCER &= ~TIM_CCER_CC1E;
 8002b82:	6a1e      	ldr	r6, [r3, #32]
      TIM_TI1_ConfigInputStage(htim->Instance, 
 8002b84:	684c      	ldr	r4, [r1, #4]
 8002b86:	68cf      	ldr	r7, [r1, #12]
  TIMx->CCER &= ~TIM_CCER_CC1E;
 8002b88:	f026 0601 	bic.w	r6, r6, #1
 8002b8c:	621e      	str	r6, [r3, #32]
  tmpccmr1 = TIMx->CCMR1;    
 8002b8e:	699a      	ldr	r2, [r3, #24]
  tmpccer &= ~(TIM_CCER_CC1P | TIM_CCER_CC1NP);
 8002b90:	f025 010a 	bic.w	r1, r5, #10
  tmpccmr1 &= ~TIM_CCMR1_IC1F;
 8002b94:	f022 02f0 	bic.w	r2, r2, #240	; 0xf0
  tmpccmr1 |= (TIM_ICFilter << 4U);
 8002b98:	ea42 1207 	orr.w	r2, r2, r7, lsl #4
  tmpccer |= TIM_ICPolarity;
 8002b9c:	4321      	orrs	r1, r4
  TIMx->CCMR1 = tmpccmr1;
 8002b9e:	619a      	str	r2, [r3, #24]
  TIMx->CCER = tmpccer;
 8002ba0:	6219      	str	r1, [r3, #32]
   tmpsmcr = TIMx->SMCR;
 8002ba2:	689a      	ldr	r2, [r3, #8]
   tmpsmcr &= ~TIM_SMCR_TS;
 8002ba4:	f022 0270 	bic.w	r2, r2, #112	; 0x70
   tmpsmcr |= InputTriggerSource | TIM_SLAVEMODE_EXTERNAL1;
 8002ba8:	f042 0257 	orr.w	r2, r2, #87	; 0x57
   TIMx->SMCR = tmpsmcr;
 8002bac:	609a      	str	r2, [r3, #8]
 8002bae:	e775      	b.n	8002a9c <HAL_TIM_ConfigClockSource+0x78>
 8002bb0:	fffe0088 	.word	0xfffe0088

08002bb4 <HAL_TIM_OC_DelayElapsedCallback>:
 8002bb4:	4770      	bx	lr
 8002bb6:	bf00      	nop

08002bb8 <HAL_TIM_PWM_PulseFinishedCallback>:
 8002bb8:	4770      	bx	lr
 8002bba:	bf00      	nop

08002bbc <HAL_TIM_TriggerCallback>:
 8002bbc:	4770      	bx	lr
 8002bbe:	bf00      	nop

08002bc0 <HAL_TIM_IRQHandler>:
  if(__HAL_TIM_GET_FLAG(htim, TIM_FLAG_CC1) != RESET)
 8002bc0:	6803      	ldr	r3, [r0, #0]
 8002bc2:	691a      	ldr	r2, [r3, #16]
 8002bc4:	0791      	lsls	r1, r2, #30
{
 8002bc6:	b510      	push	{r4, lr}
 8002bc8:	4604      	mov	r4, r0
  if(__HAL_TIM_GET_FLAG(htim, TIM_FLAG_CC1) != RESET)
 8002bca:	d502      	bpl.n	8002bd2 <HAL_TIM_IRQHandler+0x12>
    if(__HAL_TIM_GET_IT_SOURCE(htim, TIM_IT_CC1) !=RESET)
 8002bcc:	68da      	ldr	r2, [r3, #12]
 8002bce:	0792      	lsls	r2, r2, #30
 8002bd0:	d465      	bmi.n	8002c9e <HAL_TIM_IRQHandler+0xde>
  if(__HAL_TIM_GET_FLAG(htim, TIM_FLAG_CC2) != RESET)
 8002bd2:	691a      	ldr	r2, [r3, #16]
 8002bd4:	0752      	lsls	r2, r2, #29
 8002bd6:	d502      	bpl.n	8002bde <HAL_TIM_IRQHandler+0x1e>
    if(__HAL_TIM_GET_IT_SOURCE(htim, TIM_IT_CC2) !=RESET)
 8002bd8:	68da      	ldr	r2, [r3, #12]
 8002bda:	0750      	lsls	r0, r2, #29
 8002bdc:	d44c      	bmi.n	8002c78 <HAL_TIM_IRQHandler+0xb8>
  if(__HAL_TIM_GET_FLAG(htim, TIM_FLAG_CC3) != RESET)
 8002bde:	691a      	ldr	r2, [r3, #16]
 8002be0:	0711      	lsls	r1, r2, #28
 8002be2:	d502      	bpl.n	8002bea <HAL_TIM_IRQHandler+0x2a>
    if(__HAL_TIM_GET_IT_SOURCE(htim, TIM_IT_CC3) !=RESET)
 8002be4:	68da      	ldr	r2, [r3, #12]
 8002be6:	0712      	lsls	r2, r2, #28
 8002be8:	d434      	bmi.n	8002c54 <HAL_TIM_IRQHandler+0x94>
  if(__HAL_TIM_GET_FLAG(htim, TIM_FLAG_CC4) != RESET)
 8002bea:	691a      	ldr	r2, [r3, #16]
 8002bec:	06d0      	lsls	r0, r2, #27
 8002bee:	d502      	bpl.n	8002bf6 <HAL_TIM_IRQHandler+0x36>
    if(__HAL_TIM_GET_IT_SOURCE(htim, TIM_IT_CC4) !=RESET)
 8002bf0:	68da      	ldr	r2, [r3, #12]
 8002bf2:	06d1      	lsls	r1, r2, #27
 8002bf4:	d41e      	bmi.n	8002c34 <HAL_TIM_IRQHandler+0x74>
  if(__HAL_TIM_GET_FLAG(htim, TIM_FLAG_UPDATE) != RESET)
 8002bf6:	691a      	ldr	r2, [r3, #16]
 8002bf8:	07d2      	lsls	r2, r2, #31
 8002bfa:	d502      	bpl.n	8002c02 <HAL_TIM_IRQHandler+0x42>
    if(__HAL_TIM_GET_IT_SOURCE(htim, TIM_IT_UPDATE) !=RESET)
 8002bfc:	68da      	ldr	r2, [r3, #12]
 8002bfe:	07d0      	lsls	r0, r2, #31
 8002c00:	d46b      	bmi.n	8002cda <HAL_TIM_IRQHandler+0x11a>
  if(__HAL_TIM_GET_FLAG(htim, TIM_FLAG_BREAK) != RESET)
 8002c02:	691a      	ldr	r2, [r3, #16]
 8002c04:	0611      	lsls	r1, r2, #24
 8002c06:	d502      	bpl.n	8002c0e <HAL_TIM_IRQHandler+0x4e>
    if(__HAL_TIM_GET_IT_SOURCE(htim, TIM_IT_BREAK) !=RESET)
 8002c08:	68da      	ldr	r2, [r3, #12]
 8002c0a:	0612      	lsls	r2, r2, #24
 8002c0c:	d46d      	bmi.n	8002cea <HAL_TIM_IRQHandler+0x12a>
  if(__HAL_TIM_GET_FLAG(htim, TIM_FLAG_BREAK2) != RESET)
 8002c0e:	691a      	ldr	r2, [r3, #16]
 8002c10:	05d0      	lsls	r0, r2, #23
 8002c12:	d502      	bpl.n	8002c1a <HAL_TIM_IRQHandler+0x5a>
    if(__HAL_TIM_GET_IT_SOURCE(htim, TIM_IT_BREAK) !=RESET)
 8002c14:	68da      	ldr	r2, [r3, #12]
 8002c16:	0611      	lsls	r1, r2, #24
 8002c18:	d46f      	bmi.n	8002cfa <HAL_TIM_IRQHandler+0x13a>
  if(__HAL_TIM_GET_FLAG(htim, TIM_FLAG_TRIGGER) != RESET)
 8002c1a:	691a      	ldr	r2, [r3, #16]
 8002c1c:	0652      	lsls	r2, r2, #25
 8002c1e:	d502      	bpl.n	8002c26 <HAL_TIM_IRQHandler+0x66>
    if(__HAL_TIM_GET_IT_SOURCE(htim, TIM_IT_TRIGGER) !=RESET)
 8002c20:	68da      	ldr	r2, [r3, #12]
 8002c22:	0650      	lsls	r0, r2, #25
 8002c24:	d451      	bmi.n	8002cca <HAL_TIM_IRQHandler+0x10a>
  if(__HAL_TIM_GET_FLAG(htim, TIM_FLAG_COM) != RESET)
 8002c26:	691a      	ldr	r2, [r3, #16]
 8002c28:	0691      	lsls	r1, r2, #26
 8002c2a:	d502      	bpl.n	8002c32 <HAL_TIM_IRQHandler+0x72>
    if(__HAL_TIM_GET_IT_SOURCE(htim, TIM_IT_COM) !=RESET)
 8002c2c:	68da      	ldr	r2, [r3, #12]
 8002c2e:	0692      	lsls	r2, r2, #26
 8002c30:	d443      	bmi.n	8002cba <HAL_TIM_IRQHandler+0xfa>
 8002c32:	bd10      	pop	{r4, pc}
      __HAL_TIM_CLEAR_FLAG(htim, TIM_FLAG_CC4);
 8002c34:	f06f 0210 	mvn.w	r2, #16
 8002c38:	611a      	str	r2, [r3, #16]
      if((htim->Instance->CCMR2 & TIM_CCMR2_CC4S) != 0x00U)
 8002c3a:	69db      	ldr	r3, [r3, #28]
      htim->Channel = HAL_TIM_ACTIVE_CHANNEL_4;
 8002c3c:	2208      	movs	r2, #8
      if((htim->Instance->CCMR2 & TIM_CCMR2_CC4S) != 0x00U)
 8002c3e:	f413 7f40 	tst.w	r3, #768	; 0x300
      htim->Channel = HAL_TIM_ACTIVE_CHANNEL_4;
 8002c42:	7722      	strb	r2, [r4, #28]
        HAL_TIM_IC_CaptureCallback(htim);
 8002c44:	4620      	mov	r0, r4
      if((htim->Instance->CCMR2 & TIM_CCMR2_CC4S) != 0x00U)
 8002c46:	d06c      	beq.n	8002d22 <HAL_TIM_IRQHandler+0x162>
        HAL_TIM_IC_CaptureCallback(htim);
 8002c48:	f000 fce6 	bl	8003618 <HAL_TIM_IC_CaptureCallback>
      htim->Channel = HAL_TIM_ACTIVE_CHANNEL_CLEARED;
 8002c4c:	2200      	movs	r2, #0
 8002c4e:	6823      	ldr	r3, [r4, #0]
 8002c50:	7722      	strb	r2, [r4, #28]
 8002c52:	e7d0      	b.n	8002bf6 <HAL_TIM_IRQHandler+0x36>
      __HAL_TIM_CLEAR_FLAG(htim, TIM_FLAG_CC3);
 8002c54:	f06f 0208 	mvn.w	r2, #8
 8002c58:	611a      	str	r2, [r3, #16]
      if((htim->Instance->CCMR2 & TIM_CCMR2_CC3S) != 0x00U)
 8002c5a:	69db      	ldr	r3, [r3, #28]
      htim->Channel = HAL_TIM_ACTIVE_CHANNEL_3;
 8002c5c:	2204      	movs	r2, #4
      if((htim->Instance->CCMR2 & TIM_CCMR2_CC3S) != 0x00U)
 8002c5e:	079b      	lsls	r3, r3, #30
      htim->Channel = HAL_TIM_ACTIVE_CHANNEL_3;
 8002c60:	7722      	strb	r2, [r4, #28]
        HAL_TIM_IC_CaptureCallback(htim);
 8002c62:	4620      	mov	r0, r4
      if((htim->Instance->CCMR2 & TIM_CCMR2_CC3S) != 0x00U)
 8002c64:	d15a      	bne.n	8002d1c <HAL_TIM_IRQHandler+0x15c>
        HAL_TIM_OC_DelayElapsedCallback(htim);
 8002c66:	f7ff ffa5 	bl	8002bb4 <HAL_TIM_OC_DelayElapsedCallback>
        HAL_TIM_PWM_PulseFinishedCallback(htim); 
 8002c6a:	4620      	mov	r0, r4
 8002c6c:	f7ff ffa4 	bl	8002bb8 <HAL_TIM_PWM_PulseFinishedCallback>
      htim->Channel = HAL_TIM_ACTIVE_CHANNEL_CLEARED;
 8002c70:	2200      	movs	r2, #0
 8002c72:	6823      	ldr	r3, [r4, #0]
 8002c74:	7722      	strb	r2, [r4, #28]
 8002c76:	e7b8      	b.n	8002bea <HAL_TIM_IRQHandler+0x2a>
      __HAL_TIM_CLEAR_FLAG(htim, TIM_FLAG_CC2);
 8002c78:	f06f 0204 	mvn.w	r2, #4
 8002c7c:	611a      	str	r2, [r3, #16]
      if((htim->Instance->CCMR1 & TIM_CCMR1_CC2S) != 0x00U)
 8002c7e:	699b      	ldr	r3, [r3, #24]
      htim->Channel = HAL_TIM_ACTIVE_CHANNEL_2;
 8002c80:	2202      	movs	r2, #2
      if((htim->Instance->CCMR1 & TIM_CCMR1_CC2S) != 0x00U)
 8002c82:	f413 7f40 	tst.w	r3, #768	; 0x300
      htim->Channel = HAL_TIM_ACTIVE_CHANNEL_2;
 8002c86:	7722      	strb	r2, [r4, #28]
        HAL_TIM_IC_CaptureCallback(htim);
 8002c88:	4620      	mov	r0, r4
      if((htim->Instance->CCMR1 & TIM_CCMR1_CC2S) != 0x00U)
 8002c8a:	d144      	bne.n	8002d16 <HAL_TIM_IRQHandler+0x156>
        HAL_TIM_OC_DelayElapsedCallback(htim);
 8002c8c:	f7ff ff92 	bl	8002bb4 <HAL_TIM_OC_DelayElapsedCallback>
        HAL_TIM_PWM_PulseFinishedCallback(htim);
 8002c90:	4620      	mov	r0, r4
 8002c92:	f7ff ff91 	bl	8002bb8 <HAL_TIM_PWM_PulseFinishedCallback>
      htim->Channel = HAL_TIM_ACTIVE_CHANNEL_CLEARED;
 8002c96:	2200      	movs	r2, #0
 8002c98:	6823      	ldr	r3, [r4, #0]
 8002c9a:	7722      	strb	r2, [r4, #28]
 8002c9c:	e79f      	b.n	8002bde <HAL_TIM_IRQHandler+0x1e>
        __HAL_TIM_CLEAR_FLAG(htim, TIM_FLAG_CC1);
 8002c9e:	f06f 0202 	mvn.w	r2, #2
 8002ca2:	611a      	str	r2, [r3, #16]
        if((htim->Instance->CCMR1 & TIM_CCMR1_CC1S) != 0x00U)
 8002ca4:	699b      	ldr	r3, [r3, #24]
        htim->Channel = HAL_TIM_ACTIVE_CHANNEL_1;
 8002ca6:	2201      	movs	r2, #1
        if((htim->Instance->CCMR1 & TIM_CCMR1_CC1S) != 0x00U)
 8002ca8:	0799      	lsls	r1, r3, #30
        htim->Channel = HAL_TIM_ACTIVE_CHANNEL_1;
 8002caa:	7702      	strb	r2, [r0, #28]
        if((htim->Instance->CCMR1 & TIM_CCMR1_CC1S) != 0x00U)
 8002cac:	d02d      	beq.n	8002d0a <HAL_TIM_IRQHandler+0x14a>
          HAL_TIM_IC_CaptureCallback(htim);
 8002cae:	f000 fcb3 	bl	8003618 <HAL_TIM_IC_CaptureCallback>
        htim->Channel = HAL_TIM_ACTIVE_CHANNEL_CLEARED;
 8002cb2:	2200      	movs	r2, #0
 8002cb4:	6823      	ldr	r3, [r4, #0]
 8002cb6:	7722      	strb	r2, [r4, #28]
 8002cb8:	e78b      	b.n	8002bd2 <HAL_TIM_IRQHandler+0x12>
      __HAL_TIM_CLEAR_FLAG(htim, TIM_FLAG_COM);
 8002cba:	f06f 0220 	mvn.w	r2, #32
      HAL_TIMEx_CommutationCallback(htim);
 8002cbe:	4620      	mov	r0, r4
      __HAL_TIM_CLEAR_FLAG(htim, TIM_FLAG_COM);
 8002cc0:	611a      	str	r2, [r3, #16]
}
 8002cc2:	e8bd 4010 	ldmia.w	sp!, {r4, lr}
      HAL_TIMEx_CommutationCallback(htim);
 8002cc6:	f000 b859 	b.w	8002d7c <HAL_TIMEx_CommutationCallback>
      __HAL_TIM_CLEAR_FLAG(htim, TIM_FLAG_TRIGGER);
 8002cca:	f06f 0240 	mvn.w	r2, #64	; 0x40
 8002cce:	611a      	str	r2, [r3, #16]
      HAL_TIM_TriggerCallback(htim);
 8002cd0:	4620      	mov	r0, r4
 8002cd2:	f7ff ff73 	bl	8002bbc <HAL_TIM_TriggerCallback>
 8002cd6:	6823      	ldr	r3, [r4, #0]
 8002cd8:	e7a5      	b.n	8002c26 <HAL_TIM_IRQHandler+0x66>
      __HAL_TIM_CLEAR_FLAG(htim, TIM_FLAG_UPDATE);
 8002cda:	f06f 0201 	mvn.w	r2, #1
 8002cde:	611a      	str	r2, [r3, #16]
      HAL_TIM_PeriodElapsedCallback(htim);
 8002ce0:	4620      	mov	r0, r4
 8002ce2:	f000 fe5f 	bl	80039a4 <HAL_TIM_PeriodElapsedCallback>
 8002ce6:	6823      	ldr	r3, [r4, #0]
 8002ce8:	e78b      	b.n	8002c02 <HAL_TIM_IRQHandler+0x42>
      __HAL_TIM_CLEAR_FLAG(htim, TIM_FLAG_BREAK);
 8002cea:	f06f 0280 	mvn.w	r2, #128	; 0x80
 8002cee:	611a      	str	r2, [r3, #16]
      HAL_TIMEx_BreakCallback(htim);
 8002cf0:	4620      	mov	r0, r4
 8002cf2:	f000 f845 	bl	8002d80 <HAL_TIMEx_BreakCallback>
 8002cf6:	6823      	ldr	r3, [r4, #0]
 8002cf8:	e789      	b.n	8002c0e <HAL_TIM_IRQHandler+0x4e>
      __HAL_TIM_CLEAR_FLAG(htim, TIM_FLAG_BREAK2);
 8002cfa:	f46f 7280 	mvn.w	r2, #256	; 0x100
 8002cfe:	611a      	str	r2, [r3, #16]
      HAL_TIMEx_Break2Callback(htim);
 8002d00:	4620      	mov	r0, r4
 8002d02:	f000 f83f 	bl	8002d84 <HAL_TIMEx_Break2Callback>
 8002d06:	6823      	ldr	r3, [r4, #0]
 8002d08:	e787      	b.n	8002c1a <HAL_TIM_IRQHandler+0x5a>
          HAL_TIM_OC_DelayElapsedCallback(htim);
 8002d0a:	f7ff ff53 	bl	8002bb4 <HAL_TIM_OC_DelayElapsedCallback>
          HAL_TIM_PWM_PulseFinishedCallback(htim);
 8002d0e:	4620      	mov	r0, r4
 8002d10:	f7ff ff52 	bl	8002bb8 <HAL_TIM_PWM_PulseFinishedCallback>
 8002d14:	e7cd      	b.n	8002cb2 <HAL_TIM_IRQHandler+0xf2>
        HAL_TIM_IC_CaptureCallback(htim);
 8002d16:	f000 fc7f 	bl	8003618 <HAL_TIM_IC_CaptureCallback>
 8002d1a:	e7bc      	b.n	8002c96 <HAL_TIM_IRQHandler+0xd6>
        HAL_TIM_IC_CaptureCallback(htim);
 8002d1c:	f000 fc7c 	bl	8003618 <HAL_TIM_IC_CaptureCallback>
 8002d20:	e7a6      	b.n	8002c70 <HAL_TIM_IRQHandler+0xb0>
        HAL_TIM_OC_DelayElapsedCallback(htim);
 8002d22:	f7ff ff47 	bl	8002bb4 <HAL_TIM_OC_DelayElapsedCallback>
        HAL_TIM_PWM_PulseFinishedCallback(htim);
 8002d26:	4620      	mov	r0, r4
 8002d28:	f7ff ff46 	bl	8002bb8 <HAL_TIM_PWM_PulseFinishedCallback>
 8002d2c:	e78e      	b.n	8002c4c <HAL_TIM_IRQHandler+0x8c>
 8002d2e:	bf00      	nop

08002d30 <HAL_TIMEx_MasterConfigSynchronization>:
  assert_param(IS_TIM_SYNCHRO_INSTANCE(htim->Instance));
  assert_param(IS_TIM_TRGO_SOURCE(sMasterConfig->MasterOutputTrigger));
  assert_param(IS_TIM_MSM_STATE(sMasterConfig->MasterSlaveMode));
  
  /* Check input state */
  __HAL_LOCK(htim);
 8002d30:	f890 303c 	ldrb.w	r3, [r0, #60]	; 0x3c
 8002d34:	2b01      	cmp	r3, #1
 8002d36:	d016      	beq.n	8002d66 <HAL_TIMEx_MasterConfigSynchronization+0x36>

 /* Get the TIMx CR2 register value */
  tmpcr2 = htim->Instance->CR2;
 8002d38:	6802      	ldr	r2, [r0, #0]
{
 8002d3a:	b470      	push	{r4, r5, r6}

  /* Get the TIMx SMCR register value */
  tmpsmcr = htim->Instance->SMCR;

  /* If the timer supports ADC synchronization through TRGO2, set the master mode selection 2U */
  if (IS_TIM_TRGO2_INSTANCE(htim->Instance))
 8002d3c:	4d0e      	ldr	r5, [pc, #56]	; (8002d78 <HAL_TIMEx_MasterConfigSynchronization+0x48>)
  tmpcr2 = htim->Instance->CR2;
 8002d3e:	6853      	ldr	r3, [r2, #4]
  tmpsmcr = htim->Instance->SMCR;
 8002d40:	6894      	ldr	r4, [r2, #8]
  if (IS_TIM_TRGO2_INSTANCE(htim->Instance))
 8002d42:	42aa      	cmp	r2, r5
 8002d44:	d012      	beq.n	8002d6c <HAL_TIMEx_MasterConfigSynchronization+0x3c>
  }
  
  /* Reset the MMS Bits */
  tmpcr2 &= ~TIM_CR2_MMS;
  /* Select the TRGO source */
  tmpcr2 |=  sMasterConfig->MasterOutputTrigger;
 8002d46:	680e      	ldr	r6, [r1, #0]

  /* Reset the MSM Bit */
  tmpsmcr &= ~TIM_SMCR_MSM;
  /* Set master mode */
  tmpsmcr |= sMasterConfig->MasterSlaveMode;
 8002d48:	688d      	ldr	r5, [r1, #8]
  tmpcr2 &= ~TIM_CR2_MMS;
 8002d4a:	f023 0370 	bic.w	r3, r3, #112	; 0x70
  tmpsmcr &= ~TIM_SMCR_MSM;
 8002d4e:	f024 0180 	bic.w	r1, r4, #128	; 0x80
  tmpcr2 |=  sMasterConfig->MasterOutputTrigger;
 8002d52:	4333      	orrs	r3, r6
  htim->Instance->CR2 = tmpcr2;
  
  /* Update TIMx SMCR */
  htim->Instance->SMCR = tmpsmcr;

  __HAL_UNLOCK(htim);
 8002d54:	2400      	movs	r4, #0
  tmpsmcr |= sMasterConfig->MasterSlaveMode;
 8002d56:	4329      	orrs	r1, r5
  htim->Instance->CR2 = tmpcr2;
 8002d58:	6053      	str	r3, [r2, #4]
  htim->Instance->SMCR = tmpsmcr;
 8002d5a:	6091      	str	r1, [r2, #8]
  __HAL_UNLOCK(htim);
 8002d5c:	f880 403c 	strb.w	r4, [r0, #60]	; 0x3c
  
  return HAL_OK;
} 
 8002d60:	4620      	mov	r0, r4
 8002d62:	bc70      	pop	{r4, r5, r6}
 8002d64:	4770      	bx	lr
  __HAL_LOCK(htim);
 8002d66:	2302      	movs	r3, #2
} 
 8002d68:	4618      	mov	r0, r3
 8002d6a:	4770      	bx	lr
    tmpcr2 |= sMasterConfig->MasterOutputTrigger2;
 8002d6c:	684d      	ldr	r5, [r1, #4]
    tmpcr2 &= ~TIM_CR2_MMS2;
 8002d6e:	f423 0370 	bic.w	r3, r3, #15728640	; 0xf00000
    tmpcr2 |= sMasterConfig->MasterOutputTrigger2;
 8002d72:	432b      	orrs	r3, r5
 8002d74:	e7e7      	b.n	8002d46 <HAL_TIMEx_MasterConfigSynchronization+0x16>
 8002d76:	bf00      	nop
 8002d78:	40012c00 	.word	0x40012c00

08002d7c <HAL_TIMEx_CommutationCallback>:
 8002d7c:	4770      	bx	lr
 8002d7e:	bf00      	nop

08002d80 <HAL_TIMEx_BreakCallback>:
 8002d80:	4770      	bx	lr
 8002d82:	bf00      	nop

08002d84 <HAL_TIMEx_Break2Callback>:
  * @brief  Hall Break2 detection callback in non blocking mode
  * @param  htim: TIM handle
  * @retval None
  */
__weak void HAL_TIMEx_Break2Callback(TIM_HandleTypeDef *htim)
{
 8002d84:	4770      	bx	lr
 8002d86:	bf00      	nop

08002d88 <HAL_UART_Transmit_IT>:
  * @retval HAL status
  */
HAL_StatusTypeDef HAL_UART_Transmit_IT(UART_HandleTypeDef *huart, uint8_t *pData, uint16_t Size)
{
  /* Check that a Tx process is not already ongoing */
  if(huart->gState == HAL_UART_STATE_READY)
 8002d88:	f890 3069 	ldrb.w	r3, [r0, #105]	; 0x69
 8002d8c:	2b20      	cmp	r3, #32
 8002d8e:	d001      	beq.n	8002d94 <HAL_UART_Transmit_IT+0xc>

    return HAL_OK;
  }
  else
  {
    return HAL_BUSY;
 8002d90:	2002      	movs	r0, #2
 8002d92:	4770      	bx	lr
    if((pData == NULL ) || (Size == 0U))
 8002d94:	b1c9      	cbz	r1, 8002dca <HAL_UART_Transmit_IT+0x42>
 8002d96:	b1c2      	cbz	r2, 8002dca <HAL_UART_Transmit_IT+0x42>
    __HAL_LOCK(huart);
 8002d98:	f890 3068 	ldrb.w	r3, [r0, #104]	; 0x68
 8002d9c:	2b01      	cmp	r3, #1
 8002d9e:	d0f7      	beq.n	8002d90 <HAL_UART_Transmit_IT+0x8>
{
 8002da0:	b430      	push	{r4, r5}
    huart->ErrorCode = HAL_UART_ERROR_NONE;
 8002da2:	2300      	movs	r3, #0
    SET_BIT(huart->Instance->CR1, USART_CR1_TXEIE);
 8002da4:	6805      	ldr	r5, [r0, #0]
    huart->TxXferCount = Size;
 8002da6:	f8a0 2052 	strh.w	r2, [r0, #82]	; 0x52
    huart->gState = HAL_UART_STATE_BUSY_TX;
 8002daa:	2421      	movs	r4, #33	; 0x21
    huart->ErrorCode = HAL_UART_ERROR_NONE;
 8002dac:	66c3      	str	r3, [r0, #108]	; 0x6c
    huart->gState = HAL_UART_STATE_BUSY_TX;
 8002dae:	f880 4069 	strb.w	r4, [r0, #105]	; 0x69
    SET_BIT(huart->Instance->CR1, USART_CR1_TXEIE);
 8002db2:	682c      	ldr	r4, [r5, #0]
    huart->pTxBuffPtr = pData;
 8002db4:	64c1      	str	r1, [r0, #76]	; 0x4c
    SET_BIT(huart->Instance->CR1, USART_CR1_TXEIE);
 8002db6:	f044 0480 	orr.w	r4, r4, #128	; 0x80
    huart->TxXferSize = Size;
 8002dba:	f8a0 2050 	strh.w	r2, [r0, #80]	; 0x50
    __HAL_UNLOCK(huart);
 8002dbe:	f880 3068 	strb.w	r3, [r0, #104]	; 0x68
    return HAL_OK;
 8002dc2:	4618      	mov	r0, r3
    SET_BIT(huart->Instance->CR1, USART_CR1_TXEIE);
 8002dc4:	602c      	str	r4, [r5, #0]
  }
}
 8002dc6:	bc30      	pop	{r4, r5}
 8002dc8:	4770      	bx	lr
      return HAL_ERROR;
 8002dca:	2001      	movs	r0, #1
 8002dcc:	4770      	bx	lr
 8002dce:	bf00      	nop

08002dd0 <HAL_UART_Receive_IT>:
  * @retval HAL status
  */
HAL_StatusTypeDef HAL_UART_Receive_IT(UART_HandleTypeDef *huart, uint8_t *pData, uint16_t Size)
{
  /* Check that a Rx process is not already ongoing */
  if(huart->RxState == HAL_UART_STATE_READY)
 8002dd0:	f890 306a 	ldrb.w	r3, [r0, #106]	; 0x6a
 8002dd4:	2b20      	cmp	r3, #32
 8002dd6:	d001      	beq.n	8002ddc <HAL_UART_Receive_IT+0xc>

    return HAL_OK;
  }
  else
  {
    return HAL_BUSY;
 8002dd8:	2002      	movs	r0, #2
  }
}
 8002dda:	4770      	bx	lr
    if((pData == NULL ) || (Size == 0U))
 8002ddc:	b349      	cbz	r1, 8002e32 <HAL_UART_Receive_IT+0x62>
 8002dde:	b342      	cbz	r2, 8002e32 <HAL_UART_Receive_IT+0x62>
    __HAL_LOCK(huart);
 8002de0:	f890 3068 	ldrb.w	r3, [r0, #104]	; 0x68
 8002de4:	2b01      	cmp	r3, #1
 8002de6:	d0f7      	beq.n	8002dd8 <HAL_UART_Receive_IT+0x8>
    UART_MASK_COMPUTATION(huart);
 8002de8:	6883      	ldr	r3, [r0, #8]
    huart->pRxBuffPtr = pData;
 8002dea:	6541      	str	r1, [r0, #84]	; 0x54
    UART_MASK_COMPUTATION(huart);
 8002dec:	f5b3 5f80 	cmp.w	r3, #4096	; 0x1000
    __HAL_LOCK(huart);
 8002df0:	f04f 0101 	mov.w	r1, #1
    huart->RxXferSize = Size;
 8002df4:	f8a0 2058 	strh.w	r2, [r0, #88]	; 0x58
    huart->RxXferCount = Size;
 8002df8:	f8a0 205a 	strh.w	r2, [r0, #90]	; 0x5a
    __HAL_LOCK(huart);
 8002dfc:	f880 1068 	strb.w	r1, [r0, #104]	; 0x68
    UART_MASK_COMPUTATION(huart);
 8002e00:	d027      	beq.n	8002e52 <HAL_UART_Receive_IT+0x82>
 8002e02:	b9c3      	cbnz	r3, 8002e36 <HAL_UART_Receive_IT+0x66>
 8002e04:	6903      	ldr	r3, [r0, #16]
 8002e06:	b303      	cbz	r3, 8002e4a <HAL_UART_Receive_IT+0x7a>
 8002e08:	237f      	movs	r3, #127	; 0x7f
 8002e0a:	f8a0 305c 	strh.w	r3, [r0, #92]	; 0x5c
    SET_BIT(huart->Instance->CR3, USART_CR3_EIE);
 8002e0e:	6802      	ldr	r2, [r0, #0]
    huart->ErrorCode = HAL_UART_ERROR_NONE;
 8002e10:	2300      	movs	r3, #0
    huart->RxState = HAL_UART_STATE_BUSY_RX;
 8002e12:	2122      	movs	r1, #34	; 0x22
    huart->ErrorCode = HAL_UART_ERROR_NONE;
 8002e14:	66c3      	str	r3, [r0, #108]	; 0x6c
    huart->RxState = HAL_UART_STATE_BUSY_RX;
 8002e16:	f880 106a 	strb.w	r1, [r0, #106]	; 0x6a
    SET_BIT(huart->Instance->CR3, USART_CR3_EIE);
 8002e1a:	6891      	ldr	r1, [r2, #8]
    __HAL_UNLOCK(huart);
 8002e1c:	f880 3068 	strb.w	r3, [r0, #104]	; 0x68
    SET_BIT(huart->Instance->CR3, USART_CR3_EIE);
 8002e20:	f041 0101 	orr.w	r1, r1, #1
 8002e24:	6091      	str	r1, [r2, #8]
    SET_BIT(huart->Instance->CR1, USART_CR1_PEIE | USART_CR1_RXNEIE);
 8002e26:	6811      	ldr	r1, [r2, #0]
 8002e28:	f441 7190 	orr.w	r1, r1, #288	; 0x120
    return HAL_OK;
 8002e2c:	4618      	mov	r0, r3
    SET_BIT(huart->Instance->CR1, USART_CR1_PEIE | USART_CR1_RXNEIE);
 8002e2e:	6011      	str	r1, [r2, #0]
    return HAL_OK;
 8002e30:	4770      	bx	lr
      return HAL_ERROR;
 8002e32:	2001      	movs	r0, #1
 8002e34:	4770      	bx	lr
    UART_MASK_COMPUTATION(huart);
 8002e36:	f1b3 5f80 	cmp.w	r3, #268435456	; 0x10000000
 8002e3a:	d1e8      	bne.n	8002e0e <HAL_UART_Receive_IT+0x3e>
 8002e3c:	6903      	ldr	r3, [r0, #16]
 8002e3e:	2b00      	cmp	r3, #0
 8002e40:	d0e2      	beq.n	8002e08 <HAL_UART_Receive_IT+0x38>
 8002e42:	233f      	movs	r3, #63	; 0x3f
 8002e44:	f8a0 305c 	strh.w	r3, [r0, #92]	; 0x5c
 8002e48:	e7e1      	b.n	8002e0e <HAL_UART_Receive_IT+0x3e>
 8002e4a:	23ff      	movs	r3, #255	; 0xff
 8002e4c:	f8a0 305c 	strh.w	r3, [r0, #92]	; 0x5c
 8002e50:	e7dd      	b.n	8002e0e <HAL_UART_Receive_IT+0x3e>
 8002e52:	6903      	ldr	r3, [r0, #16]
 8002e54:	2b00      	cmp	r3, #0
 8002e56:	d1f8      	bne.n	8002e4a <HAL_UART_Receive_IT+0x7a>
 8002e58:	f240 13ff 	movw	r3, #511	; 0x1ff
 8002e5c:	f8a0 305c 	strh.w	r3, [r0, #92]	; 0x5c
 8002e60:	e7d5      	b.n	8002e0e <HAL_UART_Receive_IT+0x3e>
 8002e62:	bf00      	nop

08002e64 <HAL_UART_TxCpltCallback>:
 8002e64:	4770      	bx	lr
 8002e66:	bf00      	nop

08002e68 <HAL_UART_ErrorCallback>:
 8002e68:	4770      	bx	lr
 8002e6a:	bf00      	nop

08002e6c <UART_DMAAbortOnError>:
  *         (To be called at end of DMA Abort procedure following error occurrence).
  * @param  hdma DMA handle.
  * @retval None
  */
static void UART_DMAAbortOnError(DMA_HandleTypeDef *hdma)
{
 8002e6c:	b508      	push	{r3, lr}
  UART_HandleTypeDef* huart = (UART_HandleTypeDef*)(hdma->Parent);
 8002e6e:	6a43      	ldr	r3, [r0, #36]	; 0x24
  huart->RxXferCount = 0U;
 8002e70:	2200      	movs	r2, #0
 8002e72:	f8a3 205a 	strh.w	r2, [r3, #90]	; 0x5a
  huart->TxXferCount = 0U;

  HAL_UART_ErrorCallback(huart);
 8002e76:	4618      	mov	r0, r3
  huart->TxXferCount = 0U;
 8002e78:	f8a3 2052 	strh.w	r2, [r3, #82]	; 0x52
  HAL_UART_ErrorCallback(huart);
 8002e7c:	f7ff fff4 	bl	8002e68 <HAL_UART_ErrorCallback>
 8002e80:	bd08      	pop	{r3, pc}
 8002e82:	bf00      	nop

08002e84 <HAL_UART_IRQHandler>:
  uint32_t isrflags   = READ_REG(huart->Instance->ISR);
 8002e84:	6803      	ldr	r3, [r0, #0]
 8002e86:	69da      	ldr	r2, [r3, #28]
  uint32_t cr1its     = READ_REG(huart->Instance->CR1);
 8002e88:	6819      	ldr	r1, [r3, #0]
{
 8002e8a:	b570      	push	{r4, r5, r6, lr}
 8002e8c:	4604      	mov	r4, r0
  if (errorflags == RESET)
 8002e8e:	0710      	lsls	r0, r2, #28
 8002e90:	d111      	bne.n	8002eb6 <HAL_UART_IRQHandler+0x32>
    if(((isrflags & USART_ISR_RXNE) != RESET) && ((cr1its & USART_CR1_RXNEIE) != RESET))
 8002e92:	0696      	lsls	r6, r2, #26
 8002e94:	d45f      	bmi.n	8002f56 <HAL_UART_IRQHandler+0xd2>
  cr3its = READ_REG(huart->Instance->CR3);
 8002e96:	6898      	ldr	r0, [r3, #8]
  if(((isrflags & USART_ISR_WUF) != RESET) && ((cr3its & USART_CR3_WUFIE) != RESET))
 8002e98:	02d5      	lsls	r5, r2, #11
 8002e9a:	d502      	bpl.n	8002ea2 <HAL_UART_IRQHandler+0x1e>
 8002e9c:	0240      	lsls	r0, r0, #9
 8002e9e:	f100 8088 	bmi.w	8002fb2 <HAL_UART_IRQHandler+0x12e>
  if(((isrflags & USART_ISR_TXE) != RESET) && ((cr1its & USART_CR1_TXEIE) != RESET))
 8002ea2:	0616      	lsls	r6, r2, #24
 8002ea4:	d502      	bpl.n	8002eac <HAL_UART_IRQHandler+0x28>
 8002ea6:	060d      	lsls	r5, r1, #24
 8002ea8:	f100 8094 	bmi.w	8002fd4 <HAL_UART_IRQHandler+0x150>
  if(((isrflags & USART_ISR_TC) != RESET) && ((cr1its & USART_CR1_TCIE) != RESET))
 8002eac:	0650      	lsls	r0, r2, #25
 8002eae:	d501      	bpl.n	8002eb4 <HAL_UART_IRQHandler+0x30>
 8002eb0:	064a      	lsls	r2, r1, #25
 8002eb2:	d46c      	bmi.n	8002f8e <HAL_UART_IRQHandler+0x10a>
 8002eb4:	bd70      	pop	{r4, r5, r6, pc}
  cr3its = READ_REG(huart->Instance->CR3);
 8002eb6:	6898      	ldr	r0, [r3, #8]
     && (   ((cr3its & USART_CR3_EIE) != RESET)
 8002eb8:	f010 0601 	ands.w	r6, r0, #1
 8002ebc:	461d      	mov	r5, r3
 8002ebe:	d055      	beq.n	8002f6c <HAL_UART_IRQHandler+0xe8>
    if(((isrflags & USART_ISR_PE) != RESET) && ((cr1its & USART_CR1_PEIE) != RESET))
 8002ec0:	07d0      	lsls	r0, r2, #31
 8002ec2:	d507      	bpl.n	8002ed4 <HAL_UART_IRQHandler+0x50>
 8002ec4:	05c8      	lsls	r0, r1, #23
 8002ec6:	d505      	bpl.n	8002ed4 <HAL_UART_IRQHandler+0x50>
      __HAL_UART_CLEAR_IT(huart, UART_CLEAR_PEF);
 8002ec8:	2001      	movs	r0, #1
 8002eca:	6218      	str	r0, [r3, #32]
      huart->ErrorCode |= HAL_UART_ERROR_PE;
 8002ecc:	6ee0      	ldr	r0, [r4, #108]	; 0x6c
 8002ece:	f040 0001 	orr.w	r0, r0, #1
 8002ed2:	66e0      	str	r0, [r4, #108]	; 0x6c
    if(((isrflags & USART_ISR_FE) != RESET) && ((cr3its & USART_CR3_EIE) != RESET))
 8002ed4:	0790      	lsls	r0, r2, #30
 8002ed6:	d54f      	bpl.n	8002f78 <HAL_UART_IRQHandler+0xf4>
 8002ed8:	b13e      	cbz	r6, 8002eea <HAL_UART_IRQHandler+0x66>
      __HAL_UART_CLEAR_IT(huart, UART_CLEAR_FEF);
 8002eda:	2002      	movs	r0, #2
 8002edc:	6218      	str	r0, [r3, #32]
      huart->ErrorCode |= HAL_UART_ERROR_FE;
 8002ede:	6ee0      	ldr	r0, [r4, #108]	; 0x6c
 8002ee0:	f040 0004 	orr.w	r0, r0, #4
 8002ee4:	66e0      	str	r0, [r4, #108]	; 0x6c
    if(((isrflags & USART_ISR_NE) != RESET) && ((cr3its & USART_CR3_EIE) != RESET))
 8002ee6:	0750      	lsls	r0, r2, #29
 8002ee8:	d44a      	bmi.n	8002f80 <HAL_UART_IRQHandler+0xfc>
    if(((isrflags & USART_ISR_ORE) != RESET) &&
 8002eea:	0710      	lsls	r0, r2, #28
 8002eec:	d503      	bpl.n	8002ef6 <HAL_UART_IRQHandler+0x72>
 8002eee:	0688      	lsls	r0, r1, #26
 8002ef0:	d458      	bmi.n	8002fa4 <HAL_UART_IRQHandler+0x120>
       (((cr1its & USART_CR1_RXNEIE) != RESET) || ((cr3its & USART_CR3_EIE) != RESET)))
 8002ef2:	2e00      	cmp	r6, #0
 8002ef4:	d156      	bne.n	8002fa4 <HAL_UART_IRQHandler+0x120>
    if(huart->ErrorCode != HAL_UART_ERROR_NONE)
 8002ef6:	6ee0      	ldr	r0, [r4, #108]	; 0x6c
 8002ef8:	2800      	cmp	r0, #0
 8002efa:	d0db      	beq.n	8002eb4 <HAL_UART_IRQHandler+0x30>
      if(((isrflags & USART_ISR_RXNE) != RESET) && ((cr1its & USART_CR1_RXNEIE) != RESET))
 8002efc:	0690      	lsls	r0, r2, #26
 8002efe:	d502      	bpl.n	8002f06 <HAL_UART_IRQHandler+0x82>
 8002f00:	068a      	lsls	r2, r1, #26
 8002f02:	f100 80a7 	bmi.w	8003054 <HAL_UART_IRQHandler+0x1d0>
      if (((huart->ErrorCode & HAL_UART_ERROR_ORE) != RESET) ||
 8002f06:	6ee3      	ldr	r3, [r4, #108]	; 0x6c
 8002f08:	071b      	lsls	r3, r3, #28
 8002f0a:	d404      	bmi.n	8002f16 <HAL_UART_IRQHandler+0x92>
          (HAL_IS_BIT_SET(huart->Instance->CR3, USART_CR3_DMAR)))
 8002f0c:	68ae      	ldr	r6, [r5, #8]
      if (((huart->ErrorCode & HAL_UART_ERROR_ORE) != RESET) ||
 8002f0e:	f016 0640 	ands.w	r6, r6, #64	; 0x40
 8002f12:	f000 80a8 	beq.w	8003066 <HAL_UART_IRQHandler+0x1e2>
  CLEAR_BIT(huart->Instance->CR1, (USART_CR1_RXNEIE | USART_CR1_PEIE));
 8002f16:	682b      	ldr	r3, [r5, #0]
 8002f18:	f423 7390 	bic.w	r3, r3, #288	; 0x120
 8002f1c:	602b      	str	r3, [r5, #0]
  CLEAR_BIT(huart->Instance->CR3, USART_CR3_EIE);
 8002f1e:	68ab      	ldr	r3, [r5, #8]
  huart->RxState = HAL_UART_STATE_READY;
 8002f20:	2220      	movs	r2, #32
  CLEAR_BIT(huart->Instance->CR3, USART_CR3_EIE);
 8002f22:	f023 0301 	bic.w	r3, r3, #1
 8002f26:	60ab      	str	r3, [r5, #8]
  huart->RxState = HAL_UART_STATE_READY;
 8002f28:	f884 206a 	strb.w	r2, [r4, #106]	; 0x6a
        if (HAL_IS_BIT_SET(huart->Instance->CR3, USART_CR3_DMAR))
 8002f2c:	68ab      	ldr	r3, [r5, #8]
 8002f2e:	065e      	lsls	r6, r3, #25
 8002f30:	d54c      	bpl.n	8002fcc <HAL_UART_IRQHandler+0x148>
          CLEAR_BIT(huart->Instance->CR3, USART_CR3_DMAR);
 8002f32:	68ab      	ldr	r3, [r5, #8]
          if(huart->hdmarx != NULL)
 8002f34:	6e60      	ldr	r0, [r4, #100]	; 0x64
          CLEAR_BIT(huart->Instance->CR3, USART_CR3_DMAR);
 8002f36:	f023 0340 	bic.w	r3, r3, #64	; 0x40
 8002f3a:	60ab      	str	r3, [r5, #8]
          if(huart->hdmarx != NULL)
 8002f3c:	2800      	cmp	r0, #0
 8002f3e:	d045      	beq.n	8002fcc <HAL_UART_IRQHandler+0x148>
            huart->hdmarx->XferAbortCallback = UART_DMAAbortOnError;
 8002f40:	4b72      	ldr	r3, [pc, #456]	; (800310c <HAL_UART_IRQHandler+0x288>)
 8002f42:	6343      	str	r3, [r0, #52]	; 0x34
            if(HAL_DMA_Abort_IT(huart->hdmarx) != HAL_OK)
 8002f44:	f7fe fe2c 	bl	8001ba0 <HAL_DMA_Abort_IT>
 8002f48:	2800      	cmp	r0, #0
 8002f4a:	d0b3      	beq.n	8002eb4 <HAL_UART_IRQHandler+0x30>
              huart->hdmarx->XferAbortCallback(huart->hdmarx);
 8002f4c:	6e60      	ldr	r0, [r4, #100]	; 0x64
}
 8002f4e:	e8bd 4070 	ldmia.w	sp!, {r4, r5, r6, lr}
              huart->hdmarx->XferAbortCallback(huart->hdmarx);
 8002f52:	6b43      	ldr	r3, [r0, #52]	; 0x34
 8002f54:	4718      	bx	r3
    if(((isrflags & USART_ISR_RXNE) != RESET) && ((cr1its & USART_CR1_RXNEIE) != RESET))
 8002f56:	068d      	lsls	r5, r1, #26
 8002f58:	d59d      	bpl.n	8002e96 <HAL_UART_IRQHandler+0x12>
  uint16_t* tmp;
  uint16_t  uhMask = huart->Mask;
  uint16_t  uhdata;

  /* Check that a Rx process is ongoing */
  if(huart->RxState == HAL_UART_STATE_BUSY_RX)
 8002f5a:	f894 206a 	ldrb.w	r2, [r4, #106]	; 0x6a
 8002f5e:	2a22      	cmp	r2, #34	; 0x22
 8002f60:	d052      	beq.n	8003008 <HAL_UART_IRQHandler+0x184>
    return HAL_OK;
  }
  else
  {
    /* Clear RXNE interrupt flag */
    __HAL_UART_SEND_REQ(huart, UART_RXDATA_FLUSH_REQUEST);
 8002f62:	699a      	ldr	r2, [r3, #24]
 8002f64:	f042 0208 	orr.w	r2, r2, #8
 8002f68:	619a      	str	r2, [r3, #24]
 8002f6a:	bd70      	pop	{r4, r5, r6, pc}
         || ((cr1its & (USART_CR1_RXNEIE | USART_CR1_PEIE)) != RESET)) )
 8002f6c:	f411 7f90 	tst.w	r1, #288	; 0x120
 8002f70:	d092      	beq.n	8002e98 <HAL_UART_IRQHandler+0x14>
    if(((isrflags & USART_ISR_PE) != RESET) && ((cr1its & USART_CR1_PEIE) != RESET))
 8002f72:	07d0      	lsls	r0, r2, #31
 8002f74:	d5ae      	bpl.n	8002ed4 <HAL_UART_IRQHandler+0x50>
 8002f76:	e7a5      	b.n	8002ec4 <HAL_UART_IRQHandler+0x40>
    if(((isrflags & USART_ISR_NE) != RESET) && ((cr3its & USART_CR3_EIE) != RESET))
 8002f78:	0750      	lsls	r0, r2, #29
 8002f7a:	d5b6      	bpl.n	8002eea <HAL_UART_IRQHandler+0x66>
 8002f7c:	2e00      	cmp	r6, #0
 8002f7e:	d0b4      	beq.n	8002eea <HAL_UART_IRQHandler+0x66>
      __HAL_UART_CLEAR_IT(huart, UART_CLEAR_NEF);
 8002f80:	2004      	movs	r0, #4
 8002f82:	6218      	str	r0, [r3, #32]
      huart->ErrorCode |= HAL_UART_ERROR_NE;
 8002f84:	6ee0      	ldr	r0, [r4, #108]	; 0x6c
 8002f86:	f040 0002 	orr.w	r0, r0, #2
 8002f8a:	66e0      	str	r0, [r4, #108]	; 0x6c
 8002f8c:	e7ad      	b.n	8002eea <HAL_UART_IRQHandler+0x66>
  CLEAR_BIT(huart->Instance->CR1, USART_CR1_TCIE);
 8002f8e:	681a      	ldr	r2, [r3, #0]
  huart->gState = HAL_UART_STATE_READY;
 8002f90:	2120      	movs	r1, #32
  CLEAR_BIT(huart->Instance->CR1, USART_CR1_TCIE);
 8002f92:	f022 0240 	bic.w	r2, r2, #64	; 0x40
 8002f96:	601a      	str	r2, [r3, #0]
  HAL_UART_TxCpltCallback(huart);
 8002f98:	4620      	mov	r0, r4
  huart->gState = HAL_UART_STATE_READY;
 8002f9a:	f884 1069 	strb.w	r1, [r4, #105]	; 0x69
  HAL_UART_TxCpltCallback(huart);
 8002f9e:	f7ff ff61 	bl	8002e64 <HAL_UART_TxCpltCallback>
 8002fa2:	bd70      	pop	{r4, r5, r6, pc}
      __HAL_UART_CLEAR_IT(huart, UART_CLEAR_OREF);
 8002fa4:	2008      	movs	r0, #8
 8002fa6:	6218      	str	r0, [r3, #32]
      huart->ErrorCode |= HAL_UART_ERROR_ORE;
 8002fa8:	6ee0      	ldr	r0, [r4, #108]	; 0x6c
 8002faa:	f040 0008 	orr.w	r0, r0, #8
 8002fae:	66e0      	str	r0, [r4, #108]	; 0x6c
 8002fb0:	e7a1      	b.n	8002ef6 <HAL_UART_IRQHandler+0x72>
    huart->gState  = HAL_UART_STATE_READY;
 8002fb2:	2220      	movs	r2, #32
    __HAL_UART_CLEAR_IT(huart, UART_CLEAR_WUF);
 8002fb4:	f44f 1180 	mov.w	r1, #1048576	; 0x100000
 8002fb8:	6219      	str	r1, [r3, #32]
    HAL_UARTEx_WakeupCallback(huart);
 8002fba:	4620      	mov	r0, r4
    huart->gState  = HAL_UART_STATE_READY;
 8002fbc:	f884 2069 	strb.w	r2, [r4, #105]	; 0x69
    huart->RxState = HAL_UART_STATE_READY;
 8002fc0:	f884 206a 	strb.w	r2, [r4, #106]	; 0x6a
}
 8002fc4:	e8bd 4070 	ldmia.w	sp!, {r4, r5, r6, lr}
    HAL_UARTEx_WakeupCallback(huart);
 8002fc8:	f000 ba26 	b.w	8003418 <HAL_UARTEx_WakeupCallback>
            HAL_UART_ErrorCallback(huart);
 8002fcc:	4620      	mov	r0, r4
 8002fce:	f7ff ff4b 	bl	8002e68 <HAL_UART_ErrorCallback>
 8002fd2:	bd70      	pop	{r4, r5, r6, pc}
  if (huart->gState == HAL_UART_STATE_BUSY_TX)
 8002fd4:	f894 2069 	ldrb.w	r2, [r4, #105]	; 0x69
 8002fd8:	2a21      	cmp	r2, #33	; 0x21
 8002fda:	f47f af6b 	bne.w	8002eb4 <HAL_UART_IRQHandler+0x30>
    if(huart->TxXferCount == 0U)
 8002fde:	f8b4 2052 	ldrh.w	r2, [r4, #82]	; 0x52
 8002fe2:	b292      	uxth	r2, r2
 8002fe4:	2a00      	cmp	r2, #0
 8002fe6:	d05a      	beq.n	800309e <HAL_UART_IRQHandler+0x21a>
      if ((huart->Init.WordLength == UART_WORDLENGTH_9B) && (huart->Init.Parity == UART_PARITY_NONE))
 8002fe8:	68a2      	ldr	r2, [r4, #8]
 8002fea:	f5b2 5f80 	cmp.w	r2, #4096	; 0x1000
 8002fee:	d068      	beq.n	80030c2 <HAL_UART_IRQHandler+0x23e>
        huart->Instance->TDR = (uint8_t)(*huart->pTxBuffPtr++ & (uint8_t)0xFFU);
 8002ff0:	6ce2      	ldr	r2, [r4, #76]	; 0x4c
 8002ff2:	1c51      	adds	r1, r2, #1
 8002ff4:	64e1      	str	r1, [r4, #76]	; 0x4c
 8002ff6:	7812      	ldrb	r2, [r2, #0]
 8002ff8:	851a      	strh	r2, [r3, #40]	; 0x28
      huart->TxXferCount--;
 8002ffa:	f8b4 3052 	ldrh.w	r3, [r4, #82]	; 0x52
 8002ffe:	3b01      	subs	r3, #1
 8003000:	b29b      	uxth	r3, r3
 8003002:	f8a4 3052 	strh.w	r3, [r4, #82]	; 0x52
 8003006:	bd70      	pop	{r4, r5, r6, pc}
    if ((huart->Init.WordLength == UART_WORDLENGTH_9B) && (huart->Init.Parity == UART_PARITY_NONE))
 8003008:	68a2      	ldr	r2, [r4, #8]
    uhdata = (uint16_t) READ_REG(huart->Instance->RDR);
 800300a:	8c9b      	ldrh	r3, [r3, #36]	; 0x24
  uint16_t  uhMask = huart->Mask;
 800300c:	f8b4 105c 	ldrh.w	r1, [r4, #92]	; 0x5c
    if ((huart->Init.WordLength == UART_WORDLENGTH_9B) && (huart->Init.Parity == UART_PARITY_NONE))
 8003010:	f5b2 5f80 	cmp.w	r2, #4096	; 0x1000
    uhdata = (uint16_t) READ_REG(huart->Instance->RDR);
 8003014:	b29b      	uxth	r3, r3
    if ((huart->Init.WordLength == UART_WORDLENGTH_9B) && (huart->Init.Parity == UART_PARITY_NONE))
 8003016:	d04b      	beq.n	80030b0 <HAL_UART_IRQHandler+0x22c>
      *huart->pRxBuffPtr++ = (uint8_t)(uhdata & (uint8_t)uhMask);
 8003018:	6d62      	ldr	r2, [r4, #84]	; 0x54
 800301a:	400b      	ands	r3, r1
 800301c:	1c51      	adds	r1, r2, #1
 800301e:	6561      	str	r1, [r4, #84]	; 0x54
 8003020:	7013      	strb	r3, [r2, #0]
    if(--huart->RxXferCount == 0U)
 8003022:	f8b4 305a 	ldrh.w	r3, [r4, #90]	; 0x5a
 8003026:	3b01      	subs	r3, #1
 8003028:	b29b      	uxth	r3, r3
 800302a:	f8a4 305a 	strh.w	r3, [r4, #90]	; 0x5a
 800302e:	2b00      	cmp	r3, #0
 8003030:	f47f af40 	bne.w	8002eb4 <HAL_UART_IRQHandler+0x30>
      CLEAR_BIT(huart->Instance->CR1, (USART_CR1_RXNEIE | USART_CR1_PEIE));
 8003034:	6823      	ldr	r3, [r4, #0]
 8003036:	681a      	ldr	r2, [r3, #0]
 8003038:	f422 7290 	bic.w	r2, r2, #288	; 0x120
 800303c:	601a      	str	r2, [r3, #0]
      CLEAR_BIT(huart->Instance->CR3, USART_CR3_EIE);
 800303e:	689a      	ldr	r2, [r3, #8]
      huart->RxState = HAL_UART_STATE_READY;
 8003040:	2120      	movs	r1, #32
      CLEAR_BIT(huart->Instance->CR3, USART_CR3_EIE);
 8003042:	f022 0201 	bic.w	r2, r2, #1
 8003046:	609a      	str	r2, [r3, #8]
      HAL_UART_RxCpltCallback(huart);
 8003048:	4620      	mov	r0, r4
      huart->RxState = HAL_UART_STATE_READY;
 800304a:	f884 106a 	strb.w	r1, [r4, #106]	; 0x6a
      HAL_UART_RxCpltCallback(huart);
 800304e:	f000 fac7 	bl	80035e0 <HAL_UART_RxCpltCallback>
 8003052:	bd70      	pop	{r4, r5, r6, pc}
  if(huart->RxState == HAL_UART_STATE_BUSY_RX)
 8003054:	f894 206a 	ldrb.w	r2, [r4, #106]	; 0x6a
 8003058:	2a22      	cmp	r2, #34	; 0x22
 800305a:	d009      	beq.n	8003070 <HAL_UART_IRQHandler+0x1ec>
    __HAL_UART_SEND_REQ(huart, UART_RXDATA_FLUSH_REQUEST);
 800305c:	699a      	ldr	r2, [r3, #24]
 800305e:	f042 0208 	orr.w	r2, r2, #8
 8003062:	619a      	str	r2, [r3, #24]
 8003064:	e74f      	b.n	8002f06 <HAL_UART_IRQHandler+0x82>
        HAL_UART_ErrorCallback(huart);
 8003066:	4620      	mov	r0, r4
 8003068:	f7ff fefe 	bl	8002e68 <HAL_UART_ErrorCallback>
        huart->ErrorCode = HAL_UART_ERROR_NONE;
 800306c:	66e6      	str	r6, [r4, #108]	; 0x6c
 800306e:	bd70      	pop	{r4, r5, r6, pc}
    if ((huart->Init.WordLength == UART_WORDLENGTH_9B) && (huart->Init.Parity == UART_PARITY_NONE))
 8003070:	68a0      	ldr	r0, [r4, #8]
    uhdata = (uint16_t) READ_REG(huart->Instance->RDR);
 8003072:	8c9a      	ldrh	r2, [r3, #36]	; 0x24
  uint16_t  uhMask = huart->Mask;
 8003074:	f8b4 105c 	ldrh.w	r1, [r4, #92]	; 0x5c
    if ((huart->Init.WordLength == UART_WORDLENGTH_9B) && (huart->Init.Parity == UART_PARITY_NONE))
 8003078:	f5b0 5f80 	cmp.w	r0, #4096	; 0x1000
    uhdata = (uint16_t) READ_REG(huart->Instance->RDR);
 800307c:	b292      	uxth	r2, r2
    if ((huart->Init.WordLength == UART_WORDLENGTH_9B) && (huart->Init.Parity == UART_PARITY_NONE))
 800307e:	d03b      	beq.n	80030f8 <HAL_UART_IRQHandler+0x274>
      *huart->pRxBuffPtr++ = (uint8_t)(uhdata & (uint8_t)uhMask);
 8003080:	6d63      	ldr	r3, [r4, #84]	; 0x54
 8003082:	400a      	ands	r2, r1
 8003084:	1c59      	adds	r1, r3, #1
 8003086:	6561      	str	r1, [r4, #84]	; 0x54
 8003088:	701a      	strb	r2, [r3, #0]
 800308a:	6823      	ldr	r3, [r4, #0]
    if(--huart->RxXferCount == 0U)
 800308c:	f8b4 205a 	ldrh.w	r2, [r4, #90]	; 0x5a
 8003090:	3a01      	subs	r2, #1
 8003092:	b292      	uxth	r2, r2
 8003094:	f8a4 205a 	strh.w	r2, [r4, #90]	; 0x5a
 8003098:	b1f2      	cbz	r2, 80030d8 <HAL_UART_IRQHandler+0x254>
 800309a:	461d      	mov	r5, r3
 800309c:	e733      	b.n	8002f06 <HAL_UART_IRQHandler+0x82>
      CLEAR_BIT(huart->Instance->CR1, USART_CR1_TXEIE);
 800309e:	681a      	ldr	r2, [r3, #0]
 80030a0:	f022 0280 	bic.w	r2, r2, #128	; 0x80
 80030a4:	601a      	str	r2, [r3, #0]
      SET_BIT(huart->Instance->CR1, USART_CR1_TCIE);
 80030a6:	681a      	ldr	r2, [r3, #0]
 80030a8:	f042 0240 	orr.w	r2, r2, #64	; 0x40
 80030ac:	601a      	str	r2, [r3, #0]
 80030ae:	bd70      	pop	{r4, r5, r6, pc}
    if ((huart->Init.WordLength == UART_WORDLENGTH_9B) && (huart->Init.Parity == UART_PARITY_NONE))
 80030b0:	6922      	ldr	r2, [r4, #16]
 80030b2:	2a00      	cmp	r2, #0
 80030b4:	d1b0      	bne.n	8003018 <HAL_UART_IRQHandler+0x194>
      *tmp = (uint16_t)(uhdata & uhMask);
 80030b6:	6d62      	ldr	r2, [r4, #84]	; 0x54
 80030b8:	400b      	ands	r3, r1
 80030ba:	f822 3b02 	strh.w	r3, [r2], #2
      huart->pRxBuffPtr +=2U;
 80030be:	6562      	str	r2, [r4, #84]	; 0x54
 80030c0:	e7af      	b.n	8003022 <HAL_UART_IRQHandler+0x19e>
      if ((huart->Init.WordLength == UART_WORDLENGTH_9B) && (huart->Init.Parity == UART_PARITY_NONE))
 80030c2:	6922      	ldr	r2, [r4, #16]
 80030c4:	2a00      	cmp	r2, #0
 80030c6:	d193      	bne.n	8002ff0 <HAL_UART_IRQHandler+0x16c>
        huart->Instance->TDR = (*tmp & (uint16_t)0x01FFU);
 80030c8:	6ce2      	ldr	r2, [r4, #76]	; 0x4c
 80030ca:	f832 1b02 	ldrh.w	r1, [r2], #2
 80030ce:	f3c1 0108 	ubfx	r1, r1, #0, #9
 80030d2:	8519      	strh	r1, [r3, #40]	; 0x28
        huart->pTxBuffPtr += 2U;
 80030d4:	64e2      	str	r2, [r4, #76]	; 0x4c
 80030d6:	e790      	b.n	8002ffa <HAL_UART_IRQHandler+0x176>
      CLEAR_BIT(huart->Instance->CR1, (USART_CR1_RXNEIE | USART_CR1_PEIE));
 80030d8:	681a      	ldr	r2, [r3, #0]
 80030da:	f422 7290 	bic.w	r2, r2, #288	; 0x120
 80030de:	601a      	str	r2, [r3, #0]
      CLEAR_BIT(huart->Instance->CR3, USART_CR3_EIE);
 80030e0:	689a      	ldr	r2, [r3, #8]
      huart->RxState = HAL_UART_STATE_READY;
 80030e2:	2120      	movs	r1, #32
      CLEAR_BIT(huart->Instance->CR3, USART_CR3_EIE);
 80030e4:	f022 0201 	bic.w	r2, r2, #1
 80030e8:	609a      	str	r2, [r3, #8]
      HAL_UART_RxCpltCallback(huart);
 80030ea:	4620      	mov	r0, r4
      huart->RxState = HAL_UART_STATE_READY;
 80030ec:	f884 106a 	strb.w	r1, [r4, #106]	; 0x6a
      HAL_UART_RxCpltCallback(huart);
 80030f0:	f000 fa76 	bl	80035e0 <HAL_UART_RxCpltCallback>
 80030f4:	6825      	ldr	r5, [r4, #0]
 80030f6:	e706      	b.n	8002f06 <HAL_UART_IRQHandler+0x82>
    if ((huart->Init.WordLength == UART_WORDLENGTH_9B) && (huart->Init.Parity == UART_PARITY_NONE))
 80030f8:	6920      	ldr	r0, [r4, #16]
 80030fa:	2800      	cmp	r0, #0
 80030fc:	d1c0      	bne.n	8003080 <HAL_UART_IRQHandler+0x1fc>
      *tmp = (uint16_t)(uhdata & uhMask);
 80030fe:	6d60      	ldr	r0, [r4, #84]	; 0x54
 8003100:	400a      	ands	r2, r1
 8003102:	f820 2b02 	strh.w	r2, [r0], #2
      huart->pRxBuffPtr +=2U;
 8003106:	6560      	str	r0, [r4, #84]	; 0x54
 8003108:	e7c0      	b.n	800308c <HAL_UART_IRQHandler+0x208>
 800310a:	bf00      	nop
 800310c:	08002e6d 	.word	0x08002e6d

08003110 <UART_AdvFeatureConfig>:
  if(HAL_IS_BIT_SET(huart->AdvancedInit.AdvFeatureInit, UART_ADVFEATURE_TXINVERT_INIT))
 8003110:	6a43      	ldr	r3, [r0, #36]	; 0x24
 8003112:	07da      	lsls	r2, r3, #31
{
 8003114:	b410      	push	{r4}
  if(HAL_IS_BIT_SET(huart->AdvancedInit.AdvFeatureInit, UART_ADVFEATURE_TXINVERT_INIT))
 8003116:	d506      	bpl.n	8003126 <UART_AdvFeatureConfig+0x16>
    MODIFY_REG(huart->Instance->CR2, USART_CR2_TXINV, huart->AdvancedInit.TxPinLevelInvert);
 8003118:	6801      	ldr	r1, [r0, #0]
 800311a:	6a84      	ldr	r4, [r0, #40]	; 0x28
 800311c:	684a      	ldr	r2, [r1, #4]
 800311e:	f422 3200 	bic.w	r2, r2, #131072	; 0x20000
 8003122:	4322      	orrs	r2, r4
 8003124:	604a      	str	r2, [r1, #4]
  if(HAL_IS_BIT_SET(huart->AdvancedInit.AdvFeatureInit, UART_ADVFEATURE_RXINVERT_INIT))
 8003126:	079c      	lsls	r4, r3, #30
 8003128:	d506      	bpl.n	8003138 <UART_AdvFeatureConfig+0x28>
    MODIFY_REG(huart->Instance->CR2, USART_CR2_RXINV, huart->AdvancedInit.RxPinLevelInvert);
 800312a:	6801      	ldr	r1, [r0, #0]
 800312c:	6ac4      	ldr	r4, [r0, #44]	; 0x2c
 800312e:	684a      	ldr	r2, [r1, #4]
 8003130:	f422 3280 	bic.w	r2, r2, #65536	; 0x10000
 8003134:	4322      	orrs	r2, r4
 8003136:	604a      	str	r2, [r1, #4]
  if(HAL_IS_BIT_SET(huart->AdvancedInit.AdvFeatureInit, UART_ADVFEATURE_DATAINVERT_INIT))
 8003138:	0759      	lsls	r1, r3, #29
 800313a:	d506      	bpl.n	800314a <UART_AdvFeatureConfig+0x3a>
    MODIFY_REG(huart->Instance->CR2, USART_CR2_DATAINV, huart->AdvancedInit.DataInvert);
 800313c:	6801      	ldr	r1, [r0, #0]
 800313e:	6b04      	ldr	r4, [r0, #48]	; 0x30
 8003140:	684a      	ldr	r2, [r1, #4]
 8003142:	f422 2280 	bic.w	r2, r2, #262144	; 0x40000
 8003146:	4322      	orrs	r2, r4
 8003148:	604a      	str	r2, [r1, #4]
  if(HAL_IS_BIT_SET(huart->AdvancedInit.AdvFeatureInit, UART_ADVFEATURE_SWAP_INIT))
 800314a:	071a      	lsls	r2, r3, #28
 800314c:	d506      	bpl.n	800315c <UART_AdvFeatureConfig+0x4c>
    MODIFY_REG(huart->Instance->CR2, USART_CR2_SWAP, huart->AdvancedInit.Swap);
 800314e:	6801      	ldr	r1, [r0, #0]
 8003150:	6b44      	ldr	r4, [r0, #52]	; 0x34
 8003152:	684a      	ldr	r2, [r1, #4]
 8003154:	f422 4200 	bic.w	r2, r2, #32768	; 0x8000
 8003158:	4322      	orrs	r2, r4
 800315a:	604a      	str	r2, [r1, #4]
  if(HAL_IS_BIT_SET(huart->AdvancedInit.AdvFeatureInit, UART_ADVFEATURE_RXOVERRUNDISABLE_INIT))
 800315c:	06dc      	lsls	r4, r3, #27
 800315e:	d506      	bpl.n	800316e <UART_AdvFeatureConfig+0x5e>
    MODIFY_REG(huart->Instance->CR3, USART_CR3_OVRDIS, huart->AdvancedInit.OverrunDisable);
 8003160:	6801      	ldr	r1, [r0, #0]
 8003162:	6b84      	ldr	r4, [r0, #56]	; 0x38
 8003164:	688a      	ldr	r2, [r1, #8]
 8003166:	f422 5280 	bic.w	r2, r2, #4096	; 0x1000
 800316a:	4322      	orrs	r2, r4
 800316c:	608a      	str	r2, [r1, #8]
  if(HAL_IS_BIT_SET(huart->AdvancedInit.AdvFeatureInit, UART_ADVFEATURE_DMADISABLEONERROR_INIT))
 800316e:	0699      	lsls	r1, r3, #26
 8003170:	d506      	bpl.n	8003180 <UART_AdvFeatureConfig+0x70>
    MODIFY_REG(huart->Instance->CR3, USART_CR3_DDRE, huart->AdvancedInit.DMADisableonRxError);
 8003172:	6801      	ldr	r1, [r0, #0]
 8003174:	6bc4      	ldr	r4, [r0, #60]	; 0x3c
 8003176:	688a      	ldr	r2, [r1, #8]
 8003178:	f422 5200 	bic.w	r2, r2, #8192	; 0x2000
 800317c:	4322      	orrs	r2, r4
 800317e:	608a      	str	r2, [r1, #8]
  if(HAL_IS_BIT_SET(huart->AdvancedInit.AdvFeatureInit, UART_ADVFEATURE_AUTOBAUDRATE_INIT))
 8003180:	065a      	lsls	r2, r3, #25
 8003182:	d509      	bpl.n	8003198 <UART_AdvFeatureConfig+0x88>
    MODIFY_REG(huart->Instance->CR2, USART_CR2_ABREN, huart->AdvancedInit.AutoBaudRateEnable);
 8003184:	6801      	ldr	r1, [r0, #0]
 8003186:	6c04      	ldr	r4, [r0, #64]	; 0x40
 8003188:	684a      	ldr	r2, [r1, #4]
 800318a:	f422 1280 	bic.w	r2, r2, #1048576	; 0x100000
 800318e:	4322      	orrs	r2, r4
    if(huart->AdvancedInit.AutoBaudRateEnable == UART_ADVFEATURE_AUTOBAUDRATE_ENABLE)
 8003190:	f5b4 1f80 	cmp.w	r4, #1048576	; 0x100000
    MODIFY_REG(huart->Instance->CR2, USART_CR2_ABREN, huart->AdvancedInit.AutoBaudRateEnable);
 8003194:	604a      	str	r2, [r1, #4]
    if(huart->AdvancedInit.AutoBaudRateEnable == UART_ADVFEATURE_AUTOBAUDRATE_ENABLE)
 8003196:	d00b      	beq.n	80031b0 <UART_AdvFeatureConfig+0xa0>
  if(HAL_IS_BIT_SET(huart->AdvancedInit.AdvFeatureInit, UART_ADVFEATURE_MSBFIRST_INIT))
 8003198:	061b      	lsls	r3, r3, #24
 800319a:	d506      	bpl.n	80031aa <UART_AdvFeatureConfig+0x9a>
    MODIFY_REG(huart->Instance->CR2, USART_CR2_MSBFIRST, huart->AdvancedInit.MSBFirst);
 800319c:	6802      	ldr	r2, [r0, #0]
 800319e:	6c81      	ldr	r1, [r0, #72]	; 0x48
 80031a0:	6853      	ldr	r3, [r2, #4]
 80031a2:	f423 2300 	bic.w	r3, r3, #524288	; 0x80000
 80031a6:	430b      	orrs	r3, r1
 80031a8:	6053      	str	r3, [r2, #4]
}
 80031aa:	f85d 4b04 	ldr.w	r4, [sp], #4
 80031ae:	4770      	bx	lr
      MODIFY_REG(huart->Instance->CR2, USART_CR2_ABRMODE, huart->AdvancedInit.AutoBaudRateMode);
 80031b0:	684a      	ldr	r2, [r1, #4]
 80031b2:	6c44      	ldr	r4, [r0, #68]	; 0x44
 80031b4:	f422 02c0 	bic.w	r2, r2, #6291456	; 0x600000
 80031b8:	4322      	orrs	r2, r4
 80031ba:	604a      	str	r2, [r1, #4]
 80031bc:	e7ec      	b.n	8003198 <UART_AdvFeatureConfig+0x88>
 80031be:	bf00      	nop

080031c0 <HAL_UART_Init>:
  if(huart == NULL)
 80031c0:	2800      	cmp	r0, #0
 80031c2:	f000 80af 	beq.w	8003324 <HAL_UART_Init+0x164>
{
 80031c6:	b5f8      	push	{r3, r4, r5, r6, r7, lr}
  if(huart->gState == HAL_UART_STATE_RESET)
 80031c8:	f890 3069 	ldrb.w	r3, [r0, #105]	; 0x69
 80031cc:	4604      	mov	r4, r0
 80031ce:	f003 02ff 	and.w	r2, r3, #255	; 0xff
 80031d2:	2b00      	cmp	r3, #0
 80031d4:	d031      	beq.n	800323a <HAL_UART_Init+0x7a>
  __HAL_UART_DISABLE(huart);
 80031d6:	6825      	ldr	r5, [r4, #0]
  tmpreg = (uint32_t)huart->Init.WordLength | huart->Init.Parity | huart->Init.Mode | huart->Init.OverSampling ;
 80031d8:	6927      	ldr	r7, [r4, #16]
 80031da:	6966      	ldr	r6, [r4, #20]
 80031dc:	69e1      	ldr	r1, [r4, #28]
  MODIFY_REG(huart->Instance->CR1, UART_CR1_FIELDS, tmpreg);
 80031de:	4a89      	ldr	r2, [pc, #548]	; (8003404 <HAL_UART_Init+0x244>)
  huart->gState = HAL_UART_STATE_BUSY;
 80031e0:	2324      	movs	r3, #36	; 0x24
 80031e2:	f884 3069 	strb.w	r3, [r4, #105]	; 0x69
  __HAL_UART_DISABLE(huart);
 80031e6:	6828      	ldr	r0, [r5, #0]
  tmpreg = (uint32_t)huart->Init.WordLength | huart->Init.Parity | huart->Init.Mode | huart->Init.OverSampling ;
 80031e8:	68a3      	ldr	r3, [r4, #8]
  __HAL_UART_DISABLE(huart);
 80031ea:	f020 0001 	bic.w	r0, r0, #1
 80031ee:	6028      	str	r0, [r5, #0]
  MODIFY_REG(huart->Instance->CR1, UART_CR1_FIELDS, tmpreg);
 80031f0:	6828      	ldr	r0, [r5, #0]
  tmpreg = (uint32_t)huart->Init.WordLength | huart->Init.Parity | huart->Init.Mode | huart->Init.OverSampling ;
 80031f2:	433b      	orrs	r3, r7
 80031f4:	4333      	orrs	r3, r6
  MODIFY_REG(huart->Instance->CR1, UART_CR1_FIELDS, tmpreg);
 80031f6:	4002      	ands	r2, r0
  tmpreg = (uint32_t)huart->Init.WordLength | huart->Init.Parity | huart->Init.Mode | huart->Init.OverSampling ;
 80031f8:	430b      	orrs	r3, r1
  MODIFY_REG(huart->Instance->CR1, UART_CR1_FIELDS, tmpreg);
 80031fa:	4313      	orrs	r3, r2
 80031fc:	602b      	str	r3, [r5, #0]
  MODIFY_REG(huart->Instance->CR2, USART_CR2_STOP, huart->Init.StopBits);
 80031fe:	686a      	ldr	r2, [r5, #4]
 8003200:	68e6      	ldr	r6, [r4, #12]
  tmpreg = (uint32_t)huart->Init.HwFlowCtl | huart->Init.OneBitSampling ;
 8003202:	69a3      	ldr	r3, [r4, #24]
 8003204:	6a27      	ldr	r7, [r4, #32]
  UART_GETCLOCKSOURCE(huart, clocksource);
 8003206:	4880      	ldr	r0, [pc, #512]	; (8003408 <HAL_UART_Init+0x248>)
  MODIFY_REG(huart->Instance->CR2, USART_CR2_STOP, huart->Init.StopBits);
 8003208:	f422 5240 	bic.w	r2, r2, #12288	; 0x3000
 800320c:	4332      	orrs	r2, r6
 800320e:	606a      	str	r2, [r5, #4]
  MODIFY_REG(huart->Instance->CR3, (USART_CR3_RTSE | USART_CR3_CTSE | USART_CR3_ONEBIT), tmpreg);
 8003210:	68aa      	ldr	r2, [r5, #8]
  tmpreg = (uint32_t)huart->Init.HwFlowCtl | huart->Init.OneBitSampling ;
 8003212:	433b      	orrs	r3, r7
  MODIFY_REG(huart->Instance->CR3, (USART_CR3_RTSE | USART_CR3_CTSE | USART_CR3_ONEBIT), tmpreg);
 8003214:	f422 6230 	bic.w	r2, r2, #2816	; 0xb00
 8003218:	4313      	orrs	r3, r2
  UART_GETCLOCKSOURCE(huart, clocksource);
 800321a:	4285      	cmp	r5, r0
  MODIFY_REG(huart->Instance->CR3, (USART_CR3_RTSE | USART_CR3_CTSE | USART_CR3_ONEBIT), tmpreg);
 800321c:	60ab      	str	r3, [r5, #8]
  UART_GETCLOCKSOURCE(huart, clocksource);
 800321e:	d06f      	beq.n	8003300 <HAL_UART_Init+0x140>
 8003220:	4b7a      	ldr	r3, [pc, #488]	; (800340c <HAL_UART_Init+0x24c>)
 8003222:	429d      	cmp	r5, r3
 8003224:	d00e      	beq.n	8003244 <HAL_UART_Init+0x84>
 8003226:	f503 6380 	add.w	r3, r3, #1024	; 0x400
 800322a:	429d      	cmp	r5, r3
 800322c:	d00a      	beq.n	8003244 <HAL_UART_Init+0x84>
  if (huart->Init.OverSampling == UART_OVERSAMPLING_8)
 800322e:	f5b1 4f00 	cmp.w	r1, #32768	; 0x8000
 8003232:	f000 80a2 	beq.w	800337a <HAL_UART_Init+0x1ba>
    return HAL_ERROR;
 8003236:	2001      	movs	r0, #1
 8003238:	bdf8      	pop	{r3, r4, r5, r6, r7, pc}
    huart->Lock = HAL_UNLOCKED;
 800323a:	f880 2068 	strb.w	r2, [r0, #104]	; 0x68
    HAL_UART_MspInit(huart);
 800323e:	f001 f855 	bl	80042ec <HAL_UART_MspInit>
 8003242:	e7c8      	b.n	80031d6 <HAL_UART_Init+0x16>
  if (huart->Init.OverSampling == UART_OVERSAMPLING_8)
 8003244:	f5b1 4f00 	cmp.w	r1, #32768	; 0x8000
 8003248:	f000 8094 	beq.w	8003374 <HAL_UART_Init+0x1b4>
        huart->Instance->BRR = (uint16_t)(UART_DIV_SAMPLING16(HAL_RCC_GetPCLK1Freq(), huart->Init.BaudRate));
 800324c:	f7ff fa10 	bl	8002670 <HAL_RCC_GetPCLK1Freq>
 8003250:	6862      	ldr	r2, [r4, #4]
 8003252:	eb00 0352 	add.w	r3, r0, r2, lsr #1
 8003256:	fbb3 f3f2 	udiv	r3, r3, r2
 800325a:	b29b      	uxth	r3, r3
 800325c:	60eb      	str	r3, [r5, #12]
  if (huart->AdvancedInit.AdvFeatureInit != UART_ADVFEATURE_NO_INIT)
 800325e:	6a63      	ldr	r3, [r4, #36]	; 0x24
 8003260:	2b00      	cmp	r3, #0
 8003262:	d149      	bne.n	80032f8 <HAL_UART_Init+0x138>
  CLEAR_BIT(huart->Instance->CR2, (USART_CR2_LINEN | USART_CR2_CLKEN));
 8003264:	6823      	ldr	r3, [r4, #0]
 8003266:	685a      	ldr	r2, [r3, #4]
 8003268:	f422 4290 	bic.w	r2, r2, #18432	; 0x4800
 800326c:	605a      	str	r2, [r3, #4]
  CLEAR_BIT(huart->Instance->CR3, (USART_CR3_SCEN | USART_CR3_HDSEL | USART_CR3_IREN));
 800326e:	689a      	ldr	r2, [r3, #8]
 8003270:	f022 022a 	bic.w	r2, r2, #42	; 0x2a
 8003274:	609a      	str	r2, [r3, #8]
  __HAL_UART_ENABLE(huart);
 8003276:	681a      	ldr	r2, [r3, #0]
  huart->ErrorCode = HAL_UART_ERROR_NONE;
 8003278:	2100      	movs	r1, #0
  __HAL_UART_ENABLE(huart);
 800327a:	f042 0201 	orr.w	r2, r2, #1
 800327e:	601a      	str	r2, [r3, #0]
  huart->ErrorCode = HAL_UART_ERROR_NONE;
 8003280:	66e1      	str	r1, [r4, #108]	; 0x6c
  tickstart = HAL_GetTick();
 8003282:	f7fd fe61 	bl	8000f48 <HAL_GetTick>
  if((huart->Instance->CR1 & USART_CR1_TE) == USART_CR1_TE)
 8003286:	6823      	ldr	r3, [r4, #0]
 8003288:	681a      	ldr	r2, [r3, #0]
 800328a:	0711      	lsls	r1, r2, #28
  tickstart = HAL_GetTick();
 800328c:	4606      	mov	r6, r0
  if((huart->Instance->CR1 & USART_CR1_TE) == USART_CR1_TE)
 800328e:	d40b      	bmi.n	80032a8 <HAL_UART_Init+0xe8>
  if((huart->Instance->CR1 & USART_CR1_RE) == USART_CR1_RE)
 8003290:	681a      	ldr	r2, [r3, #0]
 8003292:	0752      	lsls	r2, r2, #29
 8003294:	d424      	bmi.n	80032e0 <HAL_UART_Init+0x120>
  huart->gState  = HAL_UART_STATE_READY;
 8003296:	2320      	movs	r3, #32
  __HAL_UNLOCK(huart);
 8003298:	2000      	movs	r0, #0
  huart->gState  = HAL_UART_STATE_READY;
 800329a:	f884 3069 	strb.w	r3, [r4, #105]	; 0x69
  __HAL_UNLOCK(huart);
 800329e:	f884 0068 	strb.w	r0, [r4, #104]	; 0x68
  huart->RxState = HAL_UART_STATE_READY;
 80032a2:	f884 306a 	strb.w	r3, [r4, #106]	; 0x6a
 80032a6:	bdf8      	pop	{r3, r4, r5, r6, r7, pc}
  while((__HAL_UART_GET_FLAG(huart, Flag) ? SET : RESET) == Status)
 80032a8:	69dd      	ldr	r5, [r3, #28]
 80032aa:	f415 1500 	ands.w	r5, r5, #2097152	; 0x200000
 80032ae:	d1ef      	bne.n	8003290 <HAL_UART_Init+0xd0>
      if((Timeout == 0U) || ((HAL_GetTick()-Tickstart) > Timeout))
 80032b0:	f7fd fe4a 	bl	8000f48 <HAL_GetTick>
 80032b4:	1b80      	subs	r0, r0, r6
 80032b6:	f1b0 7f00 	cmp.w	r0, #33554432	; 0x2000000
        CLEAR_BIT(huart->Instance->CR1, (USART_CR1_RXNEIE | USART_CR1_PEIE | USART_CR1_TXEIE));
 80032ba:	6823      	ldr	r3, [r4, #0]
      if((Timeout == 0U) || ((HAL_GetTick()-Tickstart) > Timeout))
 80032bc:	d3f4      	bcc.n	80032a8 <HAL_UART_Init+0xe8>
        CLEAR_BIT(huart->Instance->CR1, (USART_CR1_RXNEIE | USART_CR1_PEIE | USART_CR1_TXEIE));
 80032be:	681a      	ldr	r2, [r3, #0]
 80032c0:	f422 72d0 	bic.w	r2, r2, #416	; 0x1a0
 80032c4:	601a      	str	r2, [r3, #0]
        CLEAR_BIT(huart->Instance->CR3, USART_CR3_EIE);
 80032c6:	689a      	ldr	r2, [r3, #8]
        huart->gState  = HAL_UART_STATE_READY;
 80032c8:	2120      	movs	r1, #32
        CLEAR_BIT(huart->Instance->CR3, USART_CR3_EIE);
 80032ca:	f022 0201 	bic.w	r2, r2, #1
 80032ce:	609a      	str	r2, [r3, #8]
      return HAL_TIMEOUT;
 80032d0:	2003      	movs	r0, #3
        huart->gState  = HAL_UART_STATE_READY;
 80032d2:	f884 1069 	strb.w	r1, [r4, #105]	; 0x69
        __HAL_UNLOCK(huart);
 80032d6:	f884 5068 	strb.w	r5, [r4, #104]	; 0x68
        huart->RxState = HAL_UART_STATE_READY;
 80032da:	f884 106a 	strb.w	r1, [r4, #106]	; 0x6a
 80032de:	bdf8      	pop	{r3, r4, r5, r6, r7, pc}
  while((__HAL_UART_GET_FLAG(huart, Flag) ? SET : RESET) == Status)
 80032e0:	69dd      	ldr	r5, [r3, #28]
 80032e2:	f415 0580 	ands.w	r5, r5, #4194304	; 0x400000
 80032e6:	d1d6      	bne.n	8003296 <HAL_UART_Init+0xd6>
      if((Timeout == 0U) || ((HAL_GetTick()-Tickstart) > Timeout))
 80032e8:	f7fd fe2e 	bl	8000f48 <HAL_GetTick>
 80032ec:	1b80      	subs	r0, r0, r6
 80032ee:	f1b0 7f00 	cmp.w	r0, #33554432	; 0x2000000
        CLEAR_BIT(huart->Instance->CR1, (USART_CR1_RXNEIE | USART_CR1_PEIE | USART_CR1_TXEIE));
 80032f2:	6823      	ldr	r3, [r4, #0]
      if((Timeout == 0U) || ((HAL_GetTick()-Tickstart) > Timeout))
 80032f4:	d3f4      	bcc.n	80032e0 <HAL_UART_Init+0x120>
 80032f6:	e7e2      	b.n	80032be <HAL_UART_Init+0xfe>
    UART_AdvFeatureConfig(huart);
 80032f8:	4620      	mov	r0, r4
 80032fa:	f7ff ff09 	bl	8003110 <UART_AdvFeatureConfig>
 80032fe:	e7b1      	b.n	8003264 <HAL_UART_Init+0xa4>
  UART_GETCLOCKSOURCE(huart, clocksource);
 8003300:	4b43      	ldr	r3, [pc, #268]	; (8003410 <HAL_UART_Init+0x250>)
 8003302:	4a44      	ldr	r2, [pc, #272]	; (8003414 <HAL_UART_Init+0x254>)
 8003304:	6b1b      	ldr	r3, [r3, #48]	; 0x30
 8003306:	f003 0303 	and.w	r3, r3, #3
  if (huart->Init.OverSampling == UART_OVERSAMPLING_8)
 800330a:	f5b1 4f00 	cmp.w	r1, #32768	; 0x8000
 800330e:	5cd3      	ldrb	r3, [r2, r3]
 8003310:	d13b      	bne.n	800338a <HAL_UART_Init+0x1ca>
    switch (clocksource)
 8003312:	2b08      	cmp	r3, #8
 8003314:	d834      	bhi.n	8003380 <HAL_UART_Init+0x1c0>
 8003316:	e8df f003 	tbb	[pc, r3]
 800331a:	2a2d      	.short	0x2a2d
 800331c:	33153320 	.word	0x33153320
 8003320:	3333      	.short	0x3333
 8003322:	07          	.byte	0x07
 8003323:	00          	.byte	0x00
    return HAL_ERROR;
 8003324:	2001      	movs	r0, #1
}
 8003326:	4770      	bx	lr
        usartdiv = (uint16_t)(UART_DIV_SAMPLING8(LSE_VALUE, huart->Init.BaudRate));
 8003328:	6862      	ldr	r2, [r4, #4]
 800332a:	0853      	lsrs	r3, r2, #1
 800332c:	f503 3380 	add.w	r3, r3, #65536	; 0x10000
 8003330:	fbb3 f3f2 	udiv	r3, r3, r2
 8003334:	b29b      	uxth	r3, r3
    brrtemp = usartdiv & 0xFFF0U;
 8003336:	f023 020f 	bic.w	r2, r3, #15
    brrtemp |= (uint16_t)((usartdiv & (uint16_t)0x000FU) >> 1U);
 800333a:	f3c3 0342 	ubfx	r3, r3, #1, #3
    huart->Instance->BRR = brrtemp;
 800333e:	4313      	orrs	r3, r2
 8003340:	60eb      	str	r3, [r5, #12]
 8003342:	e78c      	b.n	800325e <HAL_UART_Init+0x9e>
        usartdiv = (uint16_t)(UART_DIV_SAMPLING8(HAL_RCC_GetSysClockFreq(), huart->Init.BaudRate));
 8003344:	f7ff f95a 	bl	80025fc <HAL_RCC_GetSysClockFreq>
 8003348:	6862      	ldr	r2, [r4, #4]
 800334a:	6825      	ldr	r5, [r4, #0]
 800334c:	0853      	lsrs	r3, r2, #1
 800334e:	eb03 0340 	add.w	r3, r3, r0, lsl #1
 8003352:	fbb3 f3f2 	udiv	r3, r3, r2
 8003356:	b29b      	uxth	r3, r3
 8003358:	e7ed      	b.n	8003336 <HAL_UART_Init+0x176>
        usartdiv = (uint16_t)(UART_DIV_SAMPLING8(HSI_VALUE, huart->Init.BaudRate));
 800335a:	6862      	ldr	r2, [r4, #4]
 800335c:	0853      	lsrs	r3, r2, #1
 800335e:	f503 0374 	add.w	r3, r3, #15990784	; 0xf40000
 8003362:	f503 5310 	add.w	r3, r3, #9216	; 0x2400
 8003366:	fbb3 f3f2 	udiv	r3, r3, r2
 800336a:	b29b      	uxth	r3, r3
 800336c:	e7e3      	b.n	8003336 <HAL_UART_Init+0x176>
        usartdiv = (uint16_t)(UART_DIV_SAMPLING8(HAL_RCC_GetPCLK2Freq(), huart->Init.BaudRate));
 800336e:	f7ff f997 	bl	80026a0 <HAL_RCC_GetPCLK2Freq>
 8003372:	e7e9      	b.n	8003348 <HAL_UART_Init+0x188>
        usartdiv = (uint16_t)(UART_DIV_SAMPLING8(HAL_RCC_GetPCLK1Freq(), huart->Init.BaudRate));
 8003374:	f7ff f97c 	bl	8002670 <HAL_RCC_GetPCLK1Freq>
 8003378:	e7e6      	b.n	8003348 <HAL_UART_Init+0x188>
    huart->Instance->BRR = brrtemp;
 800337a:	2300      	movs	r3, #0
 800337c:	60eb      	str	r3, [r5, #12]
 800337e:	e75a      	b.n	8003236 <HAL_UART_Init+0x76>
 8003380:	4b21      	ldr	r3, [pc, #132]	; (8003408 <HAL_UART_Init+0x248>)
 8003382:	2200      	movs	r2, #0
 8003384:	60da      	str	r2, [r3, #12]
    return HAL_ERROR;
 8003386:	2001      	movs	r0, #1
 8003388:	bdf8      	pop	{r3, r4, r5, r6, r7, pc}
    switch (clocksource)
 800338a:	2b08      	cmp	r3, #8
 800338c:	f63f af53 	bhi.w	8003236 <HAL_UART_Init+0x76>
 8003390:	a201      	add	r2, pc, #4	; (adr r2, 8003398 <HAL_UART_Init+0x1d8>)
 8003392:	f852 f023 	ldr.w	pc, [r2, r3, lsl #2]
 8003396:	bf00      	nop
 8003398:	0800324d 	.word	0x0800324d
 800339c:	080033bd 	.word	0x080033bd
 80033a0:	080033ed 	.word	0x080033ed
 80033a4:	08003237 	.word	0x08003237
 80033a8:	080033e7 	.word	0x080033e7
 80033ac:	08003237 	.word	0x08003237
 80033b0:	08003237 	.word	0x08003237
 80033b4:	08003237 	.word	0x08003237
 80033b8:	080033d3 	.word	0x080033d3
        huart->Instance->BRR = (uint16_t)(UART_DIV_SAMPLING16(HAL_RCC_GetPCLK2Freq(), huart->Init.BaudRate));
 80033bc:	f7ff f970 	bl	80026a0 <HAL_RCC_GetPCLK2Freq>
        huart->Instance->BRR = (uint16_t)(UART_DIV_SAMPLING16(HAL_RCC_GetSysClockFreq(), huart->Init.BaudRate));
 80033c0:	6862      	ldr	r2, [r4, #4]
 80033c2:	4911      	ldr	r1, [pc, #68]	; (8003408 <HAL_UART_Init+0x248>)
 80033c4:	eb00 0352 	add.w	r3, r0, r2, lsr #1
 80033c8:	fbb3 f3f2 	udiv	r3, r3, r2
 80033cc:	b29b      	uxth	r3, r3
 80033ce:	60cb      	str	r3, [r1, #12]
 80033d0:	e745      	b.n	800325e <HAL_UART_Init+0x9e>
        huart->Instance->BRR = (uint16_t)(UART_DIV_SAMPLING16(LSE_VALUE, huart->Init.BaudRate));
 80033d2:	6862      	ldr	r2, [r4, #4]
 80033d4:	490c      	ldr	r1, [pc, #48]	; (8003408 <HAL_UART_Init+0x248>)
 80033d6:	0853      	lsrs	r3, r2, #1
 80033d8:	f503 4300 	add.w	r3, r3, #32768	; 0x8000
 80033dc:	fbb3 f3f2 	udiv	r3, r3, r2
 80033e0:	b29b      	uxth	r3, r3
 80033e2:	60cb      	str	r3, [r1, #12]
 80033e4:	e73b      	b.n	800325e <HAL_UART_Init+0x9e>
        huart->Instance->BRR = (uint16_t)(UART_DIV_SAMPLING16(HAL_RCC_GetSysClockFreq(), huart->Init.BaudRate));
 80033e6:	f7ff f909 	bl	80025fc <HAL_RCC_GetSysClockFreq>
 80033ea:	e7e9      	b.n	80033c0 <HAL_UART_Init+0x200>
        huart->Instance->BRR = (uint16_t)(UART_DIV_SAMPLING16(HSI_VALUE, huart->Init.BaudRate));
 80033ec:	6862      	ldr	r2, [r4, #4]
 80033ee:	4906      	ldr	r1, [pc, #24]	; (8003408 <HAL_UART_Init+0x248>)
 80033f0:	0853      	lsrs	r3, r2, #1
 80033f2:	f503 03f4 	add.w	r3, r3, #7995392	; 0x7a0000
 80033f6:	f503 5390 	add.w	r3, r3, #4608	; 0x1200
 80033fa:	fbb3 f3f2 	udiv	r3, r3, r2
 80033fe:	b29b      	uxth	r3, r3
 8003400:	60cb      	str	r3, [r1, #12]
 8003402:	e72c      	b.n	800325e <HAL_UART_Init+0x9e>
 8003404:	efff69f3 	.word	0xefff69f3
 8003408:	40013800 	.word	0x40013800
 800340c:	40004400 	.word	0x40004400
 8003410:	40021000 	.word	0x40021000
 8003414:	08005740 	.word	0x08005740

08003418 <HAL_UARTEx_WakeupCallback>:
  * @brief  UART wakeup from Stop mode callback.
  * @param  huart UART handle.
  * @retval None
  */
__weak void HAL_UARTEx_WakeupCallback(UART_HandleTypeDef *huart)
{
 8003418:	4770      	bx	lr
 800341a:	bf00      	nop
 800341c:	0000      	movs	r0, r0
	...

08003420 <adc_comms>:
extern TIM_HandleTypeDef htim3;
extern UART_HandleTypeDef huart1;
extern ADC_HandleTypeDef hadc2;


void adc_comms(){
 8003420:	e92d 4ff8 	stmdb	sp!, {r3, r4, r5, r6, r7, r8, r9, sl, fp, lr}

	adc_raw_voltage =  0;
	adc_raw_current =	0;
	raw_ambient_temp = ADC1_buffer[0];
 8003424:	4b5e      	ldr	r3, [pc, #376]	; (80035a0 <adc_comms+0x180>)
	adc_raw_voltage =  0;
 8003426:	485f      	ldr	r0, [pc, #380]	; (80035a4 <adc_comms+0x184>)
	adc_raw_current =	0;
 8003428:	495f      	ldr	r1, [pc, #380]	; (80035a8 <adc_comms+0x188>)
	raw_ambient_temp = ADC1_buffer[0];
 800342a:	681b      	ldr	r3, [r3, #0]
	raw_geyser_temp = ADC1_buffer[1];


	//Converting Voltage
	adc_buffer_voltage = (pow((adc_raw_voltage-2072.202)/0.008629,2))+adc_buffer_voltage;
 800342c:	4d5f      	ldr	r5, [pc, #380]	; (80035ac <adc_comms+0x18c>)
	raw_ambient_temp = ADC1_buffer[0];
 800342e:	f8df b1a8 	ldr.w	fp, [pc, #424]	; 80035d8 <adc_comms+0x1b8>
	raw_geyser_temp = ADC1_buffer[1];
 8003432:	f8df a1a8 	ldr.w	sl, [pc, #424]	; 80035dc <adc_comms+0x1bc>
 8003436:	685e      	ldr	r6, [r3, #4]

	//Converting Current
	adc_buffer_current = (pow((adc_raw_current-2072.202)/0.14603,2))+adc_buffer_current;
 8003438:	4c5d      	ldr	r4, [pc, #372]	; (80035b0 <adc_comms+0x190>)
	adc_raw_voltage =  0;
 800343a:	2200      	movs	r2, #0
 800343c:	6002      	str	r2, [r0, #0]
	adc_raw_current =	0;
 800343e:	600a      	str	r2, [r1, #0]
	raw_ambient_temp = ADC1_buffer[0];
 8003440:	681f      	ldr	r7, [r3, #0]
 8003442:	f8cb 7000 	str.w	r7, [fp]
	adc_buffer_voltage = (pow((adc_raw_voltage-2072.202)/0.008629,2))+adc_buffer_voltage;
 8003446:	e9d5 0100 	ldrd	r0, r1, [r5]
	raw_geyser_temp = ADC1_buffer[1];
 800344a:	f8ca 6000 	str.w	r6, [sl]
	adc_buffer_voltage = (pow((adc_raw_voltage-2072.202)/0.008629,2))+adc_buffer_voltage;
 800344e:	f7fd f899 	bl	8000584 <__aeabi_ul2d>
 8003452:	a34d      	add	r3, pc, #308	; (adr r3, 8003588 <adc_comms+0x168>)
 8003454:	e9d3 2300 	ldrd	r2, r3, [r3]
 8003458:	f7fc ff18 	bl	800028c <__adddf3>
 800345c:	f7fd fbb0 	bl	8000bc0 <__aeabi_d2ulz>
 8003460:	e9c5 0100 	strd	r0, r1, [r5]
	adc_buffer_current = (pow((adc_raw_current-2072.202)/0.14603,2))+adc_buffer_current;
 8003464:	e9d4 0100 	ldrd	r0, r1, [r4]
 8003468:	f7fd f88c 	bl	8000584 <__aeabi_ul2d>
 800346c:	a348      	add	r3, pc, #288	; (adr r3, 8003590 <adc_comms+0x170>)
 800346e:	e9d3 2300 	ldrd	r2, r3, [r3]
 8003472:	f7fc ff0b 	bl	800028c <__adddf3>
 8003476:	f7fd fba3 	bl	8000bc0 <__aeabi_d2ulz>
 800347a:	e9c4 0100 	strd	r0, r1, [r4]

	//Converting Ambient temperature
	if( (raw_ambient_temp-615)/12.3 < 100){
 800347e:	f2a7 2067 	subw	r0, r7, #615	; 0x267
 8003482:	f7fd f83f 	bl	8000504 <__aeabi_ui2d>
 8003486:	a344      	add	r3, pc, #272	; (adr r3, 8003598 <adc_comms+0x178>)
 8003488:	e9d3 2300 	ldrd	r2, r3, [r3]
 800348c:	f7fd f8b0 	bl	80005f0 <__aeabi_dmul>
 8003490:	2200      	movs	r2, #0
 8003492:	4b48      	ldr	r3, [pc, #288]	; (80035b4 <adc_comms+0x194>)
 8003494:	4680      	mov	r8, r0
 8003496:	4689      	mov	r9, r1
 8003498:	f7fd fb1c 	bl	8000ad4 <__aeabi_dcmplt>
 800349c:	b9c0      	cbnz	r0, 80034d0 <adc_comms+0xb0>
		raw_ambient_temp =(raw_ambient_temp-615)/12.3;
		sprintf(ambient_temp,"%lu", raw_ambient_temp);
	}
	//Converting Geyser Temperature
	if( (raw_geyser_temp-615)/12.3 < 100){
 800349e:	f2a6 2067 	subw	r0, r6, #615	; 0x267
 80034a2:	f7fd f82f 	bl	8000504 <__aeabi_ui2d>
 80034a6:	a33c      	add	r3, pc, #240	; (adr r3, 8003598 <adc_comms+0x178>)
 80034a8:	e9d3 2300 	ldrd	r2, r3, [r3]
 80034ac:	f7fd f8a0 	bl	80005f0 <__aeabi_dmul>
 80034b0:	2200      	movs	r2, #0
 80034b2:	4b40      	ldr	r3, [pc, #256]	; (80035b4 <adc_comms+0x194>)
 80034b4:	4606      	mov	r6, r0
 80034b6:	460f      	mov	r7, r1
 80034b8:	f7fd fb0c 	bl	8000ad4 <__aeabi_dcmplt>
 80034bc:	b9b8      	cbnz	r0, 80034ee <adc_comms+0xce>
		raw_geyser_temp = (raw_geyser_temp-615)/12.3;
		sprintf(geyser_temp,"%lu", raw_geyser_temp);
	}

	adc_counter += 1;
 80034be:	4e3e      	ldr	r6, [pc, #248]	; (80035b8 <adc_comms+0x198>)
 80034c0:	8833      	ldrh	r3, [r6, #0]
 80034c2:	3301      	adds	r3, #1
 80034c4:	b29b      	uxth	r3, r3
	if(adc_counter == 10){
 80034c6:	2b0a      	cmp	r3, #10
	adc_counter += 1;
 80034c8:	8033      	strh	r3, [r6, #0]
	if(adc_counter == 10){
 80034ca:	d01d      	beq.n	8003508 <adc_comms+0xe8>
 80034cc:	e8bd 8ff8 	ldmia.w	sp!, {r3, r4, r5, r6, r7, r8, r9, sl, fp, pc}
		raw_ambient_temp =(raw_ambient_temp-615)/12.3;
 80034d0:	4649      	mov	r1, r9
 80034d2:	4640      	mov	r0, r8
 80034d4:	f7fd fb3c 	bl	8000b50 <__aeabi_d2uiz>
		sprintf(ambient_temp,"%lu", raw_ambient_temp);
 80034d8:	4b38      	ldr	r3, [pc, #224]	; (80035bc <adc_comms+0x19c>)
 80034da:	4939      	ldr	r1, [pc, #228]	; (80035c0 <adc_comms+0x1a0>)
		raw_ambient_temp =(raw_ambient_temp-615)/12.3;
 80034dc:	4602      	mov	r2, r0
		sprintf(ambient_temp,"%lu", raw_ambient_temp);
 80034de:	6818      	ldr	r0, [r3, #0]
		raw_ambient_temp =(raw_ambient_temp-615)/12.3;
 80034e0:	f8cb 2000 	str.w	r2, [fp]
		sprintf(ambient_temp,"%lu", raw_ambient_temp);
 80034e4:	f001 fc48 	bl	8004d78 <siprintf>
 80034e8:	f8da 6000 	ldr.w	r6, [sl]
 80034ec:	e7d7      	b.n	800349e <adc_comms+0x7e>
		raw_geyser_temp = (raw_geyser_temp-615)/12.3;
 80034ee:	4639      	mov	r1, r7
 80034f0:	4630      	mov	r0, r6
 80034f2:	f7fd fb2d 	bl	8000b50 <__aeabi_d2uiz>
		sprintf(geyser_temp,"%lu", raw_geyser_temp);
 80034f6:	4b33      	ldr	r3, [pc, #204]	; (80035c4 <adc_comms+0x1a4>)
 80034f8:	4931      	ldr	r1, [pc, #196]	; (80035c0 <adc_comms+0x1a0>)
		raw_geyser_temp = (raw_geyser_temp-615)/12.3;
 80034fa:	4602      	mov	r2, r0
		sprintf(geyser_temp,"%lu", raw_geyser_temp);
 80034fc:	6818      	ldr	r0, [r3, #0]
		raw_geyser_temp = (raw_geyser_temp-615)/12.3;
 80034fe:	f8ca 2000 	str.w	r2, [sl]
		sprintf(geyser_temp,"%lu", raw_geyser_temp);
 8003502:	f001 fc39 	bl	8004d78 <siprintf>
 8003506:	e7da      	b.n	80034be <adc_comms+0x9e>
		*voltage_int_rms = sqrt(adc_buffer_voltage/10);
 8003508:	4b2f      	ldr	r3, [pc, #188]	; (80035c8 <adc_comms+0x1a8>)
		*current_int_rms = sqrt(adc_buffer_current/10);
 800350a:	4f30      	ldr	r7, [pc, #192]	; (80035cc <adc_comms+0x1ac>)
		*voltage_int_rms = sqrt(adc_buffer_voltage/10);
 800350c:	f8d3 8000 	ldr.w	r8, [r3]
 8003510:	220a      	movs	r2, #10
 8003512:	2300      	movs	r3, #0
 8003514:	e9d5 0100 	ldrd	r0, r1, [r5]
 8003518:	f7fd fb3a 	bl	8000b90 <__aeabi_uldivmod>
 800351c:	f7fd f832 	bl	8000584 <__aeabi_ul2d>
 8003520:	ec41 0b10 	vmov	d0, r0, r1
 8003524:	f001 ffd0 	bl	80054c8 <sqrt>
 8003528:	ec51 0b10 	vmov	r0, r1, d0
 800352c:	f7fd fb10 	bl	8000b50 <__aeabi_d2uiz>
		*current_int_rms = sqrt(adc_buffer_current/10);
 8003530:	220a      	movs	r2, #10
 8003532:	2300      	movs	r3, #0
		*voltage_int_rms = sqrt(adc_buffer_voltage/10);
 8003534:	f8c8 0000 	str.w	r0, [r8]
		*current_int_rms = sqrt(adc_buffer_current/10);
 8003538:	e9d4 0100 	ldrd	r0, r1, [r4]
 800353c:	f7fd fb28 	bl	8000b90 <__aeabi_uldivmod>
 8003540:	f7fd f820 	bl	8000584 <__aeabi_ul2d>
 8003544:	ec41 0b10 	vmov	d0, r0, r1
 8003548:	f001 ffbe 	bl	80054c8 <sqrt>
 800354c:	ec51 0b10 	vmov	r0, r1, d0
 8003550:	f7fd fafe 	bl	8000b50 <__aeabi_d2uiz>
 8003554:	683a      	ldr	r2, [r7, #0]
		sprintf(voltage_rms,"%lu", *voltage_int_rms);
 8003556:	4b1e      	ldr	r3, [pc, #120]	; (80035d0 <adc_comms+0x1b0>)
		*current_int_rms = sqrt(adc_buffer_current/10);
 8003558:	6010      	str	r0, [r2, #0]
		sprintf(voltage_rms,"%lu", *voltage_int_rms);
 800355a:	f8d8 2000 	ldr.w	r2, [r8]
 800355e:	6818      	ldr	r0, [r3, #0]
 8003560:	4917      	ldr	r1, [pc, #92]	; (80035c0 <adc_comms+0x1a0>)
 8003562:	f001 fc09 	bl	8004d78 <siprintf>
		sprintf(current_rms,"%lu", *current_int_rms);
 8003566:	4b1b      	ldr	r3, [pc, #108]	; (80035d4 <adc_comms+0x1b4>)
 8003568:	683a      	ldr	r2, [r7, #0]
 800356a:	6818      	ldr	r0, [r3, #0]
 800356c:	6812      	ldr	r2, [r2, #0]
 800356e:	4914      	ldr	r1, [pc, #80]	; (80035c0 <adc_comms+0x1a0>)
 8003570:	f001 fc02 	bl	8004d78 <siprintf>
		adc_counter = 0;

		adc_buffer_voltage = 0;
 8003574:	2300      	movs	r3, #0
 8003576:	2200      	movs	r2, #0
 8003578:	e9c5 2300 	strd	r2, r3, [r5]
		adc_buffer_current = 0;
 800357c:	e9c4 2300 	strd	r2, r3, [r4]
		adc_counter = 0;
 8003580:	2300      	movs	r3, #0
 8003582:	8033      	strh	r3, [r6, #0]
 8003584:	e8bd 8ff8 	ldmia.w	sp!, {r3, r4, r5, r6, r7, r8, r9, sl, fp, pc}
 8003588:	8787f982 	.word	0x8787f982
 800358c:	422adab1 	.word	0x422adab1
 8003590:	a57891fd 	.word	0xa57891fd
 8003594:	41a8011d 	.word	0x41a8011d
 8003598:	4d0214d0 	.word	0x4d0214d0
 800359c:	3fb4d021 	.word	0x3fb4d021
 80035a0:	200000b4 	.word	0x200000b4
 80035a4:	200000d8 	.word	0x200000d8
 80035a8:	200000d4 	.word	0x200000d4
 80035ac:	200000c8 	.word	0x200000c8
 80035b0:	200000c0 	.word	0x200000c0
 80035b4:	40590000 	.word	0x40590000
 80035b8:	200000d0 	.word	0x200000d0
 80035bc:	200000dc 	.word	0x200000dc
 80035c0:	08005744 	.word	0x08005744
 80035c4:	200000f0 	.word	0x200000f0
 80035c8:	20000138 	.word	0x20000138
 80035cc:	200000e4 	.word	0x200000e4
 80035d0:	2000013c 	.word	0x2000013c
 80035d4:	200000e8 	.word	0x200000e8
 80035d8:	20000108 	.word	0x20000108
 80035dc:	2000010c 	.word	0x2000010c

080035e0 <HAL_UART_RxCpltCallback>:
extern TIM_HandleTypeDef htim3;
extern UART_HandleTypeDef huart1;
extern ADC_HandleTypeDef hadc2;


void HAL_UART_RxCpltCallback(UART_HandleTypeDef *huart){
 80035e0:	b410      	push	{r4}
	rx_flag = 1;
 80035e2:	4c05      	ldr	r4, [pc, #20]	; (80035f8 <HAL_UART_RxCpltCallback+0x18>)
	HAL_UART_Receive_IT(&huart1, (uint8_t*)&rx_buffer, 1);
 80035e4:	4905      	ldr	r1, [pc, #20]	; (80035fc <HAL_UART_RxCpltCallback+0x1c>)
 80035e6:	4806      	ldr	r0, [pc, #24]	; (8003600 <HAL_UART_RxCpltCallback+0x20>)
	rx_flag = 1;
 80035e8:	2301      	movs	r3, #1
 80035ea:	7023      	strb	r3, [r4, #0]
	HAL_UART_Receive_IT(&huart1, (uint8_t*)&rx_buffer, 1);
 80035ec:	461a      	mov	r2, r3

}
 80035ee:	f85d 4b04 	ldr.w	r4, [sp], #4
	HAL_UART_Receive_IT(&huart1, (uint8_t*)&rx_buffer, 1);
 80035f2:	f7ff bbed 	b.w	8002dd0 <HAL_UART_Receive_IT>
 80035f6:	bf00      	nop
 80035f8:	20000114 	.word	0x20000114
 80035fc:	20000320 	.word	0x20000320
 8003600:	200001f0 	.word	0x200001f0

08003604 <HAL_ADC_ConvCpltCallback>:

void HAL_ADC_ConvCpltCallback(ADC_HandleTypeDef* hadc){
	adc_flag = 1;
 8003604:	4b02      	ldr	r3, [pc, #8]	; (8003610 <HAL_ADC_ConvCpltCallback+0xc>)
	HAL_ADC_Stop_DMA(&hadc2);
 8003606:	4803      	ldr	r0, [pc, #12]	; (8003614 <HAL_ADC_ConvCpltCallback+0x10>)
	adc_flag = 1;
 8003608:	2201      	movs	r2, #1
 800360a:	701a      	strb	r2, [r3, #0]
	HAL_ADC_Stop_DMA(&hadc2);
 800360c:	f7fd bf18 	b.w	8001440 <HAL_ADC_Stop_DMA>
 8003610:	200000d2 	.word	0x200000d2
 8003614:	20000154 	.word	0x20000154

08003618 <HAL_TIM_IC_CaptureCallback>:
}

void  HAL_TIM_IC_CaptureCallback(TIM_HandleTypeDef * htim){
	tim3_flag = 1;
 8003618:	4b01      	ldr	r3, [pc, #4]	; (8003620 <HAL_TIM_IC_CaptureCallback+0x8>)
 800361a:	2201      	movs	r2, #1
 800361c:	701a      	strb	r2, [r3, #0]
 800361e:	4770      	bx	lr
 8003620:	20000123 	.word	0x20000123

08003624 <init_peripherals>:
extern TIM_HandleTypeDef htim2;
extern TIM_HandleTypeDef htim3;
extern UART_HandleTypeDef huart1;
extern ADC_HandleTypeDef hadc2;

void init_peripherals(){
 8003624:	b570      	push	{r4, r5, r6, lr}

	//A
	HAL_GPIO_WritePin(GPIOA,GPIO_PIN_5,GPIO_PIN_SET); 		// 7_SEG_1
 8003626:	2201      	movs	r2, #1
 8003628:	2120      	movs	r1, #32
 800362a:	f04f 4090 	mov.w	r0, #1207959552	; 0x48000000
 800362e:	f7fe fc11 	bl	8001e54 <HAL_GPIO_WritePin>

	HAL_GPIO_WritePin(GPIOA,GPIO_PIN_7,GPIO_PIN_SET);		// 7_SEG_3
 8003632:	2201      	movs	r2, #1
 8003634:	2180      	movs	r1, #128	; 0x80
 8003636:	f04f 4090 	mov.w	r0, #1207959552	; 0x48000000
 800363a:	f7fe fc0b 	bl	8001e54 <HAL_GPIO_WritePin>
	HAL_GPIO_WritePin(GPIOA,GPIO_PIN_8,GPIO_PIN_SET);		// 7_SEG_7
	HAL_GPIO_WritePin(GPIOA,GPIO_PIN_9,GPIO_PIN_SET);		// 7_SEG_6

	// B
	HAL_GPIO_WritePin(GPIOB,GPIO_PIN_3,GPIO_PIN_SET);		// D4
 800363e:	4c63      	ldr	r4, [pc, #396]	; (80037cc <init_peripherals+0x1a8>)
	HAL_GPIO_WritePin(GPIOB,GPIO_PIN_4,GPIO_PIN_SET);		// D2
	HAL_GPIO_WritePin(GPIOB,GPIO_PIN_5,GPIO_PIN_SET);		// D3
	HAL_GPIO_WritePin(GPIOB,GPIO_PIN_6,GPIO_PIN_SET);		// 7_SEG_4
	HAL_GPIO_WritePin(GPIOB,GPIO_PIN_10,GPIO_PIN_SET);		// D1
	// C
	HAL_GPIO_WritePin(GPIOC,GPIO_PIN_7,GPIO_PIN_SET);		// 7_SEG_5
 8003640:	4d63      	ldr	r5, [pc, #396]	; (80037d0 <init_peripherals+0x1ac>)
	HAL_GPIO_WritePin(GPIOA,GPIO_PIN_8,GPIO_PIN_SET);		// 7_SEG_7
 8003642:	2201      	movs	r2, #1
 8003644:	f44f 7180 	mov.w	r1, #256	; 0x100
 8003648:	f04f 4090 	mov.w	r0, #1207959552	; 0x48000000
 800364c:	f7fe fc02 	bl	8001e54 <HAL_GPIO_WritePin>
	HAL_GPIO_WritePin(GPIOA,GPIO_PIN_9,GPIO_PIN_SET);		// 7_SEG_6
 8003650:	2201      	movs	r2, #1
 8003652:	f44f 7100 	mov.w	r1, #512	; 0x200
 8003656:	f04f 4090 	mov.w	r0, #1207959552	; 0x48000000
 800365a:	f7fe fbfb 	bl	8001e54 <HAL_GPIO_WritePin>
	HAL_GPIO_WritePin(GPIOB,GPIO_PIN_3,GPIO_PIN_SET);		// D4
 800365e:	4620      	mov	r0, r4
 8003660:	2201      	movs	r2, #1
 8003662:	2108      	movs	r1, #8
 8003664:	f7fe fbf6 	bl	8001e54 <HAL_GPIO_WritePin>
	HAL_GPIO_WritePin(GPIOB,GPIO_PIN_4,GPIO_PIN_SET);		// D2
 8003668:	4620      	mov	r0, r4
 800366a:	2201      	movs	r2, #1
 800366c:	2110      	movs	r1, #16
 800366e:	f7fe fbf1 	bl	8001e54 <HAL_GPIO_WritePin>
	HAL_GPIO_WritePin(GPIOB,GPIO_PIN_5,GPIO_PIN_SET);		// D3
 8003672:	4620      	mov	r0, r4
 8003674:	2201      	movs	r2, #1
 8003676:	2120      	movs	r1, #32
 8003678:	f7fe fbec 	bl	8001e54 <HAL_GPIO_WritePin>
	HAL_GPIO_WritePin(GPIOB,GPIO_PIN_6,GPIO_PIN_SET);		// 7_SEG_4
 800367c:	4620      	mov	r0, r4
 800367e:	2201      	movs	r2, #1
 8003680:	2140      	movs	r1, #64	; 0x40
 8003682:	f7fe fbe7 	bl	8001e54 <HAL_GPIO_WritePin>
	HAL_GPIO_WritePin(GPIOB,GPIO_PIN_10,GPIO_PIN_SET);		// D1
 8003686:	4620      	mov	r0, r4
 8003688:	2201      	movs	r2, #1
 800368a:	f44f 6180 	mov.w	r1, #1024	; 0x400
 800368e:	f7fe fbe1 	bl	8001e54 <HAL_GPIO_WritePin>
	HAL_GPIO_WritePin(GPIOC,GPIO_PIN_7,GPIO_PIN_SET);		// 7_SEG_5
 8003692:	4628      	mov	r0, r5
 8003694:	2201      	movs	r2, #1
 8003696:	2180      	movs	r1, #128	; 0x80
 8003698:	f7fe fbdc 	bl	8001e54 <HAL_GPIO_WritePin>

	HAL_GPIO_WritePin(GPIOC,GPIO_PIN_0,GPIO_PIN_RESET);		// Heater
 800369c:	4628      	mov	r0, r5
 800369e:	2200      	movs	r2, #0
 80036a0:	2101      	movs	r1, #1
 80036a2:	f7fe fbd7 	bl	8001e54 <HAL_GPIO_WritePin>
	HAL_GPIO_WritePin(GPIOC,GPIO_PIN_1,GPIO_PIN_SET);		// Valve
 80036a6:	2201      	movs	r2, #1
 80036a8:	4628      	mov	r0, r5
 80036aa:	2102      	movs	r1, #2
 80036ac:	f7fe fbd2 	bl	8001e54 <HAL_GPIO_WritePin>

	studentnumber = (uint8_t*)malloc(15);
 80036b0:	2101      	movs	r1, #1
 80036b2:	200f      	movs	r0, #15
 80036b4:	f001 fa4e 	bl	8004b54 <calloc>
 80036b8:	4b46      	ldr	r3, [pc, #280]	; (80037d4 <init_peripherals+0x1b0>)
	memset(studentnumber, 0x00, 15);

	return_value = (uint8_t*)malloc(50);
 80036ba:	2101      	movs	r1, #1
	studentnumber = (uint8_t*)malloc(15);
 80036bc:	6018      	str	r0, [r3, #0]
	return_value = (uint8_t*)malloc(50);
 80036be:	2032      	movs	r0, #50	; 0x32
 80036c0:	f001 fa48 	bl	8004b54 <calloc>
 80036c4:	4b44      	ldr	r3, [pc, #272]	; (80037d8 <init_peripherals+0x1b4>)
	memset(return_value, 0x00, 50);

	uart_command = (uint8_t*)malloc(60);
 80036c6:	2101      	movs	r1, #1
	return_value = (uint8_t*)malloc(50);
 80036c8:	6018      	str	r0, [r3, #0]
	uart_command = (uint8_t*)malloc(60);
 80036ca:	203c      	movs	r0, #60	; 0x3c
 80036cc:	f001 fa42 	bl	8004b54 <calloc>
 80036d0:	4b42      	ldr	r3, [pc, #264]	; (80037dc <init_peripherals+0x1b8>)
 80036d2:	6018      	str	r0, [r3, #0]
	memset(uart_command, 0x00, 60);

	uart_command_copy = (uint8_t*)malloc(60);
 80036d4:	203c      	movs	r0, #60	; 0x3c
 80036d6:	f001 fa69 	bl	8004bac <malloc>
 80036da:	4b41      	ldr	r3, [pc, #260]	; (80037e0 <init_peripherals+0x1bc>)
 80036dc:	6018      	str	r0, [r3, #0]
	memset(uart_command, 0x00, 60);


	set_temp = (uint8_t*)malloc(3);
 80036de:	2003      	movs	r0, #3
 80036e0:	f001 fa64 	bl	8004bac <malloc>
 80036e4:	493f      	ldr	r1, [pc, #252]	; (80037e4 <init_peripherals+0x1c0>)
	memset(set_temp, 0x00, 4);

	segment_val =set_temp;
 80036e6:	4a40      	ldr	r2, [pc, #256]	; (80037e8 <init_peripherals+0x1c4>)
	set_temp = (uint8_t*)malloc(3);
 80036e8:	6008      	str	r0, [r1, #0]
 80036ea:	4603      	mov	r3, r0
	memset(set_temp, 0x00, 4);
 80036ec:	2400      	movs	r4, #0
 80036ee:	601c      	str	r4, [r3, #0]
	//	  memset(segment_val, 0x00, 4);

	ADC1_buffer = (uint32_t*)malloc(7*sizeof(uint32_t));
 80036f0:	201c      	movs	r0, #28
	segment_val =set_temp;
 80036f2:	6013      	str	r3, [r2, #0]
	ADC1_buffer = (uint32_t*)malloc(7*sizeof(uint32_t));
 80036f4:	f001 fa5a 	bl	8004bac <malloc>
 80036f8:	4603      	mov	r3, r0
 80036fa:	4a3c      	ldr	r2, [pc, #240]	; (80037ec <init_peripherals+0x1c8>)
	memset(ADC1_buffer, 0x00, 7);
 80036fc:	6004      	str	r4, [r0, #0]
 80036fe:	f8c3 4003 	str.w	r4, [r3, #3]

	ADC2_buffer = (uint32_t*)malloc(7*sizeof(uint32_t));
 8003702:	201c      	movs	r0, #28
	ADC1_buffer = (uint32_t*)malloc(7*sizeof(uint32_t));
 8003704:	6013      	str	r3, [r2, #0]
	ADC2_buffer = (uint32_t*)malloc(7*sizeof(uint32_t));
 8003706:	f001 fa51 	bl	8004bac <malloc>
 800370a:	4603      	mov	r3, r0
 800370c:	4a38      	ldr	r2, [pc, #224]	; (80037f0 <init_peripherals+0x1cc>)
	memset(ADC2_buffer, 0x00, 7);
 800370e:	6004      	str	r4, [r0, #0]

	voltage_rms =(char*)malloc(3*sizeof(char));
 8003710:	2101      	movs	r1, #1
	memset(ADC2_buffer, 0x00, 7);
 8003712:	f8c3 4003 	str.w	r4, [r3, #3]
	voltage_rms =(char*)malloc(3*sizeof(char));
 8003716:	2003      	movs	r0, #3
	ADC2_buffer = (uint32_t*)malloc(7*sizeof(uint32_t));
 8003718:	6013      	str	r3, [r2, #0]
	voltage_rms =(char*)malloc(3*sizeof(char));
 800371a:	f001 fa1b 	bl	8004b54 <calloc>
 800371e:	4b35      	ldr	r3, [pc, #212]	; (80037f4 <init_peripherals+0x1d0>)
	memset(voltage_rms, 0x00, 3);

	current_rms =(char*)malloc(4*sizeof(char));
 8003720:	2101      	movs	r1, #1
	voltage_rms =(char*)malloc(3*sizeof(char));
 8003722:	6018      	str	r0, [r3, #0]
	current_rms =(char*)malloc(4*sizeof(char));
 8003724:	2004      	movs	r0, #4
 8003726:	f001 fa15 	bl	8004b54 <calloc>
 800372a:	4b33      	ldr	r3, [pc, #204]	; (80037f8 <init_peripherals+0x1d4>)
	memset(current_rms, 0x00, 4);

	total_water =(char*)malloc(20*sizeof(char));
 800372c:	2101      	movs	r1, #1
	current_rms =(char*)malloc(4*sizeof(char));
 800372e:	6018      	str	r0, [r3, #0]
	total_water =(char*)malloc(20*sizeof(char));
 8003730:	2014      	movs	r0, #20
 8003732:	f001 fa0f 	bl	8004b54 <calloc>
	memset(total_water, 0x00, 20);
	sprintf(total_water,"%lu", water_acc);
 8003736:	4a31      	ldr	r2, [pc, #196]	; (80037fc <init_peripherals+0x1d8>)
	total_water =(char*)malloc(20*sizeof(char));
 8003738:	4b31      	ldr	r3, [pc, #196]	; (8003800 <init_peripherals+0x1dc>)
	sprintf(total_water,"%lu", water_acc);
 800373a:	6812      	ldr	r2, [r2, #0]
 800373c:	4931      	ldr	r1, [pc, #196]	; (8003804 <init_peripherals+0x1e0>)
	total_water =(char*)malloc(20*sizeof(char));
 800373e:	6018      	str	r0, [r3, #0]
	sprintf(total_water,"%lu", water_acc);
 8003740:	f001 fb1a 	bl	8004d78 <siprintf>


	voltage_int_rms = (uint32_t*)malloc(4*sizeof(uint32_t));
 8003744:	2010      	movs	r0, #16
 8003746:	f001 fa31 	bl	8004bac <malloc>
 800374a:	4b2f      	ldr	r3, [pc, #188]	; (8003808 <init_peripherals+0x1e4>)
 800374c:	6018      	str	r0, [r3, #0]
	current_int_rms = (uint32_t*)malloc(4*sizeof(uint32_t));
 800374e:	2010      	movs	r0, #16
 8003750:	f001 fa2c 	bl	8004bac <malloc>
 8003754:	4b2d      	ldr	r3, [pc, #180]	; (800380c <init_peripherals+0x1e8>)
 8003756:	6018      	str	r0, [r3, #0]

	ambient_temp = (char*)malloc(4*sizeof(char));
 8003758:	2004      	movs	r0, #4
 800375a:	f001 fa27 	bl	8004bac <malloc>
 800375e:	4b2c      	ldr	r3, [pc, #176]	; (8003810 <init_peripherals+0x1ec>)
 8003760:	6018      	str	r0, [r3, #0]
	geyser_temp = (char*)malloc(4*sizeof(char));
 8003762:	2004      	movs	r0, #4
 8003764:	f001 fa22 	bl	8004bac <malloc>
 8003768:	4a2a      	ldr	r2, [pc, #168]	; (8003814 <init_peripherals+0x1f0>)

	//HEATER
	heater_state = (char*)malloc(5*sizeof(char));
	heater_state = heater_OFF;
 800376a:	492b      	ldr	r1, [pc, #172]	; (8003818 <init_peripherals+0x1f4>)

	//Valve
	valve_state = (char*)malloc(8*sizeof(char));
	valve_state = valve_CLOSE;
 800376c:	4b2b      	ldr	r3, [pc, #172]	; (800381c <init_peripherals+0x1f8>)
	geyser_temp = (char*)malloc(4*sizeof(char));
 800376e:	6010      	str	r0, [r2, #0]
	heater_state = heater_OFF;
 8003770:	482b      	ldr	r0, [pc, #172]	; (8003820 <init_peripherals+0x1fc>)
	valve_state = valve_CLOSE;
 8003772:	4a2c      	ldr	r2, [pc, #176]	; (8003824 <init_peripherals+0x200>)
	heater_state = heater_OFF;
 8003774:	6008      	str	r0, [r1, #0]

	// Heating schedule
	heat_schedule1 = (char*)malloc(15*sizeof(char));
 8003776:	2101      	movs	r1, #1
 8003778:	200f      	movs	r0, #15
	valve_state = valve_CLOSE;
 800377a:	601a      	str	r2, [r3, #0]
	heat_schedule1 = (char*)malloc(15*sizeof(char));
 800377c:	f001 f9ea 	bl	8004b54 <calloc>
 8003780:	4b29      	ldr	r3, [pc, #164]	; (8003828 <init_peripherals+0x204>)
 8003782:	4606      	mov	r6, r0
	memset(heat_schedule1, 0x00, 15);
	heat_schedule2 = (char*)malloc(15*sizeof(char));
 8003784:	2101      	movs	r1, #1
 8003786:	200f      	movs	r0, #15
	heat_schedule1 = (char*)malloc(15*sizeof(char));
 8003788:	601e      	str	r6, [r3, #0]
	heat_schedule2 = (char*)malloc(15*sizeof(char));
 800378a:	f001 f9e3 	bl	8004b54 <calloc>
 800378e:	4b27      	ldr	r3, [pc, #156]	; (800382c <init_peripherals+0x208>)
 8003790:	4605      	mov	r5, r0
	memset(heat_schedule2, 0x00, 15);
	heat_schedule3 = (char*)malloc(15*sizeof(char));
 8003792:	2101      	movs	r1, #1
 8003794:	200f      	movs	r0, #15
	heat_schedule2 = (char*)malloc(15*sizeof(char));
 8003796:	601d      	str	r5, [r3, #0]
	heat_schedule3 = (char*)malloc(15*sizeof(char));
 8003798:	f001 f9dc 	bl	8004b54 <calloc>
	memset(heat_schedule3, 0x00, 15);

	heating_schedule_info[0] = heat_schedule1;
 800379c:	4b24      	ldr	r3, [pc, #144]	; (8003830 <init_peripherals+0x20c>)
	heat_schedule3 = (char*)malloc(15*sizeof(char));
 800379e:	4925      	ldr	r1, [pc, #148]	; (8003834 <init_peripherals+0x210>)
	heating_schedule_info[0] = heat_schedule1;
 80037a0:	601e      	str	r6, [r3, #0]
	heat_schedule3 = (char*)malloc(15*sizeof(char));
 80037a2:	4602      	mov	r2, r0
	heating_schedule_info[1] = heat_schedule2;
	heating_schedule_info[2] = heat_schedule3;

	heating_info = (char*)malloc(20*sizeof(char));
 80037a4:	2014      	movs	r0, #20
	heating_schedule_info[1] = heat_schedule2;
 80037a6:	605d      	str	r5, [r3, #4]
	heating_schedule_info[2] = heat_schedule3;
 80037a8:	609a      	str	r2, [r3, #8]
	heat_schedule3 = (char*)malloc(15*sizeof(char));
 80037aa:	600a      	str	r2, [r1, #0]
	heating_info = (char*)malloc(20*sizeof(char));
 80037ac:	f001 f9fe 	bl	8004bac <malloc>
 80037b0:	4603      	mov	r3, r0
	memset(heating_info, 0x00, 10);

	heating_time_size = 0;
 80037b2:	4921      	ldr	r1, [pc, #132]	; (8003838 <init_peripherals+0x214>)
	heating_info = (char*)malloc(20*sizeof(char));
 80037b4:	4a21      	ldr	r2, [pc, #132]	; (800383c <init_peripherals+0x218>)
	memset(heating_info, 0x00, 10);
 80037b6:	601c      	str	r4, [r3, #0]
 80037b8:	605c      	str	r4, [r3, #4]
 80037ba:	811c      	strh	r4, [r3, #8]
	heating_time_size = 0;
 80037bc:	600c      	str	r4, [r1, #0]


	HAL_TIM_Base_Start_IT(&htim2);
 80037be:	4820      	ldr	r0, [pc, #128]	; (8003840 <init_peripherals+0x21c>)
	heating_info = (char*)malloc(20*sizeof(char));
 80037c0:	6013      	str	r3, [r2, #0]
	//HAL_TIM_Base_Start_IT(&htim3);
	// p696 on HAL & Low level drivers

	//	HAL_ADCEx_Calibration_Start(&hadc1,ADC_SINGLE_ENDED);

}
 80037c2:	e8bd 4070 	ldmia.w	sp!, {r4, r5, r6, lr}
	HAL_TIM_Base_Start_IT(&htim2);
 80037c6:	f7ff b921 	b.w	8002a0c <HAL_TIM_Base_Start_IT>
 80037ca:	bf00      	nop
 80037cc:	48000400 	.word	0x48000400
 80037d0:	48000800 	.word	0x48000800
 80037d4:	2000031c 	.word	0x2000031c
 80037d8:	20000110 	.word	0x20000110
 80037dc:	20000128 	.word	0x20000128
 80037e0:	2000012c 	.word	0x2000012c
 80037e4:	2000011c 	.word	0x2000011c
 80037e8:	20000118 	.word	0x20000118
 80037ec:	200000b4 	.word	0x200000b4
 80037f0:	200000b8 	.word	0x200000b8
 80037f4:	2000013c 	.word	0x2000013c
 80037f8:	200000e8 	.word	0x200000e8
 80037fc:	20000140 	.word	0x20000140
 8003800:	20000124 	.word	0x20000124
 8003804:	08005744 	.word	0x08005744
 8003808:	20000138 	.word	0x20000138
 800380c:	200000e4 	.word	0x200000e4
 8003810:	200000dc 	.word	0x200000dc
 8003814:	200000f0 	.word	0x200000f0
 8003818:	20000100 	.word	0x20000100
 800381c:	20000134 	.word	0x20000134
 8003820:	20000010 	.word	0x20000010
 8003824:	20000024 	.word	0x20000024
 8003828:	200000f4 	.word	0x200000f4
 800382c:	200000f8 	.word	0x200000f8
 8003830:	20000328 	.word	0x20000328
 8003834:	200000fc 	.word	0x200000fc
 8003838:	20000324 	.word	0x20000324
 800383c:	20000104 	.word	0x20000104
 8003840:	20000298 	.word	0x20000298

08003844 <MX_GPIO_Init>:
        * Output
        * EVENT_OUT
        * EXTI
*/
static void MX_GPIO_Init(void)
{
 8003844:	b5f0      	push	{r4, r5, r6, r7, lr}
 8003846:	b08b      	sub	sp, #44	; 0x2c

  GPIO_InitTypeDef GPIO_InitStruct;

  /* GPIO Ports Clock Enable */
  __HAL_RCC_GPIOC_CLK_ENABLE();
 8003848:	4b44      	ldr	r3, [pc, #272]	; (800395c <MX_GPIO_Init+0x118>)
 800384a:	695a      	ldr	r2, [r3, #20]
 800384c:	f442 2200 	orr.w	r2, r2, #524288	; 0x80000
 8003850:	615a      	str	r2, [r3, #20]
 8003852:	695a      	ldr	r2, [r3, #20]
 8003854:	f402 2200 	and.w	r2, r2, #524288	; 0x80000
 8003858:	9201      	str	r2, [sp, #4]
 800385a:	9a01      	ldr	r2, [sp, #4]
  __HAL_RCC_GPIOF_CLK_ENABLE();
 800385c:	695a      	ldr	r2, [r3, #20]
 800385e:	f442 0280 	orr.w	r2, r2, #4194304	; 0x400000
 8003862:	615a      	str	r2, [r3, #20]
 8003864:	695a      	ldr	r2, [r3, #20]
 8003866:	f402 0280 	and.w	r2, r2, #4194304	; 0x400000
 800386a:	9202      	str	r2, [sp, #8]
 800386c:	9a02      	ldr	r2, [sp, #8]
  __HAL_RCC_GPIOA_CLK_ENABLE();
 800386e:	695a      	ldr	r2, [r3, #20]
 8003870:	f442 3200 	orr.w	r2, r2, #131072	; 0x20000
 8003874:	615a      	str	r2, [r3, #20]
 8003876:	695a      	ldr	r2, [r3, #20]
 8003878:	f402 3200 	and.w	r2, r2, #131072	; 0x20000
 800387c:	9203      	str	r2, [sp, #12]
 800387e:	9a03      	ldr	r2, [sp, #12]
  __HAL_RCC_GPIOB_CLK_ENABLE();
 8003880:	695a      	ldr	r2, [r3, #20]
 8003882:	f442 2280 	orr.w	r2, r2, #262144	; 0x40000
 8003886:	615a      	str	r2, [r3, #20]
 8003888:	695b      	ldr	r3, [r3, #20]
 800388a:	f403 2380 	and.w	r3, r3, #262144	; 0x40000
 800388e:	9304      	str	r3, [sp, #16]
 8003890:	9b04      	ldr	r3, [sp, #16]

  /*Configure GPIO pin Output Level */
  HAL_GPIO_WritePin(GPIOC, GPIO_PIN_0|GPIO_PIN_1|GPIO_PIN_7, GPIO_PIN_RESET);
 8003892:	4e33      	ldr	r6, [pc, #204]	; (8003960 <MX_GPIO_Init+0x11c>)
 8003894:	2200      	movs	r2, #0
 8003896:	2183      	movs	r1, #131	; 0x83
 8003898:	4630      	mov	r0, r6
 800389a:	f7fe fadb 	bl	8001e54 <HAL_GPIO_WritePin>

  /*Configure GPIO pin Output Level */
  HAL_GPIO_WritePin(GPIOA, GPIO_PIN_5|GPIO_PIN_6|GPIO_PIN_7|GPIO_PIN_8 
 800389e:	2200      	movs	r2, #0
 80038a0:	f44f 7178 	mov.w	r1, #992	; 0x3e0
 80038a4:	f04f 4090 	mov.w	r0, #1207959552	; 0x48000000
 80038a8:	f7fe fad4 	bl	8001e54 <HAL_GPIO_WritePin>
                          |GPIO_PIN_9, GPIO_PIN_RESET);

  /*Configure GPIO pin Output Level */
  HAL_GPIO_WritePin(GPIOB, GPIO_PIN_10|GPIO_PIN_3|GPIO_PIN_4|GPIO_PIN_5 
 80038ac:	4f2d      	ldr	r7, [pc, #180]	; (8003964 <MX_GPIO_Init+0x120>)
 80038ae:	2200      	movs	r2, #0
 80038b0:	f44f 618f 	mov.w	r1, #1144	; 0x478
 80038b4:	4638      	mov	r0, r7
 80038b6:	f7fe facd 	bl	8001e54 <HAL_GPIO_WritePin>
                          |GPIO_PIN_6, GPIO_PIN_RESET);

  /*Configure GPIO pin : PC13 */
  GPIO_InitStruct.Pin = GPIO_PIN_13;
 80038ba:	f44f 5300 	mov.w	r3, #8192	; 0x2000
 80038be:	9305      	str	r3, [sp, #20]
  GPIO_InitStruct.Mode = GPIO_MODE_IT_RISING;
 80038c0:	4b29      	ldr	r3, [pc, #164]	; (8003968 <MX_GPIO_Init+0x124>)
 80038c2:	9306      	str	r3, [sp, #24]
  GPIO_InitStruct.Pull = GPIO_NOPULL;
 80038c4:	2400      	movs	r4, #0
 80038c6:	9407      	str	r4, [sp, #28]
  HAL_GPIO_Init(GPIOC, &GPIO_InitStruct);
 80038c8:	a905      	add	r1, sp, #20
 80038ca:	4630      	mov	r0, r6
 80038cc:	f7fe f9d8 	bl	8001c80 <HAL_GPIO_Init>

  /*Configure GPIO pins : PC0 PC1 PC7 */
  GPIO_InitStruct.Pin = GPIO_PIN_0|GPIO_PIN_1|GPIO_PIN_7;
 80038d0:	2383      	movs	r3, #131	; 0x83
 80038d2:	9305      	str	r3, [sp, #20]
  GPIO_InitStruct.Mode = GPIO_MODE_OUTPUT_PP;
 80038d4:	2501      	movs	r5, #1
 80038d6:	9506      	str	r5, [sp, #24]
  GPIO_InitStruct.Pull = GPIO_NOPULL;
 80038d8:	9407      	str	r4, [sp, #28]
  GPIO_InitStruct.Speed = GPIO_SPEED_FREQ_LOW;
 80038da:	9408      	str	r4, [sp, #32]
  HAL_GPIO_Init(GPIOC, &GPIO_InitStruct);
 80038dc:	a905      	add	r1, sp, #20
 80038de:	4630      	mov	r0, r6
 80038e0:	f7fe f9ce 	bl	8001c80 <HAL_GPIO_Init>

  /*Configure GPIO pins : PA0 PA1 PA4 */
  GPIO_InitStruct.Pin = GPIO_PIN_0|GPIO_PIN_1|GPIO_PIN_4;
 80038e4:	2313      	movs	r3, #19
 80038e6:	9305      	str	r3, [sp, #20]
  GPIO_InitStruct.Mode = GPIO_MODE_INPUT;
 80038e8:	9406      	str	r4, [sp, #24]
  GPIO_InitStruct.Pull = GPIO_NOPULL;
 80038ea:	9407      	str	r4, [sp, #28]
  HAL_GPIO_Init(GPIOA, &GPIO_InitStruct);
 80038ec:	a905      	add	r1, sp, #20
 80038ee:	f04f 4090 	mov.w	r0, #1207959552	; 0x48000000
 80038f2:	f7fe f9c5 	bl	8001c80 <HAL_GPIO_Init>

  /*Configure GPIO pins : PA5 PA6 PA7 PA8 
                           PA9 */
  GPIO_InitStruct.Pin = GPIO_PIN_5|GPIO_PIN_6|GPIO_PIN_7|GPIO_PIN_8 
 80038f6:	f44f 7378 	mov.w	r3, #992	; 0x3e0
 80038fa:	9305      	str	r3, [sp, #20]
                          |GPIO_PIN_9;
  GPIO_InitStruct.Mode = GPIO_MODE_OUTPUT_PP;
 80038fc:	9506      	str	r5, [sp, #24]
  GPIO_InitStruct.Pull = GPIO_NOPULL;
 80038fe:	9407      	str	r4, [sp, #28]
  GPIO_InitStruct.Speed = GPIO_SPEED_FREQ_LOW;
 8003900:	9408      	str	r4, [sp, #32]
  HAL_GPIO_Init(GPIOA, &GPIO_InitStruct);
 8003902:	a905      	add	r1, sp, #20
 8003904:	f04f 4090 	mov.w	r0, #1207959552	; 0x48000000
 8003908:	f7fe f9ba 	bl	8001c80 <HAL_GPIO_Init>

  /*Configure GPIO pins : PB1 PB8 PB9 */
  GPIO_InitStruct.Pin = GPIO_PIN_1|GPIO_PIN_8|GPIO_PIN_9;
 800390c:	f240 3302 	movw	r3, #770	; 0x302
 8003910:	9305      	str	r3, [sp, #20]
  GPIO_InitStruct.Mode = GPIO_MODE_INPUT;
 8003912:	9406      	str	r4, [sp, #24]
  GPIO_InitStruct.Pull = GPIO_NOPULL;
 8003914:	9407      	str	r4, [sp, #28]
  HAL_GPIO_Init(GPIOB, &GPIO_InitStruct);
 8003916:	a905      	add	r1, sp, #20
 8003918:	4638      	mov	r0, r7
 800391a:	f7fe f9b1 	bl	8001c80 <HAL_GPIO_Init>

  /*Configure GPIO pins : PB10 PB3 PB4 PB5 
                           PB6 */
  GPIO_InitStruct.Pin = GPIO_PIN_10|GPIO_PIN_3|GPIO_PIN_4|GPIO_PIN_5 
 800391e:	f44f 638f 	mov.w	r3, #1144	; 0x478
 8003922:	9305      	str	r3, [sp, #20]
                          |GPIO_PIN_6;
  GPIO_InitStruct.Mode = GPIO_MODE_OUTPUT_PP;
 8003924:	9506      	str	r5, [sp, #24]
  GPIO_InitStruct.Pull = GPIO_NOPULL;
 8003926:	9407      	str	r4, [sp, #28]
  GPIO_InitStruct.Speed = GPIO_SPEED_FREQ_LOW;
 8003928:	9408      	str	r4, [sp, #32]
  HAL_GPIO_Init(GPIOB, &GPIO_InitStruct);
 800392a:	a905      	add	r1, sp, #20
 800392c:	4638      	mov	r0, r7
 800392e:	f7fe f9a7 	bl	8001c80 <HAL_GPIO_Init>

  /*Configure GPIO pin : FLOW_TRIG_Pin */
  GPIO_InitStruct.Pin = FLOW_TRIG_Pin;
 8003932:	2340      	movs	r3, #64	; 0x40
 8003934:	9305      	str	r3, [sp, #20]
  GPIO_InitStruct.Mode = GPIO_MODE_IT_RISING_FALLING;
 8003936:	4b0d      	ldr	r3, [pc, #52]	; (800396c <MX_GPIO_Init+0x128>)
 8003938:	9306      	str	r3, [sp, #24]
  GPIO_InitStruct.Pull = GPIO_PULLDOWN;
 800393a:	2302      	movs	r3, #2
 800393c:	9307      	str	r3, [sp, #28]
  HAL_GPIO_Init(FLOW_TRIG_GPIO_Port, &GPIO_InitStruct);
 800393e:	a905      	add	r1, sp, #20
 8003940:	4630      	mov	r0, r6
 8003942:	f7fe f99d 	bl	8001c80 <HAL_GPIO_Init>

  /* EXTI interrupt init*/
  HAL_NVIC_SetPriority(EXTI9_5_IRQn, 0, 1);
 8003946:	462a      	mov	r2, r5
 8003948:	4621      	mov	r1, r4
 800394a:	2017      	movs	r0, #23
 800394c:	f7fe f826 	bl	800199c <HAL_NVIC_SetPriority>
  HAL_NVIC_EnableIRQ(EXTI9_5_IRQn);
 8003950:	2017      	movs	r0, #23
 8003952:	f7fe f859 	bl	8001a08 <HAL_NVIC_EnableIRQ>

}
 8003956:	b00b      	add	sp, #44	; 0x2c
 8003958:	bdf0      	pop	{r4, r5, r6, r7, pc}
 800395a:	bf00      	nop
 800395c:	40021000 	.word	0x40021000
 8003960:	48000800 	.word	0x48000800
 8003964:	48000400 	.word	0x48000400
 8003968:	10110000 	.word	0x10110000
 800396c:	10310000 	.word	0x10310000

08003970 <MX_DMA_Init>:
{
 8003970:	b500      	push	{lr}
 8003972:	b083      	sub	sp, #12
  __HAL_RCC_DMA1_CLK_ENABLE();
 8003974:	4b0a      	ldr	r3, [pc, #40]	; (80039a0 <MX_DMA_Init+0x30>)
 8003976:	695a      	ldr	r2, [r3, #20]
 8003978:	f042 0201 	orr.w	r2, r2, #1
 800397c:	615a      	str	r2, [r3, #20]
 800397e:	695b      	ldr	r3, [r3, #20]
 8003980:	f003 0301 	and.w	r3, r3, #1
 8003984:	9301      	str	r3, [sp, #4]
 8003986:	9b01      	ldr	r3, [sp, #4]
  HAL_NVIC_SetPriority(DMA1_Channel2_IRQn, 0, 1);
 8003988:	2201      	movs	r2, #1
 800398a:	2100      	movs	r1, #0
 800398c:	200c      	movs	r0, #12
 800398e:	f7fe f805 	bl	800199c <HAL_NVIC_SetPriority>
  HAL_NVIC_EnableIRQ(DMA1_Channel2_IRQn);
 8003992:	200c      	movs	r0, #12
 8003994:	f7fe f838 	bl	8001a08 <HAL_NVIC_EnableIRQ>
}
 8003998:	b003      	add	sp, #12
 800399a:	f85d fb04 	ldr.w	pc, [sp], #4
 800399e:	bf00      	nop
 80039a0:	40021000 	.word	0x40021000

080039a4 <HAL_TIM_PeriodElapsedCallback>:

/* USER CODE BEGIN 4 */

void HAL_TIM_PeriodElapsedCallback (TIM_HandleTypeDef *htim){
 80039a4:	4770      	bx	lr

080039a6 <_Error_Handler>:
  * @param  file: The file name as string.
  * @param  line: The line in file as a number.
  * @retval None
  */
void _Error_Handler(char *file, int line)
{
 80039a6:	e7fe      	b.n	80039a6 <_Error_Handler>

080039a8 <MX_TIM2_Init>:
{
 80039a8:	b500      	push	{lr}
 80039aa:	b089      	sub	sp, #36	; 0x24
  htim2.Instance = TIM2;
 80039ac:	4818      	ldr	r0, [pc, #96]	; (8003a10 <MX_TIM2_Init+0x68>)
 80039ae:	f04f 4380 	mov.w	r3, #1073741824	; 0x40000000
 80039b2:	6003      	str	r3, [r0, #0]
  htim2.Init.Prescaler = 1;
 80039b4:	2301      	movs	r3, #1
 80039b6:	6043      	str	r3, [r0, #4]
  htim2.Init.CounterMode = TIM_COUNTERMODE_UP;
 80039b8:	2300      	movs	r3, #0
 80039ba:	6083      	str	r3, [r0, #8]
  htim2.Init.Period = 326400;
 80039bc:	4a15      	ldr	r2, [pc, #84]	; (8003a14 <MX_TIM2_Init+0x6c>)
 80039be:	60c2      	str	r2, [r0, #12]
  htim2.Init.ClockDivision = TIM_CLOCKDIVISION_DIV1;
 80039c0:	6103      	str	r3, [r0, #16]
  htim2.Init.AutoReloadPreload = TIM_AUTORELOAD_PRELOAD_DISABLE;
 80039c2:	6183      	str	r3, [r0, #24]
  if (HAL_TIM_Base_Init(&htim2) != HAL_OK)
 80039c4:	f7fe ffb2 	bl	800292c <HAL_TIM_Base_Init>
 80039c8:	b998      	cbnz	r0, 80039f2 <MX_TIM2_Init+0x4a>
  sClockSourceConfig.ClockSource = TIM_CLOCKSOURCE_INTERNAL;
 80039ca:	a908      	add	r1, sp, #32
 80039cc:	f44f 5380 	mov.w	r3, #4096	; 0x1000
 80039d0:	f841 3d10 	str.w	r3, [r1, #-16]!
  if (HAL_TIM_ConfigClockSource(&htim2, &sClockSourceConfig) != HAL_OK)
 80039d4:	480e      	ldr	r0, [pc, #56]	; (8003a10 <MX_TIM2_Init+0x68>)
 80039d6:	f7ff f825 	bl	8002a24 <HAL_TIM_ConfigClockSource>
 80039da:	b978      	cbnz	r0, 80039fc <MX_TIM2_Init+0x54>
  sMasterConfig.MasterOutputTrigger = TIM_TRGO_RESET;
 80039dc:	2300      	movs	r3, #0
 80039de:	9301      	str	r3, [sp, #4]
  sMasterConfig.MasterSlaveMode = TIM_MASTERSLAVEMODE_DISABLE;
 80039e0:	9303      	str	r3, [sp, #12]
  if (HAL_TIMEx_MasterConfigSynchronization(&htim2, &sMasterConfig) != HAL_OK)
 80039e2:	a901      	add	r1, sp, #4
 80039e4:	480a      	ldr	r0, [pc, #40]	; (8003a10 <MX_TIM2_Init+0x68>)
 80039e6:	f7ff f9a3 	bl	8002d30 <HAL_TIMEx_MasterConfigSynchronization>
 80039ea:	b960      	cbnz	r0, 8003a06 <MX_TIM2_Init+0x5e>
}
 80039ec:	b009      	add	sp, #36	; 0x24
 80039ee:	f85d fb04 	ldr.w	pc, [sp], #4
    _Error_Handler(__FILE__, __LINE__);
 80039f2:	f44f 71a9 	mov.w	r1, #338	; 0x152
 80039f6:	4808      	ldr	r0, [pc, #32]	; (8003a18 <MX_TIM2_Init+0x70>)
 80039f8:	f7ff ffd5 	bl	80039a6 <_Error_Handler>
    _Error_Handler(__FILE__, __LINE__);
 80039fc:	f44f 71ac 	mov.w	r1, #344	; 0x158
 8003a00:	4805      	ldr	r0, [pc, #20]	; (8003a18 <MX_TIM2_Init+0x70>)
 8003a02:	f7ff ffd0 	bl	80039a6 <_Error_Handler>
    _Error_Handler(__FILE__, __LINE__);
 8003a06:	f240 115f 	movw	r1, #351	; 0x15f
 8003a0a:	4803      	ldr	r0, [pc, #12]	; (8003a18 <MX_TIM2_Init+0x70>)
 8003a0c:	f7ff ffcb 	bl	80039a6 <_Error_Handler>
 8003a10:	20000298 	.word	0x20000298
 8003a14:	0004fb00 	.word	0x0004fb00
 8003a18:	08005748 	.word	0x08005748

08003a1c <MX_USART1_UART_Init>:
{
 8003a1c:	b508      	push	{r3, lr}
  huart1.Instance = USART1;
 8003a1e:	480c      	ldr	r0, [pc, #48]	; (8003a50 <MX_USART1_UART_Init+0x34>)
 8003a20:	4b0c      	ldr	r3, [pc, #48]	; (8003a54 <MX_USART1_UART_Init+0x38>)
 8003a22:	6003      	str	r3, [r0, #0]
  huart1.Init.BaudRate = 115200;
 8003a24:	f44f 33e1 	mov.w	r3, #115200	; 0x1c200
 8003a28:	6043      	str	r3, [r0, #4]
  huart1.Init.WordLength = UART_WORDLENGTH_8B;
 8003a2a:	2300      	movs	r3, #0
 8003a2c:	6083      	str	r3, [r0, #8]
  huart1.Init.StopBits = UART_STOPBITS_1;
 8003a2e:	60c3      	str	r3, [r0, #12]
  huart1.Init.Parity = UART_PARITY_NONE;
 8003a30:	6103      	str	r3, [r0, #16]
  huart1.Init.Mode = UART_MODE_TX_RX;
 8003a32:	220c      	movs	r2, #12
 8003a34:	6142      	str	r2, [r0, #20]
  huart1.Init.HwFlowCtl = UART_HWCONTROL_NONE;
 8003a36:	6183      	str	r3, [r0, #24]
  huart1.Init.OverSampling = UART_OVERSAMPLING_16;
 8003a38:	61c3      	str	r3, [r0, #28]
  huart1.Init.OneBitSampling = UART_ONE_BIT_SAMPLE_DISABLE;
 8003a3a:	6203      	str	r3, [r0, #32]
  huart1.AdvancedInit.AdvFeatureInit = UART_ADVFEATURE_NO_INIT;
 8003a3c:	6243      	str	r3, [r0, #36]	; 0x24
  if (HAL_UART_Init(&huart1) != HAL_OK)
 8003a3e:	f7ff fbbf 	bl	80031c0 <HAL_UART_Init>
 8003a42:	b900      	cbnz	r0, 8003a46 <MX_USART1_UART_Init+0x2a>
 8003a44:	bd08      	pop	{r3, pc}
    _Error_Handler(__FILE__, __LINE__);
 8003a46:	f44f 71ba 	mov.w	r1, #372	; 0x174
 8003a4a:	4803      	ldr	r0, [pc, #12]	; (8003a58 <MX_USART1_UART_Init+0x3c>)
 8003a4c:	f7ff ffab 	bl	80039a6 <_Error_Handler>
 8003a50:	200001f0 	.word	0x200001f0
 8003a54:	40013800 	.word	0x40013800
 8003a58:	08005748 	.word	0x08005748

08003a5c <MX_ADC2_Init>:
{
 8003a5c:	b500      	push	{lr}
 8003a5e:	b087      	sub	sp, #28
  hadc2.Instance = ADC2;
 8003a60:	482d      	ldr	r0, [pc, #180]	; (8003b18 <MX_ADC2_Init+0xbc>)
 8003a62:	4b2e      	ldr	r3, [pc, #184]	; (8003b1c <MX_ADC2_Init+0xc0>)
 8003a64:	6003      	str	r3, [r0, #0]
  hadc2.Init.ClockPrescaler = ADC_CLOCK_ASYNC_DIV1;
 8003a66:	2300      	movs	r3, #0
 8003a68:	6043      	str	r3, [r0, #4]
  hadc2.Init.Resolution = ADC_RESOLUTION_12B;
 8003a6a:	6083      	str	r3, [r0, #8]
  hadc2.Init.ScanConvMode = ADC_SCAN_ENABLE;
 8003a6c:	2201      	movs	r2, #1
 8003a6e:	6102      	str	r2, [r0, #16]
  hadc2.Init.ContinuousConvMode = ENABLE;
 8003a70:	61c2      	str	r2, [r0, #28]
  hadc2.Init.DiscontinuousConvMode = DISABLE;
 8003a72:	6243      	str	r3, [r0, #36]	; 0x24
  hadc2.Init.ExternalTrigConvEdge = ADC_EXTERNALTRIGCONVEDGE_NONE;
 8003a74:	6303      	str	r3, [r0, #48]	; 0x30
  hadc2.Init.ExternalTrigConv = ADC_SOFTWARE_START;
 8003a76:	62c2      	str	r2, [r0, #44]	; 0x2c
  hadc2.Init.DataAlign = ADC_DATAALIGN_RIGHT;
 8003a78:	60c3      	str	r3, [r0, #12]
  hadc2.Init.NbrOfConversion = 4;
 8003a7a:	2104      	movs	r1, #4
 8003a7c:	6201      	str	r1, [r0, #32]
  hadc2.Init.DMAContinuousRequests = ENABLE;
 8003a7e:	6342      	str	r2, [r0, #52]	; 0x34
  hadc2.Init.EOCSelection = ADC_EOC_SINGLE_CONV;
 8003a80:	6141      	str	r1, [r0, #20]
  hadc2.Init.LowPowerAutoWait = DISABLE;
 8003a82:	6183      	str	r3, [r0, #24]
  hadc2.Init.Overrun = ADC_OVR_DATA_PRESERVED;
 8003a84:	6382      	str	r2, [r0, #56]	; 0x38
  if (HAL_ADC_Init(&hadc2) != HAL_OK)
 8003a86:	f7fd fb03 	bl	8001090 <HAL_ADC_Init>
 8003a8a:	bb58      	cbnz	r0, 8003ae4 <MX_ADC2_Init+0x88>
  sConfig.Channel = ADC_CHANNEL_12;
 8003a8c:	230c      	movs	r3, #12
 8003a8e:	9300      	str	r3, [sp, #0]
  sConfig.Rank = ADC_REGULAR_RANK_1;
 8003a90:	2301      	movs	r3, #1
 8003a92:	9301      	str	r3, [sp, #4]
  sConfig.SingleDiff = ADC_SINGLE_ENDED;
 8003a94:	2300      	movs	r3, #0
 8003a96:	9303      	str	r3, [sp, #12]
  sConfig.SamplingTime = ADC_SAMPLETIME_1CYCLE_5;
 8003a98:	9302      	str	r3, [sp, #8]
  sConfig.OffsetNumber = ADC_OFFSET_NONE;
 8003a9a:	9304      	str	r3, [sp, #16]
  sConfig.Offset = 0;
 8003a9c:	9305      	str	r3, [sp, #20]
  if (HAL_ADC_ConfigChannel(&hadc2, &sConfig) != HAL_OK)
 8003a9e:	4669      	mov	r1, sp
 8003aa0:	481d      	ldr	r0, [pc, #116]	; (8003b18 <MX_ADC2_Init+0xbc>)
 8003aa2:	f7fd fdd7 	bl	8001654 <HAL_ADC_ConfigChannel>
 8003aa6:	bb10      	cbnz	r0, 8003aee <MX_ADC2_Init+0x92>
  sConfig.Channel = ADC_CHANNEL_15;
 8003aa8:	230f      	movs	r3, #15
 8003aaa:	9300      	str	r3, [sp, #0]
  sConfig.Rank = ADC_REGULAR_RANK_2;
 8003aac:	2302      	movs	r3, #2
 8003aae:	9301      	str	r3, [sp, #4]
  if (HAL_ADC_ConfigChannel(&hadc2, &sConfig) != HAL_OK)
 8003ab0:	4669      	mov	r1, sp
 8003ab2:	4819      	ldr	r0, [pc, #100]	; (8003b18 <MX_ADC2_Init+0xbc>)
 8003ab4:	f7fd fdce 	bl	8001654 <HAL_ADC_ConfigChannel>
 8003ab8:	b9f0      	cbnz	r0, 8003af8 <MX_ADC2_Init+0x9c>
  sConfig.Channel = ADC_CHANNEL_12;
 8003aba:	230c      	movs	r3, #12
 8003abc:	9300      	str	r3, [sp, #0]
  sConfig.Rank = ADC_REGULAR_RANK_3;
 8003abe:	2303      	movs	r3, #3
 8003ac0:	9301      	str	r3, [sp, #4]
  if (HAL_ADC_ConfigChannel(&hadc2, &sConfig) != HAL_OK)
 8003ac2:	4669      	mov	r1, sp
 8003ac4:	4814      	ldr	r0, [pc, #80]	; (8003b18 <MX_ADC2_Init+0xbc>)
 8003ac6:	f7fd fdc5 	bl	8001654 <HAL_ADC_ConfigChannel>
 8003aca:	b9d0      	cbnz	r0, 8003b02 <MX_ADC2_Init+0xa6>
  sConfig.Channel = ADC_CHANNEL_15;
 8003acc:	230f      	movs	r3, #15
 8003ace:	9300      	str	r3, [sp, #0]
  sConfig.Rank = ADC_REGULAR_RANK_4;
 8003ad0:	2304      	movs	r3, #4
 8003ad2:	9301      	str	r3, [sp, #4]
  if (HAL_ADC_ConfigChannel(&hadc2, &sConfig) != HAL_OK)
 8003ad4:	4669      	mov	r1, sp
 8003ad6:	4810      	ldr	r0, [pc, #64]	; (8003b18 <MX_ADC2_Init+0xbc>)
 8003ad8:	f7fd fdbc 	bl	8001654 <HAL_ADC_ConfigChannel>
 8003adc:	b9b0      	cbnz	r0, 8003b0c <MX_ADC2_Init+0xb0>
}
 8003ade:	b007      	add	sp, #28
 8003ae0:	f85d fb04 	ldr.w	pc, [sp], #4
    _Error_Handler(__FILE__, __LINE__);
 8003ae4:	f44f 7181 	mov.w	r1, #258	; 0x102
 8003ae8:	480d      	ldr	r0, [pc, #52]	; (8003b20 <MX_ADC2_Init+0xc4>)
 8003aea:	f7ff ff5c 	bl	80039a6 <_Error_Handler>
    _Error_Handler(__FILE__, __LINE__);
 8003aee:	f240 110f 	movw	r1, #271	; 0x10f
 8003af2:	480b      	ldr	r0, [pc, #44]	; (8003b20 <MX_ADC2_Init+0xc4>)
 8003af4:	f7ff ff57 	bl	80039a6 <_Error_Handler>
    _Error_Handler(__FILE__, __LINE__);
 8003af8:	f44f 718c 	mov.w	r1, #280	; 0x118
 8003afc:	4808      	ldr	r0, [pc, #32]	; (8003b20 <MX_ADC2_Init+0xc4>)
 8003afe:	f7ff ff52 	bl	80039a6 <_Error_Handler>
    _Error_Handler(__FILE__, __LINE__);
 8003b02:	f240 1121 	movw	r1, #289	; 0x121
 8003b06:	4806      	ldr	r0, [pc, #24]	; (8003b20 <MX_ADC2_Init+0xc4>)
 8003b08:	f7ff ff4d 	bl	80039a6 <_Error_Handler>
    _Error_Handler(__FILE__, __LINE__);
 8003b0c:	f44f 7195 	mov.w	r1, #298	; 0x12a
 8003b10:	4803      	ldr	r0, [pc, #12]	; (8003b20 <MX_ADC2_Init+0xc4>)
 8003b12:	f7ff ff48 	bl	80039a6 <_Error_Handler>
 8003b16:	bf00      	nop
 8003b18:	20000154 	.word	0x20000154
 8003b1c:	50000100 	.word	0x50000100
 8003b20:	08005748 	.word	0x08005748

08003b24 <MX_RTC_Init>:
{
 8003b24:	b508      	push	{r3, lr}
  hrtc.Instance = RTC;
 8003b26:	480a      	ldr	r0, [pc, #40]	; (8003b50 <MX_RTC_Init+0x2c>)
 8003b28:	4b0a      	ldr	r3, [pc, #40]	; (8003b54 <MX_RTC_Init+0x30>)
 8003b2a:	6003      	str	r3, [r0, #0]
  hrtc.Init.HourFormat = RTC_HOURFORMAT_24;
 8003b2c:	2300      	movs	r3, #0
 8003b2e:	6043      	str	r3, [r0, #4]
  hrtc.Init.AsynchPrediv = 127;
 8003b30:	227f      	movs	r2, #127	; 0x7f
 8003b32:	6082      	str	r2, [r0, #8]
  hrtc.Init.SynchPrediv = 255;
 8003b34:	22ff      	movs	r2, #255	; 0xff
 8003b36:	60c2      	str	r2, [r0, #12]
  hrtc.Init.OutPut = RTC_OUTPUT_DISABLE;
 8003b38:	6103      	str	r3, [r0, #16]
  hrtc.Init.OutPutPolarity = RTC_OUTPUT_POLARITY_HIGH;
 8003b3a:	6143      	str	r3, [r0, #20]
  hrtc.Init.OutPutType = RTC_OUTPUT_TYPE_OPENDRAIN;
 8003b3c:	6183      	str	r3, [r0, #24]
  if (HAL_RTC_Init(&hrtc) != HAL_OK)
 8003b3e:	f7fe fe89 	bl	8002854 <HAL_RTC_Init>
 8003b42:	b900      	cbnz	r0, 8003b46 <MX_RTC_Init+0x22>
 8003b44:	bd08      	pop	{r3, pc}
    _Error_Handler(__FILE__, __LINE__);
 8003b46:	f44f 719f 	mov.w	r1, #318	; 0x13e
 8003b4a:	4803      	ldr	r0, [pc, #12]	; (8003b58 <MX_RTC_Init+0x34>)
 8003b4c:	f7ff ff2b 	bl	80039a6 <_Error_Handler>
 8003b50:	20000260 	.word	0x20000260
 8003b54:	40002800 	.word	0x40002800
 8003b58:	08005748 	.word	0x08005748

08003b5c <SystemClock_Config>:
{
 8003b5c:	b500      	push	{lr}
 8003b5e:	b097      	sub	sp, #92	; 0x5c
  RCC_OscInitStruct.OscillatorType = RCC_OSCILLATORTYPE_HSI|RCC_OSCILLATORTYPE_LSI;
 8003b60:	230a      	movs	r3, #10
 8003b62:	930c      	str	r3, [sp, #48]	; 0x30
  RCC_OscInitStruct.HSIState = RCC_HSI_ON;
 8003b64:	2301      	movs	r3, #1
 8003b66:	9310      	str	r3, [sp, #64]	; 0x40
  RCC_OscInitStruct.HSICalibrationValue = 16;
 8003b68:	2210      	movs	r2, #16
 8003b6a:	9211      	str	r2, [sp, #68]	; 0x44
  RCC_OscInitStruct.LSIState = RCC_LSI_ON;
 8003b6c:	9312      	str	r3, [sp, #72]	; 0x48
  RCC_OscInitStruct.PLL.PLLState = RCC_PLL_ON;
 8003b6e:	2302      	movs	r3, #2
 8003b70:	9313      	str	r3, [sp, #76]	; 0x4c
  RCC_OscInitStruct.PLL.PLLSource = RCC_PLLSOURCE_HSI;
 8003b72:	2300      	movs	r3, #0
 8003b74:	9314      	str	r3, [sp, #80]	; 0x50
  RCC_OscInitStruct.PLL.PLLMUL = RCC_PLL_MUL16;
 8003b76:	f44f 1360 	mov.w	r3, #3670016	; 0x380000
 8003b7a:	9315      	str	r3, [sp, #84]	; 0x54
  if (HAL_RCC_OscConfig(&RCC_OscInitStruct) != HAL_OK)
 8003b7c:	a80c      	add	r0, sp, #48	; 0x30
 8003b7e:	f7fe f97d 	bl	8001e7c <HAL_RCC_OscConfig>
 8003b82:	bb78      	cbnz	r0, 8003be4 <SystemClock_Config+0x88>
  RCC_ClkInitStruct.ClockType = RCC_CLOCKTYPE_HCLK|RCC_CLOCKTYPE_SYSCLK
 8003b84:	230f      	movs	r3, #15
 8003b86:	9307      	str	r3, [sp, #28]
  RCC_ClkInitStruct.SYSCLKSource = RCC_SYSCLKSOURCE_PLLCLK;
 8003b88:	2102      	movs	r1, #2
 8003b8a:	9108      	str	r1, [sp, #32]
  RCC_ClkInitStruct.AHBCLKDivider = RCC_SYSCLK_DIV1;
 8003b8c:	2300      	movs	r3, #0
 8003b8e:	9309      	str	r3, [sp, #36]	; 0x24
  RCC_ClkInitStruct.APB1CLKDivider = RCC_HCLK_DIV2;
 8003b90:	f44f 6280 	mov.w	r2, #1024	; 0x400
 8003b94:	920a      	str	r2, [sp, #40]	; 0x28
  RCC_ClkInitStruct.APB2CLKDivider = RCC_HCLK_DIV1;
 8003b96:	930b      	str	r3, [sp, #44]	; 0x2c
  if (HAL_RCC_ClockConfig(&RCC_ClkInitStruct, FLASH_LATENCY_2) != HAL_OK)
 8003b98:	a807      	add	r0, sp, #28
 8003b9a:	f7fe fc3d 	bl	8002418 <HAL_RCC_ClockConfig>
 8003b9e:	bb28      	cbnz	r0, 8003bec <SystemClock_Config+0x90>
  PeriphClkInit.PeriphClockSelection = RCC_PERIPHCLK_USART1|RCC_PERIPHCLK_RTC
 8003ba0:	4b16      	ldr	r3, [pc, #88]	; (8003bfc <SystemClock_Config+0xa0>)
 8003ba2:	9300      	str	r3, [sp, #0]
  PeriphClkInit.Usart1ClockSelection = RCC_USART1CLKSOURCE_PCLK1;
 8003ba4:	2300      	movs	r3, #0
 8003ba6:	9302      	str	r3, [sp, #8]
  PeriphClkInit.Adc12ClockSelection = RCC_ADC12PLLCLK_DIV256;
 8003ba8:	f44f 73d8 	mov.w	r3, #432	; 0x1b0
 8003bac:	9304      	str	r3, [sp, #16]
  PeriphClkInit.RTCClockSelection = RCC_RTCCLKSOURCE_LSI;
 8003bae:	f44f 7300 	mov.w	r3, #512	; 0x200
 8003bb2:	9301      	str	r3, [sp, #4]
  if (HAL_RCCEx_PeriphCLKConfig(&PeriphClkInit) != HAL_OK)
 8003bb4:	4668      	mov	r0, sp
 8003bb6:	f7fe fd8b 	bl	80026d0 <HAL_RCCEx_PeriphCLKConfig>
 8003bba:	b9d8      	cbnz	r0, 8003bf4 <SystemClock_Config+0x98>
  HAL_SYSTICK_Config(HAL_RCC_GetHCLKFreq()/1000);
 8003bbc:	f7fe fd52 	bl	8002664 <HAL_RCC_GetHCLKFreq>
 8003bc0:	4b0f      	ldr	r3, [pc, #60]	; (8003c00 <SystemClock_Config+0xa4>)
 8003bc2:	fba3 3000 	umull	r3, r0, r3, r0
 8003bc6:	0980      	lsrs	r0, r0, #6
 8003bc8:	f7fd ff2a 	bl	8001a20 <HAL_SYSTICK_Config>
  HAL_SYSTICK_CLKSourceConfig(SYSTICK_CLKSOURCE_HCLK);
 8003bcc:	2004      	movs	r0, #4
 8003bce:	f7fd ff41 	bl	8001a54 <HAL_SYSTICK_CLKSourceConfig>
  HAL_NVIC_SetPriority(SysTick_IRQn, 0, 2);
 8003bd2:	2202      	movs	r2, #2
 8003bd4:	2100      	movs	r1, #0
 8003bd6:	f04f 30ff 	mov.w	r0, #4294967295
 8003bda:	f7fd fedf 	bl	800199c <HAL_NVIC_SetPriority>
}
 8003bde:	b017      	add	sp, #92	; 0x5c
 8003be0:	f85d fb04 	ldr.w	pc, [sp], #4
    _Error_Handler(__FILE__, __LINE__);
 8003be4:	21c3      	movs	r1, #195	; 0xc3
 8003be6:	4807      	ldr	r0, [pc, #28]	; (8003c04 <SystemClock_Config+0xa8>)
 8003be8:	f7ff fedd 	bl	80039a6 <_Error_Handler>
    _Error_Handler(__FILE__, __LINE__);
 8003bec:	21d1      	movs	r1, #209	; 0xd1
 8003bee:	4805      	ldr	r0, [pc, #20]	; (8003c04 <SystemClock_Config+0xa8>)
 8003bf0:	f7ff fed9 	bl	80039a6 <_Error_Handler>
    _Error_Handler(__FILE__, __LINE__);
 8003bf4:	21db      	movs	r1, #219	; 0xdb
 8003bf6:	4803      	ldr	r0, [pc, #12]	; (8003c04 <SystemClock_Config+0xa8>)
 8003bf8:	f7ff fed5 	bl	80039a6 <_Error_Handler>
 8003bfc:	00010081 	.word	0x00010081
 8003c00:	10624dd3 	.word	0x10624dd3
 8003c04:	08005748 	.word	0x08005748

08003c08 <main>:
{
 8003c08:	b508      	push	{r3, lr}
  HAL_Init();
 8003c0a:	f7fd f983 	bl	8000f14 <HAL_Init>
  SystemClock_Config();
 8003c0e:	f7ff ffa5 	bl	8003b5c <SystemClock_Config>
  MX_GPIO_Init();
 8003c12:	f7ff fe17 	bl	8003844 <MX_GPIO_Init>
  MX_DMA_Init();
 8003c16:	f7ff feab 	bl	8003970 <MX_DMA_Init>
  MX_TIM2_Init();
 8003c1a:	f7ff fec5 	bl	80039a8 <MX_TIM2_Init>
  MX_USART1_UART_Init();
 8003c1e:	f7ff fefd 	bl	8003a1c <MX_USART1_UART_Init>
  MX_ADC2_Init();
 8003c22:	f7ff ff1b 	bl	8003a5c <MX_ADC2_Init>
  MX_RTC_Init();
 8003c26:	f7ff ff7d 	bl	8003b24 <MX_RTC_Init>
  HAL_ADCEx_Calibration_Start(&hadc2, ADC_SINGLE_ENDED);
 8003c2a:	4c1b      	ldr	r4, [pc, #108]	; (8003c98 <main+0x90>)
 8003c2c:	2100      	movs	r1, #0
 8003c2e:	4620      	mov	r0, r4
 8003c30:	f7fd fc9a 	bl	8001568 <HAL_ADCEx_Calibration_Start>
  init_peripherals();
 8003c34:	f7ff fcf6 	bl	8003624 <init_peripherals>
  HAL_UART_Receive_IT(&huart1, (uint8_t*)&rx_buffer, 1);
 8003c38:	2201      	movs	r2, #1
 8003c3a:	4918      	ldr	r1, [pc, #96]	; (8003c9c <main+0x94>)
 8003c3c:	4818      	ldr	r0, [pc, #96]	; (8003ca0 <main+0x98>)
 8003c3e:	f7ff f8c7 	bl	8002dd0 <HAL_UART_Receive_IT>
 HAL_ADC_Start_DMA(&hadc2, ADC1_buffer, 7);
 8003c42:	2207      	movs	r2, #7
 8003c44:	4b17      	ldr	r3, [pc, #92]	; (8003ca4 <main+0x9c>)
 8003c46:	6819      	ldr	r1, [r3, #0]
 8003c48:	4620      	mov	r0, r4
 8003c4a:	f7fd fb53 	bl	80012f4 <HAL_ADC_Start_DMA>
 8003c4e:	e009      	b.n	8003c64 <main+0x5c>
		  rx_flag = 0;
 8003c50:	2200      	movs	r2, #0
 8003c52:	4b15      	ldr	r3, [pc, #84]	; (8003ca8 <main+0xa0>)
 8003c54:	701a      	strb	r2, [r3, #0]
		  uart_comms();
 8003c56:	f000 fbe1 	bl	800441c <uart_comms>
 8003c5a:	e007      	b.n	8003c6c <main+0x64>
	  if(adc_flag == 1){	// ADC conversion
 8003c5c:	4b13      	ldr	r3, [pc, #76]	; (8003cac <main+0xa4>)
 8003c5e:	781b      	ldrb	r3, [r3, #0]
 8003c60:	2b01      	cmp	r3, #1
 8003c62:	d013      	beq.n	8003c8c <main+0x84>
	  if(rx_flag == 1 ){ 	// UART Comms
 8003c64:	4b10      	ldr	r3, [pc, #64]	; (8003ca8 <main+0xa0>)
 8003c66:	781b      	ldrb	r3, [r3, #0]
 8003c68:	2b01      	cmp	r3, #1
 8003c6a:	d0f1      	beq.n	8003c50 <main+0x48>
	  if(systick_flag == 1){	// Seven Segment
 8003c6c:	4b10      	ldr	r3, [pc, #64]	; (8003cb0 <main+0xa8>)
 8003c6e:	781b      	ldrb	r3, [r3, #0]
 8003c70:	2b01      	cmp	r3, #1
 8003c72:	d1f3      	bne.n	8003c5c <main+0x54>
		  systick_flag = 0;
 8003c74:	2200      	movs	r2, #0
 8003c76:	4b0e      	ldr	r3, [pc, #56]	; (8003cb0 <main+0xa8>)
 8003c78:	701a      	strb	r2, [r3, #0]
		  seven_segment();
 8003c7a:	f000 f81b 	bl	8003cb4 <seven_segment>
		  HAL_ADC_Start_DMA(&hadc2, ADC1_buffer, 7);
 8003c7e:	2207      	movs	r2, #7
 8003c80:	4b08      	ldr	r3, [pc, #32]	; (8003ca4 <main+0x9c>)
 8003c82:	6819      	ldr	r1, [r3, #0]
 8003c84:	4804      	ldr	r0, [pc, #16]	; (8003c98 <main+0x90>)
 8003c86:	f7fd fb35 	bl	80012f4 <HAL_ADC_Start_DMA>
 8003c8a:	e7e7      	b.n	8003c5c <main+0x54>
		  adc_flag = 0;
 8003c8c:	2200      	movs	r2, #0
 8003c8e:	4b07      	ldr	r3, [pc, #28]	; (8003cac <main+0xa4>)
 8003c90:	701a      	strb	r2, [r3, #0]
		  adc_comms();
 8003c92:	f7ff fbc5 	bl	8003420 <adc_comms>
 8003c96:	e7e5      	b.n	8003c64 <main+0x5c>
 8003c98:	20000154 	.word	0x20000154
 8003c9c:	20000320 	.word	0x20000320
 8003ca0:	200001f0 	.word	0x200001f0
 8003ca4:	200000b4 	.word	0x200000b4
 8003ca8:	20000114 	.word	0x20000114
 8003cac:	200000d2 	.word	0x200000d2
 8003cb0:	20000121 	.word	0x20000121

08003cb4 <seven_segment>:
extern UART_HandleTypeDef huart1;
extern ADC_HandleTypeDef hadc2;



void seven_segment(){
 8003cb4:	b538      	push	{r3, r4, r5, lr}

	if(segment_counter == 0){	// Left Most Digit
 8003cb6:	4d30      	ldr	r5, [pc, #192]	; (8003d78 <seven_segment+0xc4>)
 8003cb8:	782c      	ldrb	r4, [r5, #0]
 8003cba:	b134      	cbz	r4, 8003cca <seven_segment+0x16>
		HAL_GPIO_WritePin(GPIOB,GPIO_PIN_5,GPIO_PIN_SET);		// D3
		HAL_GPIO_WritePin(GPIOB,GPIO_PIN_3,GPIO_PIN_SET);		// D4
		seven_segment_display(segment_val[segment_counter]-48 );
		segment_counter += 1;
	}
	else if( segment_counter == 1){		// Middle left Digit
 8003cbc:	2c01      	cmp	r4, #1
 8003cbe:	d045      	beq.n	8003d4c <seven_segment+0x98>
		HAL_GPIO_WritePin(GPIOB,GPIO_PIN_5,GPIO_PIN_SET);		// D3
		HAL_GPIO_WritePin(GPIOB,GPIO_PIN_3,GPIO_PIN_SET);		// D4
		seven_segment_display(segment_val[segment_counter]-48);
		segment_counter += 1;
	}
	else if( segment_counter == 2){		// Middle Right Digit
 8003cc0:	2c02      	cmp	r4, #2
 8003cc2:	d04b      	beq.n	8003d5c <seven_segment+0xa8>
		HAL_GPIO_WritePin(GPIOB,GPIO_PIN_5,GPIO_PIN_RESET);		// D3
		HAL_GPIO_WritePin(GPIOB,GPIO_PIN_3,GPIO_PIN_SET);		// D4
		seven_segment_display(segment_val[segment_counter]-48);
		segment_counter += 1;
	}
	else if( segment_counter == 3){ // Right Most Digit
 8003cc4:	2c03      	cmp	r4, #3
 8003cc6:	d021      	beq.n	8003d0c <seven_segment+0x58>
 8003cc8:	bd38      	pop	{r3, r4, r5, pc}
		HAL_GPIO_WritePin(GPIOB,GPIO_PIN_10,GPIO_PIN_RESET);	// D1
 8003cca:	4622      	mov	r2, r4
 8003ccc:	f44f 6180 	mov.w	r1, #1024	; 0x400
 8003cd0:	482a      	ldr	r0, [pc, #168]	; (8003d7c <seven_segment+0xc8>)
 8003cd2:	f7fe f8bf 	bl	8001e54 <HAL_GPIO_WritePin>
		HAL_GPIO_WritePin(GPIOB,GPIO_PIN_4,GPIO_PIN_SET);		// D2
 8003cd6:	2201      	movs	r2, #1
 8003cd8:	2110      	movs	r1, #16
 8003cda:	4828      	ldr	r0, [pc, #160]	; (8003d7c <seven_segment+0xc8>)
 8003cdc:	f7fe f8ba 	bl	8001e54 <HAL_GPIO_WritePin>
		HAL_GPIO_WritePin(GPIOB,GPIO_PIN_5,GPIO_PIN_SET);		// D3
 8003ce0:	2201      	movs	r2, #1
 8003ce2:	2120      	movs	r1, #32
 8003ce4:	4825      	ldr	r0, [pc, #148]	; (8003d7c <seven_segment+0xc8>)
 8003ce6:	f7fe f8b5 	bl	8001e54 <HAL_GPIO_WritePin>
		HAL_GPIO_WritePin(GPIOB,GPIO_PIN_3,GPIO_PIN_SET);		// D4
 8003cea:	2201      	movs	r2, #1
 8003cec:	2108      	movs	r1, #8
 8003cee:	4823      	ldr	r0, [pc, #140]	; (8003d7c <seven_segment+0xc8>)
 8003cf0:	f7fe f8b0 	bl	8001e54 <HAL_GPIO_WritePin>
		seven_segment_display(segment_val[segment_counter]-48 );
 8003cf4:	4a22      	ldr	r2, [pc, #136]	; (8003d80 <seven_segment+0xcc>)
 8003cf6:	782b      	ldrb	r3, [r5, #0]
 8003cf8:	6812      	ldr	r2, [r2, #0]
 8003cfa:	5cd0      	ldrb	r0, [r2, r3]
 8003cfc:	3830      	subs	r0, #48	; 0x30
 8003cfe:	b2c0      	uxtb	r0, r0
 8003d00:	f000 f840 	bl	8003d84 <seven_segment_display>
		segment_counter += 1;
 8003d04:	782b      	ldrb	r3, [r5, #0]
 8003d06:	3301      	adds	r3, #1
 8003d08:	702b      	strb	r3, [r5, #0]
 8003d0a:	bd38      	pop	{r3, r4, r5, pc}
		HAL_GPIO_WritePin(GPIOB,GPIO_PIN_10,GPIO_PIN_SET);		// D1
 8003d0c:	2201      	movs	r2, #1
 8003d0e:	f44f 6180 	mov.w	r1, #1024	; 0x400
 8003d12:	481a      	ldr	r0, [pc, #104]	; (8003d7c <seven_segment+0xc8>)
 8003d14:	f7fe f89e 	bl	8001e54 <HAL_GPIO_WritePin>
		HAL_GPIO_WritePin(GPIOB,GPIO_PIN_4,GPIO_PIN_SET);		// D2
 8003d18:	2201      	movs	r2, #1
 8003d1a:	2110      	movs	r1, #16
 8003d1c:	4817      	ldr	r0, [pc, #92]	; (8003d7c <seven_segment+0xc8>)
 8003d1e:	f7fe f899 	bl	8001e54 <HAL_GPIO_WritePin>
		HAL_GPIO_WritePin(GPIOB,GPIO_PIN_5,GPIO_PIN_SET);		// D3
 8003d22:	2201      	movs	r2, #1
 8003d24:	2120      	movs	r1, #32
 8003d26:	4815      	ldr	r0, [pc, #84]	; (8003d7c <seven_segment+0xc8>)
 8003d28:	f7fe f894 	bl	8001e54 <HAL_GPIO_WritePin>
		HAL_GPIO_WritePin(GPIOB,GPIO_PIN_3,GPIO_PIN_RESET);		// D4
 8003d2c:	2200      	movs	r2, #0
 8003d2e:	2108      	movs	r1, #8
 8003d30:	4812      	ldr	r0, [pc, #72]	; (8003d7c <seven_segment+0xc8>)
 8003d32:	f7fe f88f 	bl	8001e54 <HAL_GPIO_WritePin>
		seven_segment_display(segment_val[segment_counter]-48);
 8003d36:	4a12      	ldr	r2, [pc, #72]	; (8003d80 <seven_segment+0xcc>)
 8003d38:	782b      	ldrb	r3, [r5, #0]
 8003d3a:	6812      	ldr	r2, [r2, #0]
 8003d3c:	5cd0      	ldrb	r0, [r2, r3]
 8003d3e:	3830      	subs	r0, #48	; 0x30
 8003d40:	b2c0      	uxtb	r0, r0
 8003d42:	f000 f81f 	bl	8003d84 <seven_segment_display>
		segment_counter = 0;
 8003d46:	2300      	movs	r3, #0
 8003d48:	702b      	strb	r3, [r5, #0]
 8003d4a:	bd38      	pop	{r3, r4, r5, pc}
		HAL_GPIO_WritePin(GPIOB,GPIO_PIN_10,GPIO_PIN_SET);		// D1
 8003d4c:	4622      	mov	r2, r4
 8003d4e:	f44f 6180 	mov.w	r1, #1024	; 0x400
 8003d52:	480a      	ldr	r0, [pc, #40]	; (8003d7c <seven_segment+0xc8>)
 8003d54:	f7fe f87e 	bl	8001e54 <HAL_GPIO_WritePin>
		HAL_GPIO_WritePin(GPIOB,GPIO_PIN_4,GPIO_PIN_RESET);		// D2
 8003d58:	2200      	movs	r2, #0
 8003d5a:	e7bd      	b.n	8003cd8 <seven_segment+0x24>
		HAL_GPIO_WritePin(GPIOB,GPIO_PIN_10,GPIO_PIN_SET);		// D1
 8003d5c:	2201      	movs	r2, #1
 8003d5e:	f44f 6180 	mov.w	r1, #1024	; 0x400
 8003d62:	4806      	ldr	r0, [pc, #24]	; (8003d7c <seven_segment+0xc8>)
 8003d64:	f7fe f876 	bl	8001e54 <HAL_GPIO_WritePin>
		HAL_GPIO_WritePin(GPIOB,GPIO_PIN_4,GPIO_PIN_SET);		// D2
 8003d68:	2201      	movs	r2, #1
 8003d6a:	2110      	movs	r1, #16
 8003d6c:	4803      	ldr	r0, [pc, #12]	; (8003d7c <seven_segment+0xc8>)
 8003d6e:	f7fe f871 	bl	8001e54 <HAL_GPIO_WritePin>
		HAL_GPIO_WritePin(GPIOB,GPIO_PIN_5,GPIO_PIN_RESET);		// D3
 8003d72:	2200      	movs	r2, #0
 8003d74:	e7b5      	b.n	8003ce2 <seven_segment+0x2e>
 8003d76:	bf00      	nop
 8003d78:	20000115 	.word	0x20000115
 8003d7c:	48000400 	.word	0x48000400
 8003d80:	20000118 	.word	0x20000118

08003d84 <seven_segment_display>:
extern TIM_HandleTypeDef htim3;
extern UART_HandleTypeDef huart1;
extern ADC_HandleTypeDef hadc2;


void seven_segment_display(uint8_t num){
 8003d84:	b508      	push	{r3, lr}
	switch(num){
 8003d86:	2809      	cmp	r0, #9
 8003d88:	f200 81bf 	bhi.w	800410a <seven_segment_display+0x386>
 8003d8c:	e8df f010 	tbh	[pc, r0, lsl #1]
 8003d90:	006c003b 	.word	0x006c003b
 8003d94:	00c40098 	.word	0x00c40098
 8003d98:	011200e8 	.word	0x011200e8
 8003d9c:	016a013e 	.word	0x016a013e
 8003da0:	000a018c 	.word	0x000a018c
		HAL_GPIO_WritePin(GPIOA,GPIO_PIN_8,GPIO_PIN_RESET);//F
		HAL_GPIO_WritePin(GPIOA,GPIO_PIN_9,GPIO_PIN_RESET);//G
		break;
	case 9:
		//ON
		HAL_GPIO_WritePin(GPIOA,GPIO_PIN_5,GPIO_PIN_RESET); //A
 8003da4:	2200      	movs	r2, #0
 8003da6:	2120      	movs	r1, #32
 8003da8:	f04f 4090 	mov.w	r0, #1207959552	; 0x48000000
 8003dac:	f7fe f852 	bl	8001e54 <HAL_GPIO_WritePin>
		HAL_GPIO_WritePin(GPIOB,GPIO_PIN_6,GPIO_PIN_RESET);//B
 8003db0:	2200      	movs	r2, #0
 8003db2:	2140      	movs	r1, #64	; 0x40
 8003db4:	48e9      	ldr	r0, [pc, #932]	; (800415c <seven_segment_display+0x3d8>)
 8003db6:	f7fe f84d 	bl	8001e54 <HAL_GPIO_WritePin>
		HAL_GPIO_WritePin(GPIOA,GPIO_PIN_7,GPIO_PIN_RESET);//C
 8003dba:	2200      	movs	r2, #0
 8003dbc:	2180      	movs	r1, #128	; 0x80
 8003dbe:	f04f 4090 	mov.w	r0, #1207959552	; 0x48000000
 8003dc2:	f7fe f847 	bl	8001e54 <HAL_GPIO_WritePin>
		HAL_GPIO_WritePin(GPIOA,GPIO_PIN_8,GPIO_PIN_RESET);//F
 8003dc6:	2200      	movs	r2, #0
 8003dc8:	f44f 7180 	mov.w	r1, #256	; 0x100
 8003dcc:	f04f 4090 	mov.w	r0, #1207959552	; 0x48000000
 8003dd0:	f7fe f840 	bl	8001e54 <HAL_GPIO_WritePin>
		HAL_GPIO_WritePin(GPIOA,GPIO_PIN_9,GPIO_PIN_RESET);//G
 8003dd4:	2200      	movs	r2, #0
 8003dd6:	f44f 7100 	mov.w	r1, #512	; 0x200
 8003dda:	f04f 4090 	mov.w	r0, #1207959552	; 0x48000000
 8003dde:	f7fe f839 	bl	8001e54 <HAL_GPIO_WritePin>
		HAL_GPIO_WritePin(GPIOA,GPIO_PIN_6,GPIO_PIN_RESET);
 8003de2:	2200      	movs	r2, #0
 8003de4:	2140      	movs	r1, #64	; 0x40
 8003de6:	f04f 4090 	mov.w	r0, #1207959552	; 0x48000000
 8003dea:	f7fe f833 	bl	8001e54 <HAL_GPIO_WritePin>
		//OFF
		HAL_GPIO_WritePin(GPIOC,GPIO_PIN_7,GPIO_PIN_SET);//E
 8003dee:	48dc      	ldr	r0, [pc, #880]	; (8004160 <seven_segment_display+0x3dc>)
 8003df0:	2201      	movs	r2, #1
 8003df2:	2180      	movs	r1, #128	; 0x80
		HAL_GPIO_WritePin(GPIOA,GPIO_PIN_9,GPIO_PIN_SET);//G
 8003df4:	f7fe f82e 	bl	8001e54 <HAL_GPIO_WritePin>
		HAL_GPIO_WritePin(GPIOB,GPIO_PIN_6,GPIO_PIN_SET);//D
 8003df8:	2201      	movs	r2, #1
 8003dfa:	2140      	movs	r1, #64	; 0x40
 8003dfc:	48d7      	ldr	r0, [pc, #860]	; (800415c <seven_segment_display+0x3d8>)

	}



}
 8003dfe:	e8bd 4008 	ldmia.w	sp!, {r3, lr}
		HAL_GPIO_WritePin(GPIOB,GPIO_PIN_6,GPIO_PIN_SET);//D
 8003e02:	f7fe b827 	b.w	8001e54 <HAL_GPIO_WritePin>
		HAL_GPIO_WritePin(GPIOA,GPIO_PIN_6,GPIO_PIN_RESET);
 8003e06:	2200      	movs	r2, #0
 8003e08:	2140      	movs	r1, #64	; 0x40
 8003e0a:	f04f 4090 	mov.w	r0, #1207959552	; 0x48000000
 8003e0e:	f7fe f821 	bl	8001e54 <HAL_GPIO_WritePin>
		HAL_GPIO_WritePin(GPIOA,GPIO_PIN_5,GPIO_PIN_RESET); //A
 8003e12:	2200      	movs	r2, #0
 8003e14:	2120      	movs	r1, #32
 8003e16:	f04f 4090 	mov.w	r0, #1207959552	; 0x48000000
 8003e1a:	f7fe f81b 	bl	8001e54 <HAL_GPIO_WritePin>
		HAL_GPIO_WritePin(GPIOB,GPIO_PIN_6,GPIO_PIN_RESET);//B
 8003e1e:	2200      	movs	r2, #0
 8003e20:	2140      	movs	r1, #64	; 0x40
 8003e22:	48ce      	ldr	r0, [pc, #824]	; (800415c <seven_segment_display+0x3d8>)
 8003e24:	f7fe f816 	bl	8001e54 <HAL_GPIO_WritePin>
		HAL_GPIO_WritePin(GPIOA,GPIO_PIN_7,GPIO_PIN_RESET);//C
 8003e28:	2200      	movs	r2, #0
 8003e2a:	2180      	movs	r1, #128	; 0x80
 8003e2c:	f04f 4090 	mov.w	r0, #1207959552	; 0x48000000
 8003e30:	f7fe f810 	bl	8001e54 <HAL_GPIO_WritePin>
		HAL_GPIO_WritePin(GPIOB,GPIO_PIN_6,GPIO_PIN_RESET);//D
 8003e34:	2200      	movs	r2, #0
 8003e36:	2140      	movs	r1, #64	; 0x40
 8003e38:	48c8      	ldr	r0, [pc, #800]	; (800415c <seven_segment_display+0x3d8>)
 8003e3a:	f7fe f80b 	bl	8001e54 <HAL_GPIO_WritePin>
		HAL_GPIO_WritePin(GPIOC,GPIO_PIN_7,GPIO_PIN_RESET);//E
 8003e3e:	2200      	movs	r2, #0
 8003e40:	2180      	movs	r1, #128	; 0x80
 8003e42:	48c7      	ldr	r0, [pc, #796]	; (8004160 <seven_segment_display+0x3dc>)
 8003e44:	f7fe f806 	bl	8001e54 <HAL_GPIO_WritePin>
		HAL_GPIO_WritePin(GPIOA,GPIO_PIN_8,GPIO_PIN_RESET);//F
 8003e48:	2200      	movs	r2, #0
 8003e4a:	f44f 7180 	mov.w	r1, #256	; 0x100
 8003e4e:	f04f 4090 	mov.w	r0, #1207959552	; 0x48000000
 8003e52:	f7fd ffff 	bl	8001e54 <HAL_GPIO_WritePin>
		HAL_GPIO_WritePin(GPIOA,GPIO_PIN_9,GPIO_PIN_SET);//G
 8003e56:	2201      	movs	r2, #1
 8003e58:	f44f 7100 	mov.w	r1, #512	; 0x200
 8003e5c:	f04f 4090 	mov.w	r0, #1207959552	; 0x48000000
}
 8003e60:	e8bd 4008 	ldmia.w	sp!, {r3, lr}
		HAL_GPIO_WritePin(GPIOA,GPIO_PIN_9,GPIO_PIN_SET);//G
 8003e64:	f7fd bff6 	b.w	8001e54 <HAL_GPIO_WritePin>
		HAL_GPIO_WritePin(GPIOA,GPIO_PIN_6,GPIO_PIN_RESET);
 8003e68:	2200      	movs	r2, #0
 8003e6a:	2140      	movs	r1, #64	; 0x40
 8003e6c:	f04f 4090 	mov.w	r0, #1207959552	; 0x48000000
 8003e70:	f7fd fff0 	bl	8001e54 <HAL_GPIO_WritePin>
		HAL_GPIO_WritePin(GPIOA,GPIO_PIN_7,GPIO_PIN_RESET);
 8003e74:	2200      	movs	r2, #0
 8003e76:	2180      	movs	r1, #128	; 0x80
 8003e78:	f04f 4090 	mov.w	r0, #1207959552	; 0x48000000
 8003e7c:	f7fd ffea 	bl	8001e54 <HAL_GPIO_WritePin>
		HAL_GPIO_WritePin(GPIOA,GPIO_PIN_5,GPIO_PIN_SET);
 8003e80:	2201      	movs	r2, #1
 8003e82:	2120      	movs	r1, #32
 8003e84:	f04f 4090 	mov.w	r0, #1207959552	; 0x48000000
 8003e88:	f7fd ffe4 	bl	8001e54 <HAL_GPIO_WritePin>
		HAL_GPIO_WritePin(GPIOA,GPIO_PIN_8,GPIO_PIN_SET);
 8003e8c:	2201      	movs	r2, #1
 8003e8e:	f44f 7180 	mov.w	r1, #256	; 0x100
 8003e92:	f04f 4090 	mov.w	r0, #1207959552	; 0x48000000
 8003e96:	f7fd ffdd 	bl	8001e54 <HAL_GPIO_WritePin>
		HAL_GPIO_WritePin(GPIOA,GPIO_PIN_9,GPIO_PIN_SET);
 8003e9a:	2201      	movs	r2, #1
 8003e9c:	f44f 7100 	mov.w	r1, #512	; 0x200
 8003ea0:	f04f 4090 	mov.w	r0, #1207959552	; 0x48000000
 8003ea4:	f7fd ffd6 	bl	8001e54 <HAL_GPIO_WritePin>
		HAL_GPIO_WritePin(GPIOB,GPIO_PIN_6,GPIO_PIN_SET);
 8003ea8:	48ac      	ldr	r0, [pc, #688]	; (800415c <seven_segment_display+0x3d8>)
 8003eaa:	2201      	movs	r2, #1
 8003eac:	2140      	movs	r1, #64	; 0x40
		HAL_GPIO_WritePin(GPIOA,GPIO_PIN_8,GPIO_PIN_SET);//F
 8003eae:	f7fd ffd1 	bl	8001e54 <HAL_GPIO_WritePin>
		HAL_GPIO_WritePin(GPIOC,GPIO_PIN_7,GPIO_PIN_SET);//E
 8003eb2:	2201      	movs	r2, #1
 8003eb4:	2180      	movs	r1, #128	; 0x80
 8003eb6:	48aa      	ldr	r0, [pc, #680]	; (8004160 <seven_segment_display+0x3dc>)
}
 8003eb8:	e8bd 4008 	ldmia.w	sp!, {r3, lr}
		HAL_GPIO_WritePin(GPIOC,GPIO_PIN_7,GPIO_PIN_SET);//E
 8003ebc:	f7fd bfca 	b.w	8001e54 <HAL_GPIO_WritePin>
		HAL_GPIO_WritePin(GPIOA,GPIO_PIN_5,GPIO_PIN_RESET);//A
 8003ec0:	2200      	movs	r2, #0
 8003ec2:	2120      	movs	r1, #32
 8003ec4:	f04f 4090 	mov.w	r0, #1207959552	; 0x48000000
 8003ec8:	f7fd ffc4 	bl	8001e54 <HAL_GPIO_WritePin>
		HAL_GPIO_WritePin(GPIOA,GPIO_PIN_6,GPIO_PIN_RESET);//B
 8003ecc:	2200      	movs	r2, #0
 8003ece:	2140      	movs	r1, #64	; 0x40
 8003ed0:	f04f 4090 	mov.w	r0, #1207959552	; 0x48000000
 8003ed4:	f7fd ffbe 	bl	8001e54 <HAL_GPIO_WritePin>
		HAL_GPIO_WritePin(GPIOA,GPIO_PIN_9,GPIO_PIN_RESET);//G
 8003ed8:	2200      	movs	r2, #0
 8003eda:	f44f 7100 	mov.w	r1, #512	; 0x200
 8003ede:	f04f 4090 	mov.w	r0, #1207959552	; 0x48000000
 8003ee2:	f7fd ffb7 	bl	8001e54 <HAL_GPIO_WritePin>
		HAL_GPIO_WritePin(GPIOC,GPIO_PIN_7,GPIO_PIN_RESET);//E
 8003ee6:	2200      	movs	r2, #0
 8003ee8:	2180      	movs	r1, #128	; 0x80
 8003eea:	489d      	ldr	r0, [pc, #628]	; (8004160 <seven_segment_display+0x3dc>)
 8003eec:	f7fd ffb2 	bl	8001e54 <HAL_GPIO_WritePin>
		HAL_GPIO_WritePin(GPIOB,GPIO_PIN_6,GPIO_PIN_RESET);//B
 8003ef0:	2200      	movs	r2, #0
 8003ef2:	2140      	movs	r1, #64	; 0x40
 8003ef4:	4899      	ldr	r0, [pc, #612]	; (800415c <seven_segment_display+0x3d8>)
 8003ef6:	f7fd ffad 	bl	8001e54 <HAL_GPIO_WritePin>
		HAL_GPIO_WritePin(GPIOA,GPIO_PIN_8,GPIO_PIN_SET);//F
 8003efa:	2201      	movs	r2, #1
 8003efc:	f44f 7180 	mov.w	r1, #256	; 0x100
 8003f00:	f04f 4090 	mov.w	r0, #1207959552	; 0x48000000
 8003f04:	f7fd ffa6 	bl	8001e54 <HAL_GPIO_WritePin>
		HAL_GPIO_WritePin(GPIOA,GPIO_PIN_7,GPIO_PIN_SET);//C
 8003f08:	2201      	movs	r2, #1
 8003f0a:	2180      	movs	r1, #128	; 0x80
 8003f0c:	f04f 4090 	mov.w	r0, #1207959552	; 0x48000000
}
 8003f10:	e8bd 4008 	ldmia.w	sp!, {r3, lr}
		HAL_GPIO_WritePin(GPIOA,GPIO_PIN_7,GPIO_PIN_SET);//C
 8003f14:	f7fd bf9e 	b.w	8001e54 <HAL_GPIO_WritePin>
		HAL_GPIO_WritePin(GPIOA,GPIO_PIN_5,GPIO_PIN_RESET); //A
 8003f18:	2200      	movs	r2, #0
 8003f1a:	2120      	movs	r1, #32
 8003f1c:	f04f 4090 	mov.w	r0, #1207959552	; 0x48000000
 8003f20:	f7fd ff98 	bl	8001e54 <HAL_GPIO_WritePin>
		HAL_GPIO_WritePin(GPIOA,GPIO_PIN_6,GPIO_PIN_RESET); //B
 8003f24:	2200      	movs	r2, #0
 8003f26:	2140      	movs	r1, #64	; 0x40
 8003f28:	f04f 4090 	mov.w	r0, #1207959552	; 0x48000000
 8003f2c:	f7fd ff92 	bl	8001e54 <HAL_GPIO_WritePin>
		HAL_GPIO_WritePin(GPIOA,GPIO_PIN_9,GPIO_PIN_RESET);//G
 8003f30:	2200      	movs	r2, #0
 8003f32:	f44f 7100 	mov.w	r1, #512	; 0x200
 8003f36:	f04f 4090 	mov.w	r0, #1207959552	; 0x48000000
 8003f3a:	f7fd ff8b 	bl	8001e54 <HAL_GPIO_WritePin>
		HAL_GPIO_WritePin(GPIOA,GPIO_PIN_7,GPIO_PIN_RESET);//C
 8003f3e:	2200      	movs	r2, #0
 8003f40:	2180      	movs	r1, #128	; 0x80
 8003f42:	f04f 4090 	mov.w	r0, #1207959552	; 0x48000000
 8003f46:	f7fd ff85 	bl	8001e54 <HAL_GPIO_WritePin>
		HAL_GPIO_WritePin(GPIOB,GPIO_PIN_6,GPIO_PIN_RESET);//D
 8003f4a:	2200      	movs	r2, #0
 8003f4c:	2140      	movs	r1, #64	; 0x40
 8003f4e:	4883      	ldr	r0, [pc, #524]	; (800415c <seven_segment_display+0x3d8>)
 8003f50:	f7fd ff80 	bl	8001e54 <HAL_GPIO_WritePin>
		HAL_GPIO_WritePin(GPIOA,GPIO_PIN_8,GPIO_PIN_SET);//F
 8003f54:	2201      	movs	r2, #1
 8003f56:	f44f 7180 	mov.w	r1, #256	; 0x100
 8003f5a:	f04f 4090 	mov.w	r0, #1207959552	; 0x48000000
 8003f5e:	e7a6      	b.n	8003eae <seven_segment_display+0x12a>
		HAL_GPIO_WritePin(GPIOA,GPIO_PIN_6,GPIO_PIN_RESET);
 8003f60:	2200      	movs	r2, #0
 8003f62:	2140      	movs	r1, #64	; 0x40
 8003f64:	f04f 4090 	mov.w	r0, #1207959552	; 0x48000000
 8003f68:	f7fd ff74 	bl	8001e54 <HAL_GPIO_WritePin>
		HAL_GPIO_WritePin(GPIOA,GPIO_PIN_8,GPIO_PIN_RESET);//F
 8003f6c:	2200      	movs	r2, #0
 8003f6e:	f44f 7180 	mov.w	r1, #256	; 0x100
 8003f72:	f04f 4090 	mov.w	r0, #1207959552	; 0x48000000
 8003f76:	f7fd ff6d 	bl	8001e54 <HAL_GPIO_WritePin>
		HAL_GPIO_WritePin(GPIOA,GPIO_PIN_9,GPIO_PIN_RESET);//G
 8003f7a:	2200      	movs	r2, #0
 8003f7c:	f44f 7100 	mov.w	r1, #512	; 0x200
 8003f80:	f04f 4090 	mov.w	r0, #1207959552	; 0x48000000
 8003f84:	f7fd ff66 	bl	8001e54 <HAL_GPIO_WritePin>
		HAL_GPIO_WritePin(GPIOA,GPIO_PIN_7,GPIO_PIN_RESET);//C
 8003f88:	2200      	movs	r2, #0
 8003f8a:	2180      	movs	r1, #128	; 0x80
 8003f8c:	f04f 4090 	mov.w	r0, #1207959552	; 0x48000000
 8003f90:	f7fd ff60 	bl	8001e54 <HAL_GPIO_WritePin>
		HAL_GPIO_WritePin(GPIOA,GPIO_PIN_5,GPIO_PIN_SET); //A
 8003f94:	2201      	movs	r2, #1
 8003f96:	2120      	movs	r1, #32
 8003f98:	f04f 4090 	mov.w	r0, #1207959552	; 0x48000000
 8003f9c:	f7fd ff5a 	bl	8001e54 <HAL_GPIO_WritePin>
		HAL_GPIO_WritePin(GPIOC,GPIO_PIN_7,GPIO_PIN_SET);//E
 8003fa0:	2201      	movs	r2, #1
 8003fa2:	2180      	movs	r1, #128	; 0x80
 8003fa4:	486e      	ldr	r0, [pc, #440]	; (8004160 <seven_segment_display+0x3dc>)
 8003fa6:	f7fd ff55 	bl	8001e54 <HAL_GPIO_WritePin>
		HAL_GPIO_WritePin(GPIOA,GPIO_PIN_5,GPIO_PIN_SET); //A
 8003faa:	2201      	movs	r2, #1
 8003fac:	2120      	movs	r1, #32
		HAL_GPIO_WritePin(GPIOA,GPIO_PIN_9,GPIO_PIN_SET);//G
 8003fae:	f04f 4090 	mov.w	r0, #1207959552	; 0x48000000
 8003fb2:	e71f      	b.n	8003df4 <seven_segment_display+0x70>
		HAL_GPIO_WritePin(GPIOA,GPIO_PIN_5,GPIO_PIN_RESET); //A
 8003fb4:	2200      	movs	r2, #0
 8003fb6:	2120      	movs	r1, #32
 8003fb8:	f04f 4090 	mov.w	r0, #1207959552	; 0x48000000
 8003fbc:	f7fd ff4a 	bl	8001e54 <HAL_GPIO_WritePin>
		HAL_GPIO_WritePin(GPIOA,GPIO_PIN_8,GPIO_PIN_RESET);//F
 8003fc0:	2200      	movs	r2, #0
 8003fc2:	f44f 7180 	mov.w	r1, #256	; 0x100
 8003fc6:	f04f 4090 	mov.w	r0, #1207959552	; 0x48000000
 8003fca:	f7fd ff43 	bl	8001e54 <HAL_GPIO_WritePin>
		HAL_GPIO_WritePin(GPIOA,GPIO_PIN_9,GPIO_PIN_RESET);//G
 8003fce:	2200      	movs	r2, #0
 8003fd0:	f44f 7100 	mov.w	r1, #512	; 0x200
 8003fd4:	f04f 4090 	mov.w	r0, #1207959552	; 0x48000000
 8003fd8:	f7fd ff3c 	bl	8001e54 <HAL_GPIO_WritePin>
		HAL_GPIO_WritePin(GPIOA,GPIO_PIN_7,GPIO_PIN_RESET);//C
 8003fdc:	2200      	movs	r2, #0
 8003fde:	2180      	movs	r1, #128	; 0x80
 8003fe0:	f04f 4090 	mov.w	r0, #1207959552	; 0x48000000
 8003fe4:	f7fd ff36 	bl	8001e54 <HAL_GPIO_WritePin>
		HAL_GPIO_WritePin(GPIOA,GPIO_PIN_6,GPIO_PIN_SET); //B
 8003fe8:	2201      	movs	r2, #1
 8003fea:	2140      	movs	r1, #64	; 0x40
 8003fec:	f04f 4090 	mov.w	r0, #1207959552	; 0x48000000
 8003ff0:	f7fd ff30 	bl	8001e54 <HAL_GPIO_WritePin>
		HAL_GPIO_WritePin(GPIOC,GPIO_PIN_7,GPIO_PIN_SET);//E
 8003ff4:	2201      	movs	r2, #1
 8003ff6:	2180      	movs	r1, #128	; 0x80
 8003ff8:	4859      	ldr	r0, [pc, #356]	; (8004160 <seven_segment_display+0x3dc>)
 8003ffa:	f7fd ff2b 	bl	8001e54 <HAL_GPIO_WritePin>
		HAL_GPIO_WritePin(GPIOB,GPIO_PIN_6,GPIO_PIN_RESET);//d
 8003ffe:	2200      	movs	r2, #0
 8004000:	2140      	movs	r1, #64	; 0x40
 8004002:	4856      	ldr	r0, [pc, #344]	; (800415c <seven_segment_display+0x3d8>)
}
 8004004:	e8bd 4008 	ldmia.w	sp!, {r3, lr}
		HAL_GPIO_WritePin(GPIOB,GPIO_PIN_6,GPIO_PIN_RESET);//d
 8004008:	f7fd bf24 	b.w	8001e54 <HAL_GPIO_WritePin>
		HAL_GPIO_WritePin(GPIOA,GPIO_PIN_5,GPIO_PIN_RESET); //A
 800400c:	2200      	movs	r2, #0
 800400e:	2120      	movs	r1, #32
 8004010:	f04f 4090 	mov.w	r0, #1207959552	; 0x48000000
 8004014:	f7fd ff1e 	bl	8001e54 <HAL_GPIO_WritePin>
		HAL_GPIO_WritePin(GPIOA,GPIO_PIN_8,GPIO_PIN_RESET);//F
 8004018:	2200      	movs	r2, #0
 800401a:	f44f 7180 	mov.w	r1, #256	; 0x100
 800401e:	f04f 4090 	mov.w	r0, #1207959552	; 0x48000000
 8004022:	f7fd ff17 	bl	8001e54 <HAL_GPIO_WritePin>
		HAL_GPIO_WritePin(GPIOA,GPIO_PIN_9,GPIO_PIN_RESET);//G
 8004026:	2200      	movs	r2, #0
 8004028:	f44f 7100 	mov.w	r1, #512	; 0x200
 800402c:	f04f 4090 	mov.w	r0, #1207959552	; 0x48000000
 8004030:	f7fd ff10 	bl	8001e54 <HAL_GPIO_WritePin>
		HAL_GPIO_WritePin(GPIOA,GPIO_PIN_7,GPIO_PIN_RESET);//C
 8004034:	2200      	movs	r2, #0
 8004036:	2180      	movs	r1, #128	; 0x80
 8004038:	f04f 4090 	mov.w	r0, #1207959552	; 0x48000000
 800403c:	f7fd ff0a 	bl	8001e54 <HAL_GPIO_WritePin>
		HAL_GPIO_WritePin(GPIOB,GPIO_PIN_6,GPIO_PIN_RESET);//D
 8004040:	2200      	movs	r2, #0
 8004042:	2140      	movs	r1, #64	; 0x40
 8004044:	4845      	ldr	r0, [pc, #276]	; (800415c <seven_segment_display+0x3d8>)
 8004046:	f7fd ff05 	bl	8001e54 <HAL_GPIO_WritePin>
		HAL_GPIO_WritePin(GPIOC,GPIO_PIN_7,GPIO_PIN_RESET);//E
 800404a:	4845      	ldr	r0, [pc, #276]	; (8004160 <seven_segment_display+0x3dc>)
 800404c:	2200      	movs	r2, #0
 800404e:	2180      	movs	r1, #128	; 0x80
		HAL_GPIO_WritePin(GPIOA,GPIO_PIN_9,GPIO_PIN_SET);//
 8004050:	f7fd ff00 	bl	8001e54 <HAL_GPIO_WritePin>
		HAL_GPIO_WritePin(GPIOA,GPIO_PIN_6,GPIO_PIN_SET);
 8004054:	2201      	movs	r2, #1
 8004056:	2140      	movs	r1, #64	; 0x40
 8004058:	f04f 4090 	mov.w	r0, #1207959552	; 0x48000000
}
 800405c:	e8bd 4008 	ldmia.w	sp!, {r3, lr}
		HAL_GPIO_WritePin(GPIOA,GPIO_PIN_6,GPIO_PIN_SET);
 8004060:	f7fd bef8 	b.w	8001e54 <HAL_GPIO_WritePin>
		HAL_GPIO_WritePin(GPIOA,GPIO_PIN_5,GPIO_PIN_RESET); //A
 8004064:	2200      	movs	r2, #0
 8004066:	2120      	movs	r1, #32
 8004068:	f04f 4090 	mov.w	r0, #1207959552	; 0x48000000
 800406c:	f7fd fef2 	bl	8001e54 <HAL_GPIO_WritePin>
		HAL_GPIO_WritePin(GPIOA,GPIO_PIN_6,GPIO_PIN_RESET);//B
 8004070:	2200      	movs	r2, #0
 8004072:	2140      	movs	r1, #64	; 0x40
 8004074:	f04f 4090 	mov.w	r0, #1207959552	; 0x48000000
 8004078:	f7fd feec 	bl	8001e54 <HAL_GPIO_WritePin>
		HAL_GPIO_WritePin(GPIOA,GPIO_PIN_7,GPIO_PIN_RESET);//C
 800407c:	2200      	movs	r2, #0
 800407e:	2180      	movs	r1, #128	; 0x80
 8004080:	f04f 4090 	mov.w	r0, #1207959552	; 0x48000000
 8004084:	f7fd fee6 	bl	8001e54 <HAL_GPIO_WritePin>
		HAL_GPIO_WritePin(GPIOC,GPIO_PIN_7,GPIO_PIN_SET);//E
 8004088:	2201      	movs	r2, #1
 800408a:	2180      	movs	r1, #128	; 0x80
 800408c:	4834      	ldr	r0, [pc, #208]	; (8004160 <seven_segment_display+0x3dc>)
 800408e:	f7fd fee1 	bl	8001e54 <HAL_GPIO_WritePin>
		HAL_GPIO_WritePin(GPIOA,GPIO_PIN_8,GPIO_PIN_SET);//F
 8004092:	2201      	movs	r2, #1
 8004094:	f44f 7180 	mov.w	r1, #256	; 0x100
 8004098:	f04f 4090 	mov.w	r0, #1207959552	; 0x48000000
 800409c:	f7fd feda 	bl	8001e54 <HAL_GPIO_WritePin>
		HAL_GPIO_WritePin(GPIOA,GPIO_PIN_9,GPIO_PIN_SET);//G
 80040a0:	2201      	movs	r2, #1
 80040a2:	f44f 7100 	mov.w	r1, #512	; 0x200
 80040a6:	e782      	b.n	8003fae <seven_segment_display+0x22a>
		HAL_GPIO_WritePin(GPIOA,GPIO_PIN_6,GPIO_PIN_RESET);
 80040a8:	2200      	movs	r2, #0
 80040aa:	2140      	movs	r1, #64	; 0x40
 80040ac:	f04f 4090 	mov.w	r0, #1207959552	; 0x48000000
 80040b0:	f7fd fed0 	bl	8001e54 <HAL_GPIO_WritePin>
		HAL_GPIO_WritePin(GPIOA,GPIO_PIN_5,GPIO_PIN_RESET); //A
 80040b4:	2200      	movs	r2, #0
 80040b6:	2120      	movs	r1, #32
 80040b8:	f04f 4090 	mov.w	r0, #1207959552	; 0x48000000
 80040bc:	f7fd feca 	bl	8001e54 <HAL_GPIO_WritePin>
		HAL_GPIO_WritePin(GPIOB,GPIO_PIN_6,GPIO_PIN_RESET);//B
 80040c0:	2200      	movs	r2, #0
 80040c2:	2140      	movs	r1, #64	; 0x40
 80040c4:	4825      	ldr	r0, [pc, #148]	; (800415c <seven_segment_display+0x3d8>)
 80040c6:	f7fd fec5 	bl	8001e54 <HAL_GPIO_WritePin>
		HAL_GPIO_WritePin(GPIOA,GPIO_PIN_7,GPIO_PIN_RESET);//C
 80040ca:	2200      	movs	r2, #0
 80040cc:	2180      	movs	r1, #128	; 0x80
 80040ce:	f04f 4090 	mov.w	r0, #1207959552	; 0x48000000
 80040d2:	f7fd febf 	bl	8001e54 <HAL_GPIO_WritePin>
		HAL_GPIO_WritePin(GPIOB,GPIO_PIN_6,GPIO_PIN_RESET);//D
 80040d6:	2200      	movs	r2, #0
 80040d8:	2140      	movs	r1, #64	; 0x40
 80040da:	4820      	ldr	r0, [pc, #128]	; (800415c <seven_segment_display+0x3d8>)
 80040dc:	f7fd feba 	bl	8001e54 <HAL_GPIO_WritePin>
		HAL_GPIO_WritePin(GPIOC,GPIO_PIN_7,GPIO_PIN_RESET);//E
 80040e0:	2200      	movs	r2, #0
 80040e2:	2180      	movs	r1, #128	; 0x80
 80040e4:	481e      	ldr	r0, [pc, #120]	; (8004160 <seven_segment_display+0x3dc>)
 80040e6:	f7fd feb5 	bl	8001e54 <HAL_GPIO_WritePin>
		HAL_GPIO_WritePin(GPIOA,GPIO_PIN_8,GPIO_PIN_RESET);//F
 80040ea:	2200      	movs	r2, #0
 80040ec:	f44f 7180 	mov.w	r1, #256	; 0x100
 80040f0:	f04f 4090 	mov.w	r0, #1207959552	; 0x48000000
 80040f4:	f7fd feae 	bl	8001e54 <HAL_GPIO_WritePin>
		HAL_GPIO_WritePin(GPIOA,GPIO_PIN_9,GPIO_PIN_RESET);//G
 80040f8:	2200      	movs	r2, #0
 80040fa:	f44f 7100 	mov.w	r1, #512	; 0x200
 80040fe:	f04f 4090 	mov.w	r0, #1207959552	; 0x48000000
}
 8004102:	e8bd 4008 	ldmia.w	sp!, {r3, lr}
		HAL_GPIO_WritePin(GPIOA,GPIO_PIN_9,GPIO_PIN_RESET);//G
 8004106:	f7fd bea5 	b.w	8001e54 <HAL_GPIO_WritePin>
		HAL_GPIO_WritePin(GPIOA,GPIO_PIN_5,GPIO_PIN_SET); //A
 800410a:	2201      	movs	r2, #1
 800410c:	2120      	movs	r1, #32
 800410e:	f04f 4090 	mov.w	r0, #1207959552	; 0x48000000
 8004112:	f7fd fe9f 	bl	8001e54 <HAL_GPIO_WritePin>
		HAL_GPIO_WritePin(GPIOB,GPIO_PIN_6,GPIO_PIN_SET);//B
 8004116:	2201      	movs	r2, #1
 8004118:	2140      	movs	r1, #64	; 0x40
 800411a:	4810      	ldr	r0, [pc, #64]	; (800415c <seven_segment_display+0x3d8>)
 800411c:	f7fd fe9a 	bl	8001e54 <HAL_GPIO_WritePin>
		HAL_GPIO_WritePin(GPIOA,GPIO_PIN_7,GPIO_PIN_SET);//C
 8004120:	2201      	movs	r2, #1
 8004122:	2180      	movs	r1, #128	; 0x80
 8004124:	f04f 4090 	mov.w	r0, #1207959552	; 0x48000000
 8004128:	f7fd fe94 	bl	8001e54 <HAL_GPIO_WritePin>
		HAL_GPIO_WritePin(GPIOB,GPIO_PIN_6,GPIO_PIN_SET);//D
 800412c:	2201      	movs	r2, #1
 800412e:	2140      	movs	r1, #64	; 0x40
 8004130:	480a      	ldr	r0, [pc, #40]	; (800415c <seven_segment_display+0x3d8>)
 8004132:	f7fd fe8f 	bl	8001e54 <HAL_GPIO_WritePin>
		HAL_GPIO_WritePin(GPIOC,GPIO_PIN_7,GPIO_PIN_SET);//E
 8004136:	2201      	movs	r2, #1
 8004138:	2180      	movs	r1, #128	; 0x80
 800413a:	4809      	ldr	r0, [pc, #36]	; (8004160 <seven_segment_display+0x3dc>)
 800413c:	f7fd fe8a 	bl	8001e54 <HAL_GPIO_WritePin>
		HAL_GPIO_WritePin(GPIOA,GPIO_PIN_8,GPIO_PIN_SET);//F
 8004140:	2201      	movs	r2, #1
 8004142:	f44f 7180 	mov.w	r1, #256	; 0x100
 8004146:	f04f 4090 	mov.w	r0, #1207959552	; 0x48000000
 800414a:	f7fd fe83 	bl	8001e54 <HAL_GPIO_WritePin>
		HAL_GPIO_WritePin(GPIOA,GPIO_PIN_9,GPIO_PIN_SET);//
 800414e:	2201      	movs	r2, #1
 8004150:	f44f 7100 	mov.w	r1, #512	; 0x200
 8004154:	f04f 4090 	mov.w	r0, #1207959552	; 0x48000000
 8004158:	e77a      	b.n	8004050 <seven_segment_display+0x2cc>
 800415a:	bf00      	nop
 800415c:	48000400 	.word	0x48000400
 8004160:	48000800 	.word	0x48000800

08004164 <HAL_MspInit>:
{
  /* USER CODE BEGIN MspInit 0 */

  /* USER CODE END MspInit 0 */

  __HAL_RCC_SYSCFG_CLK_ENABLE();
 8004164:	4b1d      	ldr	r3, [pc, #116]	; (80041dc <HAL_MspInit+0x78>)
{
 8004166:	b500      	push	{lr}
  __HAL_RCC_SYSCFG_CLK_ENABLE();
 8004168:	699a      	ldr	r2, [r3, #24]
 800416a:	f042 0201 	orr.w	r2, r2, #1
 800416e:	619a      	str	r2, [r3, #24]
 8004170:	699b      	ldr	r3, [r3, #24]
{
 8004172:	b083      	sub	sp, #12
  __HAL_RCC_SYSCFG_CLK_ENABLE();
 8004174:	f003 0301 	and.w	r3, r3, #1
 8004178:	9301      	str	r3, [sp, #4]

  HAL_NVIC_SetPriorityGrouping(NVIC_PRIORITYGROUP_0);
 800417a:	2007      	movs	r0, #7
  __HAL_RCC_SYSCFG_CLK_ENABLE();
 800417c:	9b01      	ldr	r3, [sp, #4]
  HAL_NVIC_SetPriorityGrouping(NVIC_PRIORITYGROUP_0);
 800417e:	f7fd fbfb 	bl	8001978 <HAL_NVIC_SetPriorityGrouping>

  /* System interrupt init*/
  /* MemoryManagement_IRQn interrupt configuration */
  HAL_NVIC_SetPriority(MemoryManagement_IRQn, 0, 2);
 8004182:	2202      	movs	r2, #2
 8004184:	2100      	movs	r1, #0
 8004186:	f06f 000b 	mvn.w	r0, #11
 800418a:	f7fd fc07 	bl	800199c <HAL_NVIC_SetPriority>
  /* BusFault_IRQn interrupt configuration */
  HAL_NVIC_SetPriority(BusFault_IRQn, 0, 2);
 800418e:	2202      	movs	r2, #2
 8004190:	2100      	movs	r1, #0
 8004192:	f06f 000a 	mvn.w	r0, #10
 8004196:	f7fd fc01 	bl	800199c <HAL_NVIC_SetPriority>
  /* UsageFault_IRQn interrupt configuration */
  HAL_NVIC_SetPriority(UsageFault_IRQn, 0, 2);
 800419a:	2202      	movs	r2, #2
 800419c:	2100      	movs	r1, #0
 800419e:	f06f 0009 	mvn.w	r0, #9
 80041a2:	f7fd fbfb 	bl	800199c <HAL_NVIC_SetPriority>
  /* SVCall_IRQn interrupt configuration */
  HAL_NVIC_SetPriority(SVCall_IRQn, 0, 2);
 80041a6:	2202      	movs	r2, #2
 80041a8:	2100      	movs	r1, #0
 80041aa:	f06f 0004 	mvn.w	r0, #4
 80041ae:	f7fd fbf5 	bl	800199c <HAL_NVIC_SetPriority>
  /* DebugMonitor_IRQn interrupt configuration */
  HAL_NVIC_SetPriority(DebugMonitor_IRQn, 0, 2);
 80041b2:	2202      	movs	r2, #2
 80041b4:	2100      	movs	r1, #0
 80041b6:	f06f 0003 	mvn.w	r0, #3
 80041ba:	f7fd fbef 	bl	800199c <HAL_NVIC_SetPriority>
  /* PendSV_IRQn interrupt configuration */
  HAL_NVIC_SetPriority(PendSV_IRQn, 0, 2);
 80041be:	2202      	movs	r2, #2
 80041c0:	2100      	movs	r1, #0
 80041c2:	f06f 0001 	mvn.w	r0, #1
 80041c6:	f7fd fbe9 	bl	800199c <HAL_NVIC_SetPriority>
  /* SysTick_IRQn interrupt configuration */
  HAL_NVIC_SetPriority(SysTick_IRQn, 0, 2);
 80041ca:	2202      	movs	r2, #2
 80041cc:	2100      	movs	r1, #0
 80041ce:	f04f 30ff 	mov.w	r0, #4294967295
 80041d2:	f7fd fbe3 	bl	800199c <HAL_NVIC_SetPriority>

  /* USER CODE BEGIN MspInit 1 */

  /* USER CODE END MspInit 1 */
}
 80041d6:	b003      	add	sp, #12
 80041d8:	f85d fb04 	ldr.w	pc, [sp], #4
 80041dc:	40021000 	.word	0x40021000

080041e0 <HAL_ADC_MspInit>:

void HAL_ADC_MspInit(ADC_HandleTypeDef* hadc)
{

  GPIO_InitTypeDef GPIO_InitStruct;
  if(hadc->Instance==ADC2)
 80041e0:	4b21      	ldr	r3, [pc, #132]	; (8004268 <HAL_ADC_MspInit+0x88>)
 80041e2:	6802      	ldr	r2, [r0, #0]
 80041e4:	429a      	cmp	r2, r3
 80041e6:	d000      	beq.n	80041ea <HAL_ADC_MspInit+0xa>
 80041e8:	4770      	bx	lr
  {
  /* USER CODE BEGIN ADC2_MspInit 0 */

  /* USER CODE END ADC2_MspInit 0 */
    /* Peripheral clock enable */
    __HAL_RCC_ADC12_CLK_ENABLE();
 80041ea:	4b20      	ldr	r3, [pc, #128]	; (800426c <HAL_ADC_MspInit+0x8c>)
{
 80041ec:	b5f0      	push	{r4, r5, r6, r7, lr}
    __HAL_RCC_ADC12_CLK_ENABLE();
 80041ee:	695a      	ldr	r2, [r3, #20]
    GPIO_InitStruct.Pull = GPIO_NOPULL;
    HAL_GPIO_Init(GPIOB, &GPIO_InitStruct);

    /* ADC2 DMA Init */
    /* ADC2 Init */
    hdma_adc2.Instance = DMA1_Channel2;
 80041f0:	4d1f      	ldr	r5, [pc, #124]	; (8004270 <HAL_ADC_MspInit+0x90>)
    __HAL_RCC_ADC12_CLK_ENABLE();
 80041f2:	f042 5280 	orr.w	r2, r2, #268435456	; 0x10000000
 80041f6:	615a      	str	r2, [r3, #20]
 80041f8:	695b      	ldr	r3, [r3, #20]
{
 80041fa:	b087      	sub	sp, #28
    __HAL_RCC_ADC12_CLK_ENABLE();
 80041fc:	f003 5380 	and.w	r3, r3, #268435456	; 0x10000000
    GPIO_InitStruct.Pull = GPIO_NOPULL;
 8004200:	2600      	movs	r6, #0
    __HAL_RCC_ADC12_CLK_ENABLE();
 8004202:	9300      	str	r3, [sp, #0]
    GPIO_InitStruct.Mode = GPIO_MODE_ANALOG;
 8004204:	2703      	movs	r7, #3
    GPIO_InitStruct.Pin = GPIO_PIN_2|GPIO_PIN_3;
 8004206:	230c      	movs	r3, #12
    HAL_GPIO_Init(GPIOC, &GPIO_InitStruct);
 8004208:	a901      	add	r1, sp, #4
 800420a:	4604      	mov	r4, r0
 800420c:	4819      	ldr	r0, [pc, #100]	; (8004274 <HAL_ADC_MspInit+0x94>)
    __HAL_RCC_ADC12_CLK_ENABLE();
 800420e:	9a00      	ldr	r2, [sp, #0]
    GPIO_InitStruct.Pin = GPIO_PIN_2|GPIO_PIN_3;
 8004210:	9301      	str	r3, [sp, #4]
    GPIO_InitStruct.Mode = GPIO_MODE_ANALOG;
 8004212:	9702      	str	r7, [sp, #8]
    GPIO_InitStruct.Pull = GPIO_NOPULL;
 8004214:	9603      	str	r6, [sp, #12]
    HAL_GPIO_Init(GPIOC, &GPIO_InitStruct);
 8004216:	f7fd fd33 	bl	8001c80 <HAL_GPIO_Init>
    GPIO_InitStruct.Pin = GPIO_PIN_2|GPIO_PIN_15;
 800421a:	f248 0304 	movw	r3, #32772	; 0x8004
    HAL_GPIO_Init(GPIOB, &GPIO_InitStruct);
 800421e:	a901      	add	r1, sp, #4
 8004220:	4815      	ldr	r0, [pc, #84]	; (8004278 <HAL_ADC_MspInit+0x98>)
    GPIO_InitStruct.Mode = GPIO_MODE_ANALOG;
 8004222:	9702      	str	r7, [sp, #8]
    GPIO_InitStruct.Pin = GPIO_PIN_2|GPIO_PIN_15;
 8004224:	9301      	str	r3, [sp, #4]
    GPIO_InitStruct.Pull = GPIO_NOPULL;
 8004226:	9603      	str	r6, [sp, #12]
    hdma_adc2.Init.Direction = DMA_PERIPH_TO_MEMORY;
    hdma_adc2.Init.PeriphInc = DMA_PINC_DISABLE;
    hdma_adc2.Init.MemInc = DMA_MINC_ENABLE;
 8004228:	2780      	movs	r7, #128	; 0x80
    HAL_GPIO_Init(GPIOB, &GPIO_InitStruct);
 800422a:	f7fd fd29 	bl	8001c80 <HAL_GPIO_Init>
    hdma_adc2.Instance = DMA1_Channel2;
 800422e:	f8df e050 	ldr.w	lr, [pc, #80]	; 8004280 <HAL_ADC_MspInit+0xa0>
    hdma_adc2.Init.Direction = DMA_PERIPH_TO_MEMORY;
 8004232:	606e      	str	r6, [r5, #4]
    hdma_adc2.Init.PeriphDataAlignment = DMA_PDATAALIGN_WORD;
 8004234:	f44f 7100 	mov.w	r1, #512	; 0x200
    hdma_adc2.Init.MemDataAlignment = DMA_MDATAALIGN_WORD;
 8004238:	f44f 6200 	mov.w	r2, #2048	; 0x800
    hdma_adc2.Init.Mode = DMA_CIRCULAR;
 800423c:	2320      	movs	r3, #32
    hdma_adc2.Init.Priority = DMA_PRIORITY_LOW;
    if (HAL_DMA_Init(&hdma_adc2) != HAL_OK)
 800423e:	4628      	mov	r0, r5
    hdma_adc2.Init.PeriphInc = DMA_PINC_DISABLE;
 8004240:	60ae      	str	r6, [r5, #8]
    hdma_adc2.Init.Priority = DMA_PRIORITY_LOW;
 8004242:	61ee      	str	r6, [r5, #28]
    hdma_adc2.Instance = DMA1_Channel2;
 8004244:	f8c5 e000 	str.w	lr, [r5]
    hdma_adc2.Init.MemInc = DMA_MINC_ENABLE;
 8004248:	60ef      	str	r7, [r5, #12]
    hdma_adc2.Init.PeriphDataAlignment = DMA_PDATAALIGN_WORD;
 800424a:	6129      	str	r1, [r5, #16]
    hdma_adc2.Init.MemDataAlignment = DMA_MDATAALIGN_WORD;
 800424c:	616a      	str	r2, [r5, #20]
    hdma_adc2.Init.Mode = DMA_CIRCULAR;
 800424e:	61ab      	str	r3, [r5, #24]
    if (HAL_DMA_Init(&hdma_adc2) != HAL_OK)
 8004250:	f7fd fc12 	bl	8001a78 <HAL_DMA_Init>
 8004254:	b918      	cbnz	r0, 800425e <HAL_ADC_MspInit+0x7e>
    {
      _Error_Handler(__FILE__, __LINE__);
    }

    __HAL_LINKDMA(hadc,DMA_Handle,hdma_adc2);
 8004256:	63e5      	str	r5, [r4, #60]	; 0x3c
 8004258:	626c      	str	r4, [r5, #36]	; 0x24
  /* USER CODE BEGIN ADC2_MspInit 1 */

  /* USER CODE END ADC2_MspInit 1 */
  }

}
 800425a:	b007      	add	sp, #28
 800425c:	bdf0      	pop	{r4, r5, r6, r7, pc}
      _Error_Handler(__FILE__, __LINE__);
 800425e:	217a      	movs	r1, #122	; 0x7a
 8004260:	4806      	ldr	r0, [pc, #24]	; (800427c <HAL_ADC_MspInit+0x9c>)
 8004262:	f7ff fba0 	bl	80039a6 <_Error_Handler>
 8004266:	e7f6      	b.n	8004256 <HAL_ADC_MspInit+0x76>
 8004268:	50000100 	.word	0x50000100
 800426c:	40021000 	.word	0x40021000
 8004270:	200002d8 	.word	0x200002d8
 8004274:	48000800 	.word	0x48000800
 8004278:	48000400 	.word	0x48000400
 800427c:	08005758 	.word	0x08005758
 8004280:	4002001c 	.word	0x4002001c

08004284 <HAL_RTC_MspInit>:
}

void HAL_RTC_MspInit(RTC_HandleTypeDef* hrtc)
{

  if(hrtc->Instance==RTC)
 8004284:	6802      	ldr	r2, [r0, #0]
 8004286:	4b08      	ldr	r3, [pc, #32]	; (80042a8 <HAL_RTC_MspInit+0x24>)
 8004288:	429a      	cmp	r2, r3
 800428a:	d000      	beq.n	800428e <HAL_RTC_MspInit+0xa>
 800428c:	4770      	bx	lr
 800428e:	f44f 4200 	mov.w	r2, #32768	; 0x8000
 8004292:	fa92 f2a2 	rbit	r2, r2
  {
  /* USER CODE BEGIN RTC_MspInit 0 */

  /* USER CODE END RTC_MspInit 0 */
    /* Peripheral clock enable */
    __HAL_RCC_RTC_ENABLE();
 8004296:	4b05      	ldr	r3, [pc, #20]	; (80042ac <HAL_RTC_MspInit+0x28>)
 8004298:	fab2 f282 	clz	r2, r2
 800429c:	4413      	add	r3, r2
 800429e:	009b      	lsls	r3, r3, #2
 80042a0:	2201      	movs	r2, #1
 80042a2:	601a      	str	r2, [r3, #0]
 80042a4:	4770      	bx	lr
 80042a6:	bf00      	nop
 80042a8:	40002800 	.word	0x40002800
 80042ac:	10908100 	.word	0x10908100

080042b0 <HAL_TIM_Base_MspInit>:
}

void HAL_TIM_Base_MspInit(TIM_HandleTypeDef* htim_base)
{

  if(htim_base->Instance==TIM2)
 80042b0:	6803      	ldr	r3, [r0, #0]
 80042b2:	f1b3 4f80 	cmp.w	r3, #1073741824	; 0x40000000
 80042b6:	d000      	beq.n	80042ba <HAL_TIM_Base_MspInit+0xa>
 80042b8:	4770      	bx	lr
  {
  /* USER CODE BEGIN TIM2_MspInit 0 */

  /* USER CODE END TIM2_MspInit 0 */
    /* Peripheral clock enable */
    __HAL_RCC_TIM2_CLK_ENABLE();
 80042ba:	f503 3304 	add.w	r3, r3, #135168	; 0x21000
{
 80042be:	b500      	push	{lr}
    __HAL_RCC_TIM2_CLK_ENABLE();
 80042c0:	69da      	ldr	r2, [r3, #28]
 80042c2:	f042 0201 	orr.w	r2, r2, #1
 80042c6:	61da      	str	r2, [r3, #28]
 80042c8:	69db      	ldr	r3, [r3, #28]
{
 80042ca:	b083      	sub	sp, #12
    __HAL_RCC_TIM2_CLK_ENABLE();
 80042cc:	f003 0301 	and.w	r3, r3, #1
 80042d0:	9301      	str	r3, [sp, #4]
    /* TIM2 interrupt Init */
    HAL_NVIC_SetPriority(TIM2_IRQn, 0, 2);
 80042d2:	2202      	movs	r2, #2
 80042d4:	2100      	movs	r1, #0
 80042d6:	201c      	movs	r0, #28
    __HAL_RCC_TIM2_CLK_ENABLE();
 80042d8:	9b01      	ldr	r3, [sp, #4]
    HAL_NVIC_SetPriority(TIM2_IRQn, 0, 2);
 80042da:	f7fd fb5f 	bl	800199c <HAL_NVIC_SetPriority>
    HAL_NVIC_EnableIRQ(TIM2_IRQn);
 80042de:	201c      	movs	r0, #28
 80042e0:	f7fd fb92 	bl	8001a08 <HAL_NVIC_EnableIRQ>
  /* USER CODE BEGIN TIM2_MspInit 1 */

  /* USER CODE END TIM2_MspInit 1 */
  }

}
 80042e4:	b003      	add	sp, #12
 80042e6:	f85d fb04 	ldr.w	pc, [sp], #4
 80042ea:	bf00      	nop

080042ec <HAL_UART_MspInit>:

void HAL_UART_MspInit(UART_HandleTypeDef* huart)
{

  GPIO_InitTypeDef GPIO_InitStruct;
  if(huart->Instance==USART1)
 80042ec:	6802      	ldr	r2, [r0, #0]
 80042ee:	4b14      	ldr	r3, [pc, #80]	; (8004340 <HAL_UART_MspInit+0x54>)
 80042f0:	429a      	cmp	r2, r3
 80042f2:	d000      	beq.n	80042f6 <HAL_UART_MspInit+0xa>
 80042f4:	4770      	bx	lr
  {
  /* USER CODE BEGIN USART1_MspInit 0 */

  /* USER CODE END USART1_MspInit 0 */
    /* Peripheral clock enable */
    __HAL_RCC_USART1_CLK_ENABLE();
 80042f6:	f503 4358 	add.w	r3, r3, #55296	; 0xd800
{
 80042fa:	b5f0      	push	{r4, r5, r6, r7, lr}
    __HAL_RCC_USART1_CLK_ENABLE();
 80042fc:	699a      	ldr	r2, [r3, #24]
    GPIO_InitStruct.Pin = GPIO_PIN_4|GPIO_PIN_5;
    GPIO_InitStruct.Mode = GPIO_MODE_AF_PP;
    GPIO_InitStruct.Pull = GPIO_NOPULL;
    GPIO_InitStruct.Speed = GPIO_SPEED_FREQ_HIGH;
    GPIO_InitStruct.Alternate = GPIO_AF7_USART1;
    HAL_GPIO_Init(GPIOC, &GPIO_InitStruct);
 80042fe:	4811      	ldr	r0, [pc, #68]	; (8004344 <HAL_UART_MspInit+0x58>)
    __HAL_RCC_USART1_CLK_ENABLE();
 8004300:	f442 4280 	orr.w	r2, r2, #16384	; 0x4000
 8004304:	619a      	str	r2, [r3, #24]
 8004306:	699b      	ldr	r3, [r3, #24]
{
 8004308:	b087      	sub	sp, #28
    __HAL_RCC_USART1_CLK_ENABLE();
 800430a:	f403 4380 	and.w	r3, r3, #16384	; 0x4000
 800430e:	9300      	str	r3, [sp, #0]
    GPIO_InitStruct.Pull = GPIO_NOPULL;
 8004310:	2400      	movs	r4, #0
    GPIO_InitStruct.Alternate = GPIO_AF7_USART1;
 8004312:	2307      	movs	r3, #7
    GPIO_InitStruct.Speed = GPIO_SPEED_FREQ_HIGH;
 8004314:	2203      	movs	r2, #3
    HAL_GPIO_Init(GPIOC, &GPIO_InitStruct);
 8004316:	a901      	add	r1, sp, #4
    GPIO_InitStruct.Pin = GPIO_PIN_4|GPIO_PIN_5;
 8004318:	2630      	movs	r6, #48	; 0x30
    GPIO_InitStruct.Mode = GPIO_MODE_AF_PP;
 800431a:	2502      	movs	r5, #2
    GPIO_InitStruct.Alternate = GPIO_AF7_USART1;
 800431c:	9305      	str	r3, [sp, #20]
    GPIO_InitStruct.Speed = GPIO_SPEED_FREQ_HIGH;
 800431e:	9204      	str	r2, [sp, #16]
    __HAL_RCC_USART1_CLK_ENABLE();
 8004320:	9f00      	ldr	r7, [sp, #0]
    GPIO_InitStruct.Pin = GPIO_PIN_4|GPIO_PIN_5;
 8004322:	9601      	str	r6, [sp, #4]
    GPIO_InitStruct.Mode = GPIO_MODE_AF_PP;
 8004324:	9502      	str	r5, [sp, #8]
    GPIO_InitStruct.Pull = GPIO_NOPULL;
 8004326:	9403      	str	r4, [sp, #12]
    HAL_GPIO_Init(GPIOC, &GPIO_InitStruct);
 8004328:	f7fd fcaa 	bl	8001c80 <HAL_GPIO_Init>

    /* USART1 interrupt Init */
    HAL_NVIC_SetPriority(USART1_IRQn, 0, 0);
 800432c:	4622      	mov	r2, r4
 800432e:	4621      	mov	r1, r4
 8004330:	2025      	movs	r0, #37	; 0x25
 8004332:	f7fd fb33 	bl	800199c <HAL_NVIC_SetPriority>
    HAL_NVIC_EnableIRQ(USART1_IRQn);
 8004336:	2025      	movs	r0, #37	; 0x25
 8004338:	f7fd fb66 	bl	8001a08 <HAL_NVIC_EnableIRQ>
  /* USER CODE BEGIN USART1_MspInit 1 */

  /* USER CODE END USART1_MspInit 1 */
  }

}
 800433c:	b007      	add	sp, #28
 800433e:	bdf0      	pop	{r4, r5, r6, r7, pc}
 8004340:	40013800 	.word	0x40013800
 8004344:	48000800 	.word	0x48000800

08004348 <SVC_Handler>:
 8004348:	4770      	bx	lr
 800434a:	bf00      	nop

0800434c <PendSV_Handler>:

/**
* @brief This function handles Pendable request for system service.
*/
void PendSV_Handler(void)
{
 800434c:	4770      	bx	lr
 800434e:	bf00      	nop

08004350 <SysTick_Handler>:

/**
* @brief This function handles System tick timer.
*/
void SysTick_Handler(void)
{
 8004350:	b508      	push	{r3, lr}
  /* USER CODE BEGIN SysTick_IRQn 0 */

  /* USER CODE END SysTick_IRQn 0 */
  HAL_IncTick();
 8004352:	f7fc fdf1 	bl	8000f38 <HAL_IncTick>
  HAL_SYSTICK_IRQHandler();
 8004356:	f7fd fb8b 	bl	8001a70 <HAL_SYSTICK_IRQHandler>
  /* USER CODE BEGIN SysTick_IRQn 1 */
  systick_flag = 1;
 800435a:	4b02      	ldr	r3, [pc, #8]	; (8004364 <SysTick_Handler+0x14>)
 800435c:	2201      	movs	r2, #1
 800435e:	701a      	strb	r2, [r3, #0]
 8004360:	bd08      	pop	{r3, pc}
 8004362:	bf00      	nop
 8004364:	20000121 	.word	0x20000121

08004368 <DMA1_Channel2_IRQHandler>:
void DMA1_Channel2_IRQHandler(void)
{
  /* USER CODE BEGIN DMA1_Channel2_IRQn 0 */

  /* USER CODE END DMA1_Channel2_IRQn 0 */
  HAL_DMA_IRQHandler(&hdma_adc2);
 8004368:	4801      	ldr	r0, [pc, #4]	; (8004370 <DMA1_Channel2_IRQHandler+0x8>)
 800436a:	f7fd bc3d 	b.w	8001be8 <HAL_DMA_IRQHandler>
 800436e:	bf00      	nop
 8004370:	200002d8 	.word	0x200002d8

08004374 <EXTI9_5_IRQHandler>:

/**
* @brief This function handles EXTI line[9:5] interrupts.
*/
void EXTI9_5_IRQHandler(void)
{
 8004374:	b508      	push	{r3, lr}
  /* USER CODE BEGIN EXTI9_5_IRQn 0 */

  /* USER CODE END EXTI9_5_IRQn 0 */
  HAL_GPIO_EXTI_IRQHandler(GPIO_PIN_6);
 8004376:	2040      	movs	r0, #64	; 0x40
 8004378:	f7fd fd74 	bl	8001e64 <HAL_GPIO_EXTI_IRQHandler>
  /* USER CODE BEGIN EXTI9_5_IRQn 1 */
  tim3_flag = 1;
 800437c:	4b01      	ldr	r3, [pc, #4]	; (8004384 <EXTI9_5_IRQHandler+0x10>)
 800437e:	2201      	movs	r2, #1
 8004380:	701a      	strb	r2, [r3, #0]
 8004382:	bd08      	pop	{r3, pc}
 8004384:	20000123 	.word	0x20000123

08004388 <TIM2_IRQHandler>:

/**
* @brief This function handles TIM2 global interrupt.
*/
void TIM2_IRQHandler(void)
{
 8004388:	b508      	push	{r3, lr}
  /* USER CODE BEGIN TIM2_IRQn 0 */

  /* USER CODE END TIM2_IRQn 0 */
  HAL_TIM_IRQHandler(&htim2);
 800438a:	4803      	ldr	r0, [pc, #12]	; (8004398 <TIM2_IRQHandler+0x10>)
 800438c:	f7fe fc18 	bl	8002bc0 <HAL_TIM_IRQHandler>
  /* USER CODE BEGIN TIM2_IRQn 1 */
  tim2_flag = 0;
 8004390:	4b02      	ldr	r3, [pc, #8]	; (800439c <TIM2_IRQHandler+0x14>)
 8004392:	2200      	movs	r2, #0
 8004394:	701a      	strb	r2, [r3, #0]
 8004396:	bd08      	pop	{r3, pc}
 8004398:	20000298 	.word	0x20000298
 800439c:	20000122 	.word	0x20000122

080043a0 <USART1_IRQHandler>:
void USART1_IRQHandler(void)
{
  /* USER CODE BEGIN USART1_IRQn 0 */

  /* USER CODE END USART1_IRQn 0 */
  HAL_UART_IRQHandler(&huart1);
 80043a0:	4801      	ldr	r0, [pc, #4]	; (80043a8 <USART1_IRQHandler+0x8>)
 80043a2:	f7fe bd6f 	b.w	8002e84 <HAL_UART_IRQHandler>
 80043a6:	bf00      	nop
 80043a8:	200001f0 	.word	0x200001f0

080043ac <SystemInit>:
  */
void SystemInit(void)
{
  /* FPU settings ------------------------------------------------------------*/
  #if (__FPU_PRESENT == 1) && (__FPU_USED == 1)
    SCB->CPACR |= ((3UL << 10*2)|(3UL << 11*2));  /* set CP10 and CP11 Full Access */
 80043ac:	4917      	ldr	r1, [pc, #92]	; (800440c <SystemInit+0x60>)
  #endif

  /* Reset the RCC clock configuration to the default reset state ------------*/
  /* Set HSION bit */
  RCC->CR |= 0x00000001U;
 80043ae:	4b18      	ldr	r3, [pc, #96]	; (8004410 <SystemInit+0x64>)

  /* Reset CFGR register */
  RCC->CFGR &= 0xF87FC00CU;
 80043b0:	4a18      	ldr	r2, [pc, #96]	; (8004414 <SystemInit+0x68>)

  /* Reset PREDIV1[3:0] bits */
  RCC->CFGR2 &= 0xFFFFFFF0U;

  /* Reset USARTSW[1:0], I2CSW and TIMs bits */
  RCC->CFGR3 &= 0xFF00FCCCU;
 80043b2:	4819      	ldr	r0, [pc, #100]	; (8004418 <SystemInit+0x6c>)
{
 80043b4:	b410      	push	{r4}
    SCB->CPACR |= ((3UL << 10*2)|(3UL << 11*2));  /* set CP10 and CP11 Full Access */
 80043b6:	f8d1 4088 	ldr.w	r4, [r1, #136]	; 0x88
 80043ba:	f444 0470 	orr.w	r4, r4, #15728640	; 0xf00000
 80043be:	f8c1 4088 	str.w	r4, [r1, #136]	; 0x88
  RCC->CR |= 0x00000001U;
 80043c2:	681c      	ldr	r4, [r3, #0]
 80043c4:	f044 0401 	orr.w	r4, r4, #1
 80043c8:	601c      	str	r4, [r3, #0]
  RCC->CFGR &= 0xF87FC00CU;
 80043ca:	685c      	ldr	r4, [r3, #4]
 80043cc:	4022      	ands	r2, r4
 80043ce:	605a      	str	r2, [r3, #4]
  RCC->CR &= 0xFEF6FFFFU;
 80043d0:	681a      	ldr	r2, [r3, #0]
 80043d2:	f022 7284 	bic.w	r2, r2, #17301504	; 0x1080000
 80043d6:	f422 3280 	bic.w	r2, r2, #65536	; 0x10000
 80043da:	601a      	str	r2, [r3, #0]
  RCC->CR &= 0xFFFBFFFFU;
 80043dc:	681a      	ldr	r2, [r3, #0]
 80043de:	f422 2280 	bic.w	r2, r2, #262144	; 0x40000
 80043e2:	601a      	str	r2, [r3, #0]
  RCC->CFGR &= 0xFF80FFFFU;
 80043e4:	685a      	ldr	r2, [r3, #4]
 80043e6:	f422 02fe 	bic.w	r2, r2, #8323072	; 0x7f0000
 80043ea:	605a      	str	r2, [r3, #4]
  RCC->CFGR2 &= 0xFFFFFFF0U;
 80043ec:	6ada      	ldr	r2, [r3, #44]	; 0x2c
 80043ee:	f022 020f 	bic.w	r2, r2, #15
 80043f2:	62da      	str	r2, [r3, #44]	; 0x2c
  RCC->CFGR3 &= 0xFF00FCCCU;
 80043f4:	6b1a      	ldr	r2, [r3, #48]	; 0x30

  /* Disable all interrupts */
  RCC->CIR = 0x00000000U;
 80043f6:	2400      	movs	r4, #0
  RCC->CFGR3 &= 0xFF00FCCCU;
 80043f8:	4010      	ands	r0, r2

#ifdef VECT_TAB_SRAM
  SCB->VTOR = SRAM_BASE | VECT_TAB_OFFSET; /* Vector Table Relocation in Internal SRAM */
#else
  SCB->VTOR = FLASH_BASE | VECT_TAB_OFFSET; /* Vector Table Relocation in Internal FLASH */
 80043fa:	f04f 6200 	mov.w	r2, #134217728	; 0x8000000
  RCC->CFGR3 &= 0xFF00FCCCU;
 80043fe:	6318      	str	r0, [r3, #48]	; 0x30
  RCC->CIR = 0x00000000U;
 8004400:	609c      	str	r4, [r3, #8]
  SCB->VTOR = FLASH_BASE | VECT_TAB_OFFSET; /* Vector Table Relocation in Internal FLASH */
 8004402:	608a      	str	r2, [r1, #8]
#endif
}
 8004404:	f85d 4b04 	ldr.w	r4, [sp], #4
 8004408:	4770      	bx	lr
 800440a:	bf00      	nop
 800440c:	e000ed00 	.word	0xe000ed00
 8004410:	40021000 	.word	0x40021000
 8004414:	f87fc00c 	.word	0xf87fc00c
 8004418:	ff00fccc 	.word	0xff00fccc

0800441c <uart_comms>:



void uart_comms(){
	//HAL_UART_Receive_IT(&huart1, (uint8_t*)&rx_buffer, 1);
	rx_flag = 0;
 800441c:	2200      	movs	r2, #0
 800441e:	4b97      	ldr	r3, [pc, #604]	; (800467c <uart_comms+0x260>)
 8004420:	701a      	strb	r2, [r3, #0]
	uart_command[uart_counter] = rx_buffer;
 8004422:	4b97      	ldr	r3, [pc, #604]	; (8004680 <uart_comms+0x264>)
 8004424:	4a97      	ldr	r2, [pc, #604]	; (8004684 <uart_comms+0x268>)
 8004426:	7812      	ldrb	r2, [r2, #0]
 8004428:	6819      	ldr	r1, [r3, #0]
 800442a:	4897      	ldr	r0, [pc, #604]	; (8004688 <uart_comms+0x26c>)
 800442c:	7800      	ldrb	r0, [r0, #0]
 800442e:	5488      	strb	r0, [r1, r2]
	if(uart_command[0] == '$'){
 8004430:	681b      	ldr	r3, [r3, #0]
 8004432:	781a      	ldrb	r2, [r3, #0]
 8004434:	2a24      	cmp	r2, #36	; 0x24
 8004436:	d00b      	beq.n	8004450 <uart_comms+0x34>

		uart_counter += 1;
	}

	if(uart_command[0] == '$' && uart_command[uart_counter-1] == '\n' && uart_command[uart_counter - 2] == '\r' && uart_counter > 2){
 8004438:	781a      	ldrb	r2, [r3, #0]
 800443a:	2a24      	cmp	r2, #36	; 0x24
 800443c:	d00d      	beq.n	800445a <uart_comms+0x3e>
		}
		memset(uart_command,0x00, 60);

		uart_counter = 0;
	}
	else if(uart_counter > 59 ){
 800443e:	4b91      	ldr	r3, [pc, #580]	; (8004684 <uart_comms+0x268>)
 8004440:	781b      	ldrb	r3, [r3, #0]
 8004442:	2b3b      	cmp	r3, #59	; 0x3b
 8004444:	f240 8343 	bls.w	8004ace <uart_comms+0x6b2>
		uart_counter = 0;
 8004448:	2200      	movs	r2, #0
 800444a:	4b8e      	ldr	r3, [pc, #568]	; (8004684 <uart_comms+0x268>)
 800444c:	701a      	strb	r2, [r3, #0]
	}
}
 800444e:	4770      	bx	lr
		uart_counter += 1;
 8004450:	498c      	ldr	r1, [pc, #560]	; (8004684 <uart_comms+0x268>)
 8004452:	780a      	ldrb	r2, [r1, #0]
 8004454:	3201      	adds	r2, #1
 8004456:	700a      	strb	r2, [r1, #0]
 8004458:	e7ee      	b.n	8004438 <uart_comms+0x1c>
	if(uart_command[0] == '$' && uart_command[uart_counter-1] == '\n' && uart_command[uart_counter - 2] == '\r' && uart_counter > 2){
 800445a:	4a8a      	ldr	r2, [pc, #552]	; (8004684 <uart_comms+0x268>)
 800445c:	7812      	ldrb	r2, [r2, #0]
 800445e:	1899      	adds	r1, r3, r2
 8004460:	f811 1c01 	ldrb.w	r1, [r1, #-1]
 8004464:	290a      	cmp	r1, #10
 8004466:	d1ea      	bne.n	800443e <uart_comms+0x22>
 8004468:	4413      	add	r3, r2
 800446a:	f813 3c02 	ldrb.w	r3, [r3, #-2]
 800446e:	2b0d      	cmp	r3, #13
 8004470:	d1e5      	bne.n	800443e <uart_comms+0x22>
 8004472:	2a02      	cmp	r2, #2
 8004474:	d9e3      	bls.n	800443e <uart_comms+0x22>
void uart_comms(){
 8004476:	e92d 41f0 	stmdb	sp!, {r4, r5, r6, r7, r8, lr}
		memset(return_value,0x00, 50);
 800447a:	2232      	movs	r2, #50	; 0x32
 800447c:	2100      	movs	r1, #0
 800447e:	4b83      	ldr	r3, [pc, #524]	; (800468c <uart_comms+0x270>)
 8004480:	6818      	ldr	r0, [r3, #0]
 8004482:	f000 fba6 	bl	8004bd2 <memset>
		uart_command_copy = uart_command;
 8004486:	4b7e      	ldr	r3, [pc, #504]	; (8004680 <uart_comms+0x264>)
 8004488:	681a      	ldr	r2, [r3, #0]
 800448a:	4b81      	ldr	r3, [pc, #516]	; (8004690 <uart_comms+0x274>)
 800448c:	601a      	str	r2, [r3, #0]
		switch(uart_command[1]){
 800448e:	7853      	ldrb	r3, [r2, #1]
 8004490:	3b41      	subs	r3, #65	; 0x41
 8004492:	2b0a      	cmp	r3, #10
 8004494:	d828      	bhi.n	80044e8 <uart_comms+0xcc>
 8004496:	e8df f013 	tbh	[pc, r3, lsl #1]
 800449a:	000b      	.short	0x000b
 800449c:	005c0032 	.word	0x005c0032
 80044a0:	00aa007c 	.word	0x00aa007c
 80044a4:	011f00cb 	.word	0x011f00cb
 80044a8:	0146013f 	.word	0x0146013f
 80044ac:	0263014d 	.word	0x0263014d
			memcpy(studentnumber, uart_command, 2 );
 80044b0:	4b78      	ldr	r3, [pc, #480]	; (8004694 <uart_comms+0x278>)
 80044b2:	6819      	ldr	r1, [r3, #0]
 80044b4:	8812      	ldrh	r2, [r2, #0]
 80044b6:	800a      	strh	r2, [r1, #0]
			memcpy(studentnumber+2,comma,1);
 80044b8:	681a      	ldr	r2, [r3, #0]
 80044ba:	4977      	ldr	r1, [pc, #476]	; (8004698 <uart_comms+0x27c>)
 80044bc:	7809      	ldrb	r1, [r1, #0]
 80044be:	7091      	strb	r1, [r2, #2]
			memcpy(studentnumber+3 ,studentnumber1,8 );
 80044c0:	681a      	ldr	r2, [r3, #0]
 80044c2:	4976      	ldr	r1, [pc, #472]	; (800469c <uart_comms+0x280>)
 80044c4:	6808      	ldr	r0, [r1, #0]
 80044c6:	6849      	ldr	r1, [r1, #4]
 80044c8:	f8c2 0003 	str.w	r0, [r2, #3]
 80044cc:	f8c2 1007 	str.w	r1, [r2, #7]
			memcpy(studentnumber+11,endSimbol,sizeof(endSimbol));
 80044d0:	6819      	ldr	r1, [r3, #0]
 80044d2:	4b73      	ldr	r3, [pc, #460]	; (80046a0 <uart_comms+0x284>)
 80044d4:	681a      	ldr	r2, [r3, #0]
 80044d6:	685b      	ldr	r3, [r3, #4]
 80044d8:	f8c1 200b 	str.w	r2, [r1, #11]
 80044dc:	f8c1 300f 	str.w	r3, [r1, #15]
			HAL_UART_Transmit_IT(&huart1, ((uint8_t*)studentnumber), 13);
 80044e0:	220d      	movs	r2, #13
 80044e2:	4870      	ldr	r0, [pc, #448]	; (80046a4 <uart_comms+0x288>)
 80044e4:	f7fe fc50 	bl	8002d88 <HAL_UART_Transmit_IT>
		memset(uart_command,0x00, 60);
 80044e8:	223c      	movs	r2, #60	; 0x3c
 80044ea:	2100      	movs	r1, #0
 80044ec:	4b64      	ldr	r3, [pc, #400]	; (8004680 <uart_comms+0x264>)
 80044ee:	6818      	ldr	r0, [r3, #0]
 80044f0:	f000 fb6f 	bl	8004bd2 <memset>
		uart_counter = 0;
 80044f4:	2200      	movs	r2, #0
 80044f6:	4b63      	ldr	r3, [pc, #396]	; (8004684 <uart_comms+0x268>)
 80044f8:	701a      	strb	r2, [r3, #0]
 80044fa:	e8bd 81f0 	ldmia.w	sp!, {r4, r5, r6, r7, r8, pc}
			memcpy(return_value, uart_command, 2);
 80044fe:	4b63      	ldr	r3, [pc, #396]	; (800468c <uart_comms+0x270>)
 8004500:	6819      	ldr	r1, [r3, #0]
 8004502:	8812      	ldrh	r2, [r2, #0]
 8004504:	800a      	strh	r2, [r1, #0]
			memcpy(return_value+2, endSimbol,2 );
 8004506:	681a      	ldr	r2, [r3, #0]
 8004508:	4965      	ldr	r1, [pc, #404]	; (80046a0 <uart_comms+0x284>)
 800450a:	8809      	ldrh	r1, [r1, #0]
 800450c:	8051      	strh	r1, [r2, #2]
			HAL_UART_Transmit_IT(&huart1, return_value,  strlen((char*)return_value));
 800450e:	681c      	ldr	r4, [r3, #0]
 8004510:	4620      	mov	r0, r4
 8004512:	f7fb fe5d 	bl	80001d0 <strlen>
 8004516:	b282      	uxth	r2, r0
 8004518:	4621      	mov	r1, r4
 800451a:	4862      	ldr	r0, [pc, #392]	; (80046a4 <uart_comms+0x288>)
 800451c:	f7fe fc34 	bl	8002d88 <HAL_UART_Transmit_IT>
			if(uart_command[3]=='1'){
 8004520:	4b57      	ldr	r3, [pc, #348]	; (8004680 <uart_comms+0x264>)
 8004522:	681b      	ldr	r3, [r3, #0]
 8004524:	78db      	ldrb	r3, [r3, #3]
 8004526:	2b31      	cmp	r3, #49	; 0x31
 8004528:	d00a      	beq.n	8004540 <uart_comms+0x124>
			else if(uart_command[3] == '0'){
 800452a:	2b30      	cmp	r3, #48	; 0x30
 800452c:	d1dc      	bne.n	80044e8 <uart_comms+0xcc>
				valve_state=valve_CLOSE;
 800452e:	4a5e      	ldr	r2, [pc, #376]	; (80046a8 <uart_comms+0x28c>)
 8004530:	4b5e      	ldr	r3, [pc, #376]	; (80046ac <uart_comms+0x290>)
 8004532:	601a      	str	r2, [r3, #0]
				HAL_GPIO_WritePin(GPIOC,GPIO_PIN_1,GPIO_PIN_RESET);		// Valve
 8004534:	2200      	movs	r2, #0
 8004536:	2102      	movs	r1, #2
 8004538:	485d      	ldr	r0, [pc, #372]	; (80046b0 <uart_comms+0x294>)
 800453a:	f7fd fc8b 	bl	8001e54 <HAL_GPIO_WritePin>
 800453e:	e7d3      	b.n	80044e8 <uart_comms+0xcc>
				valve_state = valve_OPEN;
 8004540:	4a5c      	ldr	r2, [pc, #368]	; (80046b4 <uart_comms+0x298>)
 8004542:	4b5a      	ldr	r3, [pc, #360]	; (80046ac <uart_comms+0x290>)
 8004544:	601a      	str	r2, [r3, #0]
				HAL_GPIO_WritePin(GPIOC,GPIO_PIN_1,GPIO_PIN_SET);		// Valve
 8004546:	2201      	movs	r2, #1
 8004548:	2102      	movs	r1, #2
 800454a:	4859      	ldr	r0, [pc, #356]	; (80046b0 <uart_comms+0x294>)
 800454c:	f7fd fc82 	bl	8001e54 <HAL_GPIO_WritePin>
 8004550:	e7ca      	b.n	80044e8 <uart_comms+0xcc>
			memcpy(return_value, uart_command, 2);
 8004552:	4b4e      	ldr	r3, [pc, #312]	; (800468c <uart_comms+0x270>)
 8004554:	6819      	ldr	r1, [r3, #0]
 8004556:	8812      	ldrh	r2, [r2, #0]
 8004558:	800a      	strh	r2, [r1, #0]
			memcpy(return_value+2, endSimbol,2 );
 800455a:	681a      	ldr	r2, [r3, #0]
 800455c:	4950      	ldr	r1, [pc, #320]	; (80046a0 <uart_comms+0x284>)
 800455e:	8809      	ldrh	r1, [r1, #0]
 8004560:	8051      	strh	r1, [r2, #2]
			HAL_UART_Transmit_IT(&huart1, return_value, strlen((char*)return_value));
 8004562:	681c      	ldr	r4, [r3, #0]
 8004564:	4620      	mov	r0, r4
 8004566:	f7fb fe33 	bl	80001d0 <strlen>
 800456a:	b282      	uxth	r2, r0
 800456c:	4621      	mov	r1, r4
 800456e:	484d      	ldr	r0, [pc, #308]	; (80046a4 <uart_comms+0x288>)
 8004570:	f7fe fc0a 	bl	8002d88 <HAL_UART_Transmit_IT>
			if(uart_command[3]=='0'){
 8004574:	4b42      	ldr	r3, [pc, #264]	; (8004680 <uart_comms+0x264>)
 8004576:	681b      	ldr	r3, [r3, #0]
 8004578:	78db      	ldrb	r3, [r3, #3]
 800457a:	2b30      	cmp	r3, #48	; 0x30
 800457c:	d005      	beq.n	800458a <uart_comms+0x16e>
			else if(uart_command[3] == '1'){
 800457e:	2b31      	cmp	r3, #49	; 0x31
 8004580:	d1b2      	bne.n	80044e8 <uart_comms+0xcc>
				auto_heating = 1;
 8004582:	2201      	movs	r2, #1
 8004584:	4b4c      	ldr	r3, [pc, #304]	; (80046b8 <uart_comms+0x29c>)
 8004586:	701a      	strb	r2, [r3, #0]
 8004588:	e7ae      	b.n	80044e8 <uart_comms+0xcc>
				auto_heating = 0;
 800458a:	2200      	movs	r2, #0
 800458c:	4b4a      	ldr	r3, [pc, #296]	; (80046b8 <uart_comms+0x29c>)
 800458e:	701a      	strb	r2, [r3, #0]
 8004590:	e7aa      	b.n	80044e8 <uart_comms+0xcc>
			memcpy(return_value, uart_command, 2);
 8004592:	4b3e      	ldr	r3, [pc, #248]	; (800468c <uart_comms+0x270>)
 8004594:	6819      	ldr	r1, [r3, #0]
 8004596:	8812      	ldrh	r2, [r2, #0]
 8004598:	800a      	strh	r2, [r1, #0]
			memcpy(return_value+2, endSimbol,2 );
 800459a:	681a      	ldr	r2, [r3, #0]
 800459c:	4940      	ldr	r1, [pc, #256]	; (80046a0 <uart_comms+0x284>)
 800459e:	8809      	ldrh	r1, [r1, #0]
 80045a0:	8051      	strh	r1, [r2, #2]
			HAL_UART_Transmit_IT(&huart1, return_value,  strlen((char*)return_value));
 80045a2:	681c      	ldr	r4, [r3, #0]
 80045a4:	4620      	mov	r0, r4
 80045a6:	f7fb fe13 	bl	80001d0 <strlen>
 80045aa:	b282      	uxth	r2, r0
 80045ac:	4621      	mov	r1, r4
 80045ae:	483d      	ldr	r0, [pc, #244]	; (80046a4 <uart_comms+0x288>)
 80045b0:	f7fe fbea 	bl	8002d88 <HAL_UART_Transmit_IT>
			if(auto_heating == 0){	// if auto heating off
 80045b4:	4b40      	ldr	r3, [pc, #256]	; (80046b8 <uart_comms+0x29c>)
 80045b6:	781b      	ldrb	r3, [r3, #0]
 80045b8:	2b00      	cmp	r3, #0
 80045ba:	d195      	bne.n	80044e8 <uart_comms+0xcc>
				if(uart_command[3]=='0'){
 80045bc:	4b30      	ldr	r3, [pc, #192]	; (8004680 <uart_comms+0x264>)
 80045be:	681b      	ldr	r3, [r3, #0]
 80045c0:	78db      	ldrb	r3, [r3, #3]
 80045c2:	2b30      	cmp	r3, #48	; 0x30
 80045c4:	d00a      	beq.n	80045dc <uart_comms+0x1c0>
				else if(uart_command[3] == '1'){
 80045c6:	2b31      	cmp	r3, #49	; 0x31
 80045c8:	d18e      	bne.n	80044e8 <uart_comms+0xcc>
					heater_state = heater_ON;
 80045ca:	4a3c      	ldr	r2, [pc, #240]	; (80046bc <uart_comms+0x2a0>)
 80045cc:	4b3c      	ldr	r3, [pc, #240]	; (80046c0 <uart_comms+0x2a4>)
 80045ce:	601a      	str	r2, [r3, #0]
					HAL_GPIO_WritePin(GPIOC,GPIO_PIN_0,GPIO_PIN_SET);	// Heater
 80045d0:	2201      	movs	r2, #1
 80045d2:	4611      	mov	r1, r2
 80045d4:	4836      	ldr	r0, [pc, #216]	; (80046b0 <uart_comms+0x294>)
 80045d6:	f7fd fc3d 	bl	8001e54 <HAL_GPIO_WritePin>
 80045da:	e785      	b.n	80044e8 <uart_comms+0xcc>
					heater_state = heater_OFF;
 80045dc:	4a39      	ldr	r2, [pc, #228]	; (80046c4 <uart_comms+0x2a8>)
 80045de:	4b38      	ldr	r3, [pc, #224]	; (80046c0 <uart_comms+0x2a4>)
 80045e0:	601a      	str	r2, [r3, #0]
					HAL_GPIO_WritePin(GPIOC,GPIO_PIN_0,GPIO_PIN_RESET);	// Heater
 80045e2:	2200      	movs	r2, #0
 80045e4:	2101      	movs	r1, #1
 80045e6:	4832      	ldr	r0, [pc, #200]	; (80046b0 <uart_comms+0x294>)
 80045e8:	f7fd fc34 	bl	8001e54 <HAL_GPIO_WritePin>
 80045ec:	e77c      	b.n	80044e8 <uart_comms+0xcc>
			memcpy(return_value, uart_command, 2);
 80045ee:	4b27      	ldr	r3, [pc, #156]	; (800468c <uart_comms+0x270>)
 80045f0:	6819      	ldr	r1, [r3, #0]
 80045f2:	8812      	ldrh	r2, [r2, #0]
 80045f4:	800a      	strh	r2, [r1, #0]
			memcpy(return_value+2, endSimbol,2 );
 80045f6:	681a      	ldr	r2, [r3, #0]
 80045f8:	4929      	ldr	r1, [pc, #164]	; (80046a0 <uart_comms+0x284>)
 80045fa:	8809      	ldrh	r1, [r1, #0]
 80045fc:	8051      	strh	r1, [r2, #2]
			HAL_UART_Transmit_IT(&huart1, return_value, strlen((char*)return_value));
 80045fe:	681c      	ldr	r4, [r3, #0]
 8004600:	4620      	mov	r0, r4
 8004602:	f7fb fde5 	bl	80001d0 <strlen>
 8004606:	b282      	uxth	r2, r0
 8004608:	4621      	mov	r1, r4
 800460a:	4826      	ldr	r0, [pc, #152]	; (80046a4 <uart_comms+0x288>)
 800460c:	f7fe fbbc 	bl	8002d88 <HAL_UART_Transmit_IT>
			if(uart_command[2]=='0'){ // logging disable
 8004610:	4b1b      	ldr	r3, [pc, #108]	; (8004680 <uart_comms+0x264>)
 8004612:	681b      	ldr	r3, [r3, #0]
 8004614:	789b      	ldrb	r3, [r3, #2]
 8004616:	2b30      	cmp	r3, #48	; 0x30
 8004618:	d006      	beq.n	8004628 <uart_comms+0x20c>
			else if(uart_command[2] == '1'){ // logging enable
 800461a:	2b31      	cmp	r3, #49	; 0x31
 800461c:	f47f af64 	bne.w	80044e8 <uart_comms+0xcc>
				enableFlashLogging = 1;
 8004620:	2201      	movs	r2, #1
 8004622:	4b29      	ldr	r3, [pc, #164]	; (80046c8 <uart_comms+0x2ac>)
 8004624:	701a      	strb	r2, [r3, #0]
 8004626:	e75f      	b.n	80044e8 <uart_comms+0xcc>
				enableFlashLogging = 0;
 8004628:	2200      	movs	r2, #0
 800462a:	4b27      	ldr	r3, [pc, #156]	; (80046c8 <uart_comms+0x2ac>)
 800462c:	701a      	strb	r2, [r3, #0]
 800462e:	e75b      	b.n	80044e8 <uart_comms+0xcc>
			memcpy(return_value, uart_command,2);
 8004630:	4b16      	ldr	r3, [pc, #88]	; (800468c <uart_comms+0x270>)
 8004632:	6819      	ldr	r1, [r3, #0]
 8004634:	8812      	ldrh	r2, [r2, #0]
 8004636:	800a      	strh	r2, [r1, #0]
			memcpy(return_value+2,endSimbol, 2);
 8004638:	681a      	ldr	r2, [r3, #0]
 800463a:	4919      	ldr	r1, [pc, #100]	; (80046a0 <uart_comms+0x284>)
 800463c:	8809      	ldrh	r1, [r1, #0]
 800463e:	8051      	strh	r1, [r2, #2]
			HAL_UART_Transmit_IT(&huart1,(uint8_t*)return_value, strlen((char*)return_value));
 8004640:	681c      	ldr	r4, [r3, #0]
 8004642:	4620      	mov	r0, r4
 8004644:	f7fb fdc4 	bl	80001d0 <strlen>
 8004648:	b282      	uxth	r2, r0
 800464a:	4621      	mov	r1, r4
 800464c:	4815      	ldr	r0, [pc, #84]	; (80046a4 <uart_comms+0x288>)
 800464e:	f7fe fb9b 	bl	8002d88 <HAL_UART_Transmit_IT>
			sizeOfTemp = uart_counter - 5;
 8004652:	4b0c      	ldr	r3, [pc, #48]	; (8004684 <uart_comms+0x268>)
 8004654:	781b      	ldrb	r3, [r3, #0]
 8004656:	3b05      	subs	r3, #5
 8004658:	4a1c      	ldr	r2, [pc, #112]	; (80046cc <uart_comms+0x2b0>)
 800465a:	7013      	strb	r3, [r2, #0]
			memset(set_temp, 0x00, 4);
 800465c:	4c1c      	ldr	r4, [pc, #112]	; (80046d0 <uart_comms+0x2b4>)
 800465e:	6823      	ldr	r3, [r4, #0]
 8004660:	2100      	movs	r1, #0
 8004662:	6019      	str	r1, [r3, #0]
			memcpy(set_temp, uart_command+3, sizeOfTemp * sizeof(uint8_t) );
 8004664:	4b06      	ldr	r3, [pc, #24]	; (8004680 <uart_comms+0x264>)
 8004666:	6819      	ldr	r1, [r3, #0]
 8004668:	7812      	ldrb	r2, [r2, #0]
 800466a:	3103      	adds	r1, #3
 800466c:	6820      	ldr	r0, [r4, #0]
 800466e:	f000 faa5 	bl	8004bbc <memcpy>
			segment_val =set_temp;
 8004672:	6822      	ldr	r2, [r4, #0]
 8004674:	4b17      	ldr	r3, [pc, #92]	; (80046d4 <uart_comms+0x2b8>)
 8004676:	601a      	str	r2, [r3, #0]
			break;
 8004678:	e736      	b.n	80044e8 <uart_comms+0xcc>
 800467a:	bf00      	nop
 800467c:	20000114 	.word	0x20000114
 8004680:	20000128 	.word	0x20000128
 8004684:	20000130 	.word	0x20000130
 8004688:	20000320 	.word	0x20000320
 800468c:	20000110 	.word	0x20000110
 8004690:	2000012c 	.word	0x2000012c
 8004694:	2000031c 	.word	0x2000031c
 8004698:	20000004 	.word	0x20000004
 800469c:	20000018 	.word	0x20000018
 80046a0:	20000008 	.word	0x20000008
 80046a4:	200001f0 	.word	0x200001f0
 80046a8:	20000024 	.word	0x20000024
 80046ac:	20000134 	.word	0x20000134
 80046b0:	48000800 	.word	0x48000800
 80046b4:	2000002c 	.word	0x2000002c
 80046b8:	200000e0 	.word	0x200000e0
 80046bc:	20000014 	.word	0x20000014
 80046c0:	20000100 	.word	0x20000100
 80046c4:	20000010 	.word	0x20000010
 80046c8:	200000ec 	.word	0x200000ec
 80046cc:	20000120 	.word	0x20000120
 80046d0:	2000011c 	.word	0x2000011c
 80046d4:	20000118 	.word	0x20000118
			memcpy(return_value, uart_command, 2);
 80046d8:	4c90      	ldr	r4, [pc, #576]	; (800491c <uart_comms+0x500>)
 80046da:	6823      	ldr	r3, [r4, #0]
 80046dc:	8812      	ldrh	r2, [r2, #0]
 80046de:	801a      	strh	r2, [r3, #0]
			memcpy(return_value+2, comma, 1);
 80046e0:	6823      	ldr	r3, [r4, #0]
 80046e2:	4a8f      	ldr	r2, [pc, #572]	; (8004920 <uart_comms+0x504>)
 80046e4:	7812      	ldrb	r2, [r2, #0]
 80046e6:	709a      	strb	r2, [r3, #2]
			memcpy(return_value+3, set_temp, sizeOfTemp * sizeof(uint8_t));
 80046e8:	6820      	ldr	r0, [r4, #0]
 80046ea:	4b8e      	ldr	r3, [pc, #568]	; (8004924 <uart_comms+0x508>)
 80046ec:	781d      	ldrb	r5, [r3, #0]
 80046ee:	462a      	mov	r2, r5
 80046f0:	4b8d      	ldr	r3, [pc, #564]	; (8004928 <uart_comms+0x50c>)
 80046f2:	6819      	ldr	r1, [r3, #0]
 80046f4:	3003      	adds	r0, #3
 80046f6:	f000 fa61 	bl	8004bbc <memcpy>
			memcpy(return_value+3+sizeOfTemp * sizeof(uint8_t),endSimbol, 2);
 80046fa:	6823      	ldr	r3, [r4, #0]
 80046fc:	3503      	adds	r5, #3
 80046fe:	4a8b      	ldr	r2, [pc, #556]	; (800492c <uart_comms+0x510>)
 8004700:	8812      	ldrh	r2, [r2, #0]
 8004702:	535a      	strh	r2, [r3, r5]
			HAL_UART_Transmit_IT(&huart1,(uint8_t*)return_value, strlen((char*)return_value));
 8004704:	6824      	ldr	r4, [r4, #0]
 8004706:	4620      	mov	r0, r4
 8004708:	f7fb fd62 	bl	80001d0 <strlen>
 800470c:	b282      	uxth	r2, r0
 800470e:	4621      	mov	r1, r4
 8004710:	4887      	ldr	r0, [pc, #540]	; (8004930 <uart_comms+0x514>)
 8004712:	f7fe fb39 	bl	8002d88 <HAL_UART_Transmit_IT>
			break;
 8004716:	e6e7      	b.n	80044e8 <uart_comms+0xcc>
			HAL_UART_Transmit_IT(&huart1,return_value, sizeof(return_value)+1);
 8004718:	2205      	movs	r2, #5
 800471a:	4b80      	ldr	r3, [pc, #512]	; (800491c <uart_comms+0x500>)
 800471c:	6819      	ldr	r1, [r3, #0]
 800471e:	4884      	ldr	r0, [pc, #528]	; (8004930 <uart_comms+0x514>)
 8004720:	f7fe fb32 	bl	8002d88 <HAL_UART_Transmit_IT>
			break;
 8004724:	e6e0      	b.n	80044e8 <uart_comms+0xcc>
			HAL_UART_Transmit_IT(&huart1,(uint8_t*)time, sizeof(time));
 8004726:	2204      	movs	r2, #4
 8004728:	4b82      	ldr	r3, [pc, #520]	; (8004934 <uart_comms+0x518>)
 800472a:	6819      	ldr	r1, [r3, #0]
 800472c:	4880      	ldr	r0, [pc, #512]	; (8004930 <uart_comms+0x514>)
 800472e:	f7fe fb2b 	bl	8002d88 <HAL_UART_Transmit_IT>
			break;
 8004732:	e6d9      	b.n	80044e8 <uart_comms+0xcc>
			if(auto_heating == 1){
 8004734:	4b80      	ldr	r3, [pc, #512]	; (8004938 <uart_comms+0x51c>)
 8004736:	781b      	ldrb	r3, [r3, #0]
 8004738:	2b01      	cmp	r3, #1
 800473a:	f47f aed5 	bne.w	80044e8 <uart_comms+0xcc>
				memcpy(return_value, uart_command, 2);
 800473e:	4b77      	ldr	r3, [pc, #476]	; (800491c <uart_comms+0x500>)
 8004740:	6819      	ldr	r1, [r3, #0]
 8004742:	8812      	ldrh	r2, [r2, #0]
 8004744:	800a      	strh	r2, [r1, #0]
				memcpy(return_value+2, endSimbol,2 );
 8004746:	681a      	ldr	r2, [r3, #0]
 8004748:	4978      	ldr	r1, [pc, #480]	; (800492c <uart_comms+0x510>)
 800474a:	8809      	ldrh	r1, [r1, #0]
 800474c:	8051      	strh	r1, [r2, #2]
				HAL_UART_Transmit_IT(&huart1,return_value, strlen((char*)return_value));
 800474e:	681c      	ldr	r4, [r3, #0]
 8004750:	4620      	mov	r0, r4
 8004752:	f7fb fd3d 	bl	80001d0 <strlen>
 8004756:	b282      	uxth	r2, r0
 8004758:	4621      	mov	r1, r4
 800475a:	4875      	ldr	r0, [pc, #468]	; (8004930 <uart_comms+0x514>)
 800475c:	f7fe fb14 	bl	8002d88 <HAL_UART_Transmit_IT>
				if(uart_command[3] == '1'){ // first heating schedule
 8004760:	4b76      	ldr	r3, [pc, #472]	; (800493c <uart_comms+0x520>)
 8004762:	681b      	ldr	r3, [r3, #0]
 8004764:	78db      	ldrb	r3, [r3, #3]
 8004766:	2b31      	cmp	r3, #49	; 0x31
 8004768:	d04e      	beq.n	8004808 <uart_comms+0x3ec>
				else if(uart_command[3] == '2'){
 800476a:	2b32      	cmp	r3, #50	; 0x32
 800476c:	f000 8093 	beq.w	8004896 <uart_comms+0x47a>
				else if(uart_command[3] == '3'){
 8004770:	2b33      	cmp	r3, #51	; 0x33
 8004772:	f47f aeb9 	bne.w	80044e8 <uart_comms+0xcc>
					memcpy(heat_schedule3, heating_info, strlen((char*)heating_info) );
 8004776:	f8df 81dc 	ldr.w	r8, [pc, #476]	; 8004954 <uart_comms+0x538>
 800477a:	f8d8 5000 	ldr.w	r5, [r8]
 800477e:	4628      	mov	r0, r5
 8004780:	f7fb fd26 	bl	80001d0 <strlen>
 8004784:	4c6e      	ldr	r4, [pc, #440]	; (8004940 <uart_comms+0x524>)
 8004786:	4602      	mov	r2, r0
 8004788:	4629      	mov	r1, r5
 800478a:	6820      	ldr	r0, [r4, #0]
 800478c:	f000 fa16 	bl	8004bbc <memcpy>
					memcpy(heat_schedule3+strlen((char*)heat_schedule3),comma,1 );
 8004790:	6825      	ldr	r5, [r4, #0]
 8004792:	4628      	mov	r0, r5
 8004794:	f7fb fd1c 	bl	80001d0 <strlen>
 8004798:	4e61      	ldr	r6, [pc, #388]	; (8004920 <uart_comms+0x504>)
 800479a:	7833      	ldrb	r3, [r6, #0]
 800479c:	542b      	strb	r3, [r5, r0]
					heating_info = (strtok(NULL, ","));
 800479e:	4969      	ldr	r1, [pc, #420]	; (8004944 <uart_comms+0x528>)
 80047a0:	2000      	movs	r0, #0
 80047a2:	f000 fb0d 	bl	8004dc0 <strtok>
 80047a6:	4607      	mov	r7, r0
 80047a8:	f8c8 0000 	str.w	r0, [r8]
					memcpy(heat_schedule3+strlen((char*)heat_schedule3), heating_info, strlen((char*)heating_info) );
 80047ac:	6825      	ldr	r5, [r4, #0]
 80047ae:	4628      	mov	r0, r5
 80047b0:	f7fb fd0e 	bl	80001d0 <strlen>
 80047b4:	4405      	add	r5, r0
 80047b6:	4638      	mov	r0, r7
 80047b8:	f7fb fd0a 	bl	80001d0 <strlen>
 80047bc:	4602      	mov	r2, r0
 80047be:	4639      	mov	r1, r7
 80047c0:	4628      	mov	r0, r5
 80047c2:	f000 f9fb 	bl	8004bbc <memcpy>
					memcpy(heat_schedule3+strlen((char*)heat_schedule3),comma,1 );
 80047c6:	6825      	ldr	r5, [r4, #0]
 80047c8:	4628      	mov	r0, r5
 80047ca:	f7fb fd01 	bl	80001d0 <strlen>
 80047ce:	7833      	ldrb	r3, [r6, #0]
 80047d0:	542b      	strb	r3, [r5, r0]
					heating_info = (strtok(NULL, ",\r\n"));
 80047d2:	495d      	ldr	r1, [pc, #372]	; (8004948 <uart_comms+0x52c>)
 80047d4:	2000      	movs	r0, #0
 80047d6:	f000 faf3 	bl	8004dc0 <strtok>
 80047da:	4607      	mov	r7, r0
 80047dc:	f8c8 0000 	str.w	r0, [r8]
					memcpy(heat_schedule3+strlen((char*)heat_schedule3), heating_info, strlen((char*)heating_info) );
 80047e0:	6825      	ldr	r5, [r4, #0]
 80047e2:	4628      	mov	r0, r5
 80047e4:	f7fb fcf4 	bl	80001d0 <strlen>
 80047e8:	4405      	add	r5, r0
 80047ea:	4638      	mov	r0, r7
 80047ec:	f7fb fcf0 	bl	80001d0 <strlen>
 80047f0:	4602      	mov	r2, r0
 80047f2:	4639      	mov	r1, r7
 80047f4:	4628      	mov	r0, r5
 80047f6:	f000 f9e1 	bl	8004bbc <memcpy>
					memcpy(heat_schedule3+strlen((char*)heat_schedule3),comma,1 );
 80047fa:	6824      	ldr	r4, [r4, #0]
 80047fc:	4620      	mov	r0, r4
 80047fe:	f7fb fce7 	bl	80001d0 <strlen>
 8004802:	7833      	ldrb	r3, [r6, #0]
 8004804:	5423      	strb	r3, [r4, r0]
 8004806:	e66f      	b.n	80044e8 <uart_comms+0xcc>
					heating_info = strtok((char*)uart_command_copy, "$J,1");
 8004808:	4950      	ldr	r1, [pc, #320]	; (800494c <uart_comms+0x530>)
 800480a:	4b51      	ldr	r3, [pc, #324]	; (8004950 <uart_comms+0x534>)
 800480c:	6818      	ldr	r0, [r3, #0]
 800480e:	f000 fad7 	bl	8004dc0 <strtok>
 8004812:	4605      	mov	r5, r0
 8004814:	4e4f      	ldr	r6, [pc, #316]	; (8004954 <uart_comms+0x538>)
 8004816:	6030      	str	r0, [r6, #0]
					memcpy(heat_schedule1, heating_info, strlen((char*)heating_info) );
 8004818:	f7fb fcda 	bl	80001d0 <strlen>
 800481c:	4c4e      	ldr	r4, [pc, #312]	; (8004958 <uart_comms+0x53c>)
 800481e:	4602      	mov	r2, r0
 8004820:	4629      	mov	r1, r5
 8004822:	6820      	ldr	r0, [r4, #0]
 8004824:	f000 f9ca 	bl	8004bbc <memcpy>
					memcpy(heat_schedule1+strlen((char*)heat_schedule1),comma,1 );
 8004828:	6825      	ldr	r5, [r4, #0]
 800482a:	4628      	mov	r0, r5
 800482c:	f7fb fcd0 	bl	80001d0 <strlen>
 8004830:	f8df 80ec 	ldr.w	r8, [pc, #236]	; 8004920 <uart_comms+0x504>
 8004834:	f898 3000 	ldrb.w	r3, [r8]
 8004838:	542b      	strb	r3, [r5, r0]
					heating_info = (strtok(NULL, ","));
 800483a:	4942      	ldr	r1, [pc, #264]	; (8004944 <uart_comms+0x528>)
 800483c:	2000      	movs	r0, #0
 800483e:	f000 fabf 	bl	8004dc0 <strtok>
 8004842:	4607      	mov	r7, r0
 8004844:	6030      	str	r0, [r6, #0]
					memcpy(heat_schedule1+strlen((char*)heat_schedule1), heating_info, strlen((char*)heating_info) );
 8004846:	6825      	ldr	r5, [r4, #0]
 8004848:	4628      	mov	r0, r5
 800484a:	f7fb fcc1 	bl	80001d0 <strlen>
 800484e:	4405      	add	r5, r0
 8004850:	4638      	mov	r0, r7
 8004852:	f7fb fcbd 	bl	80001d0 <strlen>
 8004856:	4602      	mov	r2, r0
 8004858:	4639      	mov	r1, r7
 800485a:	4628      	mov	r0, r5
 800485c:	f000 f9ae 	bl	8004bbc <memcpy>
					memcpy(heat_schedule1+strlen((char*)heat_schedule1),comma,1 );
 8004860:	6825      	ldr	r5, [r4, #0]
 8004862:	4628      	mov	r0, r5
 8004864:	f7fb fcb4 	bl	80001d0 <strlen>
 8004868:	f898 3000 	ldrb.w	r3, [r8]
 800486c:	542b      	strb	r3, [r5, r0]
					heating_info = (strtok(NULL, ",\r\n"));
 800486e:	4936      	ldr	r1, [pc, #216]	; (8004948 <uart_comms+0x52c>)
 8004870:	2000      	movs	r0, #0
 8004872:	f000 faa5 	bl	8004dc0 <strtok>
 8004876:	4605      	mov	r5, r0
 8004878:	6030      	str	r0, [r6, #0]
					memcpy(heat_schedule1+strlen((char*)heat_schedule1), heating_info, strlen((char*)heating_info) );
 800487a:	6824      	ldr	r4, [r4, #0]
 800487c:	4620      	mov	r0, r4
 800487e:	f7fb fca7 	bl	80001d0 <strlen>
 8004882:	4404      	add	r4, r0
 8004884:	4628      	mov	r0, r5
 8004886:	f7fb fca3 	bl	80001d0 <strlen>
 800488a:	4602      	mov	r2, r0
 800488c:	4629      	mov	r1, r5
 800488e:	4620      	mov	r0, r4
 8004890:	f000 f994 	bl	8004bbc <memcpy>
 8004894:	e628      	b.n	80044e8 <uart_comms+0xcc>
					memcpy(heat_schedule2, heating_info, strlen((char*)heating_info) );
 8004896:	4e2f      	ldr	r6, [pc, #188]	; (8004954 <uart_comms+0x538>)
 8004898:	6835      	ldr	r5, [r6, #0]
 800489a:	4628      	mov	r0, r5
 800489c:	f7fb fc98 	bl	80001d0 <strlen>
 80048a0:	4c2e      	ldr	r4, [pc, #184]	; (800495c <uart_comms+0x540>)
 80048a2:	4602      	mov	r2, r0
 80048a4:	4629      	mov	r1, r5
 80048a6:	6820      	ldr	r0, [r4, #0]
 80048a8:	f000 f988 	bl	8004bbc <memcpy>
					memcpy(heat_schedule2+strlen((char*)heat_schedule2),comma,1 );
 80048ac:	6825      	ldr	r5, [r4, #0]
 80048ae:	4628      	mov	r0, r5
 80048b0:	f7fb fc8e 	bl	80001d0 <strlen>
 80048b4:	f8df 8068 	ldr.w	r8, [pc, #104]	; 8004920 <uart_comms+0x504>
 80048b8:	f898 3000 	ldrb.w	r3, [r8]
 80048bc:	542b      	strb	r3, [r5, r0]
					heating_info = (strtok(NULL, ","));
 80048be:	4921      	ldr	r1, [pc, #132]	; (8004944 <uart_comms+0x528>)
 80048c0:	2000      	movs	r0, #0
 80048c2:	f000 fa7d 	bl	8004dc0 <strtok>
 80048c6:	4607      	mov	r7, r0
 80048c8:	6030      	str	r0, [r6, #0]
					memcpy(heat_schedule2+strlen((char*)heat_schedule2), heating_info, strlen((char*)heating_info) );
 80048ca:	6825      	ldr	r5, [r4, #0]
 80048cc:	4628      	mov	r0, r5
 80048ce:	f7fb fc7f 	bl	80001d0 <strlen>
 80048d2:	4405      	add	r5, r0
 80048d4:	4638      	mov	r0, r7
 80048d6:	f7fb fc7b 	bl	80001d0 <strlen>
 80048da:	4602      	mov	r2, r0
 80048dc:	4639      	mov	r1, r7
 80048de:	4628      	mov	r0, r5
 80048e0:	f000 f96c 	bl	8004bbc <memcpy>
					memcpy(heat_schedule2+strlen((char*)heat_schedule2),comma,1 );
 80048e4:	6825      	ldr	r5, [r4, #0]
 80048e6:	4628      	mov	r0, r5
 80048e8:	f7fb fc72 	bl	80001d0 <strlen>
 80048ec:	f898 3000 	ldrb.w	r3, [r8]
 80048f0:	542b      	strb	r3, [r5, r0]
					heating_info = (strtok(NULL, ",\r\n"));
 80048f2:	4915      	ldr	r1, [pc, #84]	; (8004948 <uart_comms+0x52c>)
 80048f4:	2000      	movs	r0, #0
 80048f6:	f000 fa63 	bl	8004dc0 <strtok>
 80048fa:	4605      	mov	r5, r0
 80048fc:	6030      	str	r0, [r6, #0]
					memcpy(heat_schedule2+strlen((char*)heat_schedule2), heating_info, strlen((char*)heating_info) );
 80048fe:	6824      	ldr	r4, [r4, #0]
 8004900:	4620      	mov	r0, r4
 8004902:	f7fb fc65 	bl	80001d0 <strlen>
 8004906:	4404      	add	r4, r0
 8004908:	4628      	mov	r0, r5
 800490a:	f7fb fc61 	bl	80001d0 <strlen>
 800490e:	4602      	mov	r2, r0
 8004910:	4629      	mov	r1, r5
 8004912:	4620      	mov	r0, r4
 8004914:	f000 f952 	bl	8004bbc <memcpy>
 8004918:	e5e6      	b.n	80044e8 <uart_comms+0xcc>
 800491a:	bf00      	nop
 800491c:	20000110 	.word	0x20000110
 8004920:	20000004 	.word	0x20000004
 8004924:	20000120 	.word	0x20000120
 8004928:	2000011c 	.word	0x2000011c
 800492c:	20000008 	.word	0x20000008
 8004930:	200001f0 	.word	0x200001f0
 8004934:	20000020 	.word	0x20000020
 8004938:	200000e0 	.word	0x200000e0
 800493c:	20000128 	.word	0x20000128
 8004940:	200000fc 	.word	0x200000fc
 8004944:	08005794 	.word	0x08005794
 8004948:	08005798 	.word	0x08005798
 800494c:	0800578c 	.word	0x0800578c
 8004950:	2000012c 	.word	0x2000012c
 8004954:	20000104 	.word	0x20000104
 8004958:	200000f4 	.word	0x200000f4
 800495c:	200000f8 	.word	0x200000f8
			memcpy(return_value, uart_command, 2);
 8004960:	4c5b      	ldr	r4, [pc, #364]	; (8004ad0 <uart_comms+0x6b4>)
 8004962:	6823      	ldr	r3, [r4, #0]
 8004964:	8812      	ldrh	r2, [r2, #0]
 8004966:	801a      	strh	r2, [r3, #0]
			memcpy(return_value+2,comma,1 );
 8004968:	6823      	ldr	r3, [r4, #0]
 800496a:	4d5a      	ldr	r5, [pc, #360]	; (8004ad4 <uart_comms+0x6b8>)
 800496c:	782f      	ldrb	r7, [r5, #0]
 800496e:	709f      	strb	r7, [r3, #2]
			memcpy(return_value+3,current_rms,strlen(current_rms));
 8004970:	6826      	ldr	r6, [r4, #0]
 8004972:	3603      	adds	r6, #3
 8004974:	4b58      	ldr	r3, [pc, #352]	; (8004ad8 <uart_comms+0x6bc>)
 8004976:	f8d3 8000 	ldr.w	r8, [r3]
 800497a:	4640      	mov	r0, r8
 800497c:	f7fb fc28 	bl	80001d0 <strlen>
 8004980:	4602      	mov	r2, r0
 8004982:	4641      	mov	r1, r8
 8004984:	4630      	mov	r0, r6
 8004986:	f000 f919 	bl	8004bbc <memcpy>
			memcpy(return_value+strlen((char*)return_value),comma,1 );
 800498a:	6826      	ldr	r6, [r4, #0]
 800498c:	4630      	mov	r0, r6
 800498e:	f7fb fc1f 	bl	80001d0 <strlen>
 8004992:	5437      	strb	r7, [r6, r0]
			memcpy(return_value+strlen((char*)return_value),voltage_rms,strlen(voltage_rms) );
 8004994:	6826      	ldr	r6, [r4, #0]
 8004996:	4630      	mov	r0, r6
 8004998:	f7fb fc1a 	bl	80001d0 <strlen>
 800499c:	4406      	add	r6, r0
 800499e:	4b4f      	ldr	r3, [pc, #316]	; (8004adc <uart_comms+0x6c0>)
 80049a0:	681f      	ldr	r7, [r3, #0]
 80049a2:	4638      	mov	r0, r7
 80049a4:	f7fb fc14 	bl	80001d0 <strlen>
 80049a8:	4602      	mov	r2, r0
 80049aa:	4639      	mov	r1, r7
 80049ac:	4630      	mov	r0, r6
 80049ae:	f000 f905 	bl	8004bbc <memcpy>
			memcpy(return_value+strlen((char*)return_value),comma,1 );
 80049b2:	6826      	ldr	r6, [r4, #0]
 80049b4:	4630      	mov	r0, r6
 80049b6:	f7fb fc0b 	bl	80001d0 <strlen>
 80049ba:	782b      	ldrb	r3, [r5, #0]
 80049bc:	5433      	strb	r3, [r6, r0]
			memcpy(return_value+strlen((char*)return_value),ambient_temp,strlen(ambient_temp) );
 80049be:	6826      	ldr	r6, [r4, #0]
 80049c0:	4630      	mov	r0, r6
 80049c2:	f7fb fc05 	bl	80001d0 <strlen>
 80049c6:	4406      	add	r6, r0
 80049c8:	4b45      	ldr	r3, [pc, #276]	; (8004ae0 <uart_comms+0x6c4>)
 80049ca:	681f      	ldr	r7, [r3, #0]
 80049cc:	4638      	mov	r0, r7
 80049ce:	f7fb fbff 	bl	80001d0 <strlen>
 80049d2:	4602      	mov	r2, r0
 80049d4:	4639      	mov	r1, r7
 80049d6:	4630      	mov	r0, r6
 80049d8:	f000 f8f0 	bl	8004bbc <memcpy>
			memcpy(return_value+strlen((char*)return_value),comma,1 );
 80049dc:	6826      	ldr	r6, [r4, #0]
 80049de:	4630      	mov	r0, r6
 80049e0:	f7fb fbf6 	bl	80001d0 <strlen>
 80049e4:	782b      	ldrb	r3, [r5, #0]
 80049e6:	5433      	strb	r3, [r6, r0]
			memcpy(return_value+strlen((char*)return_value),geyser_temp,strlen(geyser_temp) );
 80049e8:	6826      	ldr	r6, [r4, #0]
 80049ea:	4630      	mov	r0, r6
 80049ec:	f7fb fbf0 	bl	80001d0 <strlen>
 80049f0:	4406      	add	r6, r0
 80049f2:	4b3c      	ldr	r3, [pc, #240]	; (8004ae4 <uart_comms+0x6c8>)
 80049f4:	681f      	ldr	r7, [r3, #0]
 80049f6:	4638      	mov	r0, r7
 80049f8:	f7fb fbea 	bl	80001d0 <strlen>
 80049fc:	4602      	mov	r2, r0
 80049fe:	4639      	mov	r1, r7
 8004a00:	4630      	mov	r0, r6
 8004a02:	f000 f8db 	bl	8004bbc <memcpy>
			memcpy(return_value+strlen((char*)return_value),comma,1 );
 8004a06:	6826      	ldr	r6, [r4, #0]
 8004a08:	4630      	mov	r0, r6
 8004a0a:	f7fb fbe1 	bl	80001d0 <strlen>
 8004a0e:	782b      	ldrb	r3, [r5, #0]
 8004a10:	5433      	strb	r3, [r6, r0]
			memcpy(return_value+strlen((char*)return_value),total_water,strlen(total_water) );
 8004a12:	6826      	ldr	r6, [r4, #0]
 8004a14:	4630      	mov	r0, r6
 8004a16:	f7fb fbdb 	bl	80001d0 <strlen>
 8004a1a:	4406      	add	r6, r0
 8004a1c:	4b32      	ldr	r3, [pc, #200]	; (8004ae8 <uart_comms+0x6cc>)
 8004a1e:	681f      	ldr	r7, [r3, #0]
 8004a20:	4638      	mov	r0, r7
 8004a22:	f7fb fbd5 	bl	80001d0 <strlen>
 8004a26:	4602      	mov	r2, r0
 8004a28:	4639      	mov	r1, r7
 8004a2a:	4630      	mov	r0, r6
 8004a2c:	f000 f8c6 	bl	8004bbc <memcpy>
			memcpy(return_value+strlen((char*)return_value),comma,1 );
 8004a30:	6826      	ldr	r6, [r4, #0]
 8004a32:	4630      	mov	r0, r6
 8004a34:	f7fb fbcc 	bl	80001d0 <strlen>
 8004a38:	782b      	ldrb	r3, [r5, #0]
 8004a3a:	5433      	strb	r3, [r6, r0]
			memcpy(return_value+strlen((char*)return_value),heater_state,strlen(heater_state));
 8004a3c:	6826      	ldr	r6, [r4, #0]
 8004a3e:	4630      	mov	r0, r6
 8004a40:	f7fb fbc6 	bl	80001d0 <strlen>
 8004a44:	4406      	add	r6, r0
 8004a46:	4b29      	ldr	r3, [pc, #164]	; (8004aec <uart_comms+0x6d0>)
 8004a48:	681f      	ldr	r7, [r3, #0]
 8004a4a:	4638      	mov	r0, r7
 8004a4c:	f7fb fbc0 	bl	80001d0 <strlen>
 8004a50:	4602      	mov	r2, r0
 8004a52:	4639      	mov	r1, r7
 8004a54:	4630      	mov	r0, r6
 8004a56:	f000 f8b1 	bl	8004bbc <memcpy>
			memcpy(return_value+strlen((char*)return_value),comma,1 );
 8004a5a:	6824      	ldr	r4, [r4, #0]
 8004a5c:	4620      	mov	r0, r4
 8004a5e:	f7fb fbb7 	bl	80001d0 <strlen>
 8004a62:	782b      	ldrb	r3, [r5, #0]
 8004a64:	5423      	strb	r3, [r4, r0]
			if(valve_state == valve_OPEN){
 8004a66:	4b22      	ldr	r3, [pc, #136]	; (8004af0 <uart_comms+0x6d4>)
 8004a68:	681c      	ldr	r4, [r3, #0]
 8004a6a:	4b22      	ldr	r3, [pc, #136]	; (8004af4 <uart_comms+0x6d8>)
 8004a6c:	429c      	cmp	r4, r3
 8004a6e:	d01f      	beq.n	8004ab0 <uart_comms+0x694>
				memcpy(return_value+strlen((char*)return_value), valve_state,strlen(valve_state) );
 8004a70:	4b17      	ldr	r3, [pc, #92]	; (8004ad0 <uart_comms+0x6b4>)
 8004a72:	681d      	ldr	r5, [r3, #0]
 8004a74:	4628      	mov	r0, r5
 8004a76:	f7fb fbab 	bl	80001d0 <strlen>
 8004a7a:	4405      	add	r5, r0
 8004a7c:	4620      	mov	r0, r4
 8004a7e:	f7fb fba7 	bl	80001d0 <strlen>
 8004a82:	4602      	mov	r2, r0
 8004a84:	4621      	mov	r1, r4
 8004a86:	4628      	mov	r0, r5
 8004a88:	f000 f898 	bl	8004bbc <memcpy>
			memcpy(return_value+strlen((char*)return_value), endSimbol,2 );
 8004a8c:	4c10      	ldr	r4, [pc, #64]	; (8004ad0 <uart_comms+0x6b4>)
 8004a8e:	6825      	ldr	r5, [r4, #0]
 8004a90:	4628      	mov	r0, r5
 8004a92:	f7fb fb9d 	bl	80001d0 <strlen>
 8004a96:	4b18      	ldr	r3, [pc, #96]	; (8004af8 <uart_comms+0x6dc>)
 8004a98:	881b      	ldrh	r3, [r3, #0]
 8004a9a:	522b      	strh	r3, [r5, r0]
			HAL_UART_Transmit_IT(&huart1,(uint8_t*)return_value, strlen((char*)return_value));
 8004a9c:	6824      	ldr	r4, [r4, #0]
 8004a9e:	4620      	mov	r0, r4
 8004aa0:	f7fb fb96 	bl	80001d0 <strlen>
 8004aa4:	b282      	uxth	r2, r0
 8004aa6:	4621      	mov	r1, r4
 8004aa8:	4814      	ldr	r0, [pc, #80]	; (8004afc <uart_comms+0x6e0>)
 8004aaa:	f7fe f96d 	bl	8002d88 <HAL_UART_Transmit_IT>
			break;
 8004aae:	e51b      	b.n	80044e8 <uart_comms+0xcc>
				memcpy(return_value+strlen((char*)return_value), valve_state,strlen(valve_state) -1);
 8004ab0:	4b07      	ldr	r3, [pc, #28]	; (8004ad0 <uart_comms+0x6b4>)
 8004ab2:	681d      	ldr	r5, [r3, #0]
 8004ab4:	4628      	mov	r0, r5
 8004ab6:	f7fb fb8b 	bl	80001d0 <strlen>
 8004aba:	4405      	add	r5, r0
 8004abc:	4620      	mov	r0, r4
 8004abe:	f7fb fb87 	bl	80001d0 <strlen>
 8004ac2:	1e42      	subs	r2, r0, #1
 8004ac4:	4621      	mov	r1, r4
 8004ac6:	4628      	mov	r0, r5
 8004ac8:	f000 f878 	bl	8004bbc <memcpy>
 8004acc:	e7de      	b.n	8004a8c <uart_comms+0x670>
 8004ace:	4770      	bx	lr
 8004ad0:	20000110 	.word	0x20000110
 8004ad4:	20000004 	.word	0x20000004
 8004ad8:	200000e8 	.word	0x200000e8
 8004adc:	2000013c 	.word	0x2000013c
 8004ae0:	200000dc 	.word	0x200000dc
 8004ae4:	200000f0 	.word	0x200000f0
 8004ae8:	20000124 	.word	0x20000124
 8004aec:	20000100 	.word	0x20000100
 8004af0:	20000134 	.word	0x20000134
 8004af4:	2000002c 	.word	0x2000002c
 8004af8:	20000008 	.word	0x20000008
 8004afc:	200001f0 	.word	0x200001f0

08004b00 <Reset_Handler>:

    .section	.text.Reset_Handler
	.weak	Reset_Handler
	.type	Reset_Handler, %function
Reset_Handler:
  ldr   sp, =_estack    /* Atollic update: set stack pointer */
 8004b00:	f8df d034 	ldr.w	sp, [pc, #52]	; 8004b38 <LoopForever+0x2>

/* Copy the data segment initializers from flash to SRAM */
  movs	r1, #0
 8004b04:	2100      	movs	r1, #0
  b	LoopCopyDataInit
 8004b06:	e003      	b.n	8004b10 <LoopCopyDataInit>

08004b08 <CopyDataInit>:

CopyDataInit:
	ldr	r3, =_sidata
 8004b08:	4b0c      	ldr	r3, [pc, #48]	; (8004b3c <LoopForever+0x6>)
	ldr	r3, [r3, r1]
 8004b0a:	585b      	ldr	r3, [r3, r1]
	str	r3, [r0, r1]
 8004b0c:	5043      	str	r3, [r0, r1]
	adds	r1, r1, #4
 8004b0e:	3104      	adds	r1, #4

08004b10 <LoopCopyDataInit>:

LoopCopyDataInit:
	ldr	r0, =_sdata
 8004b10:	480b      	ldr	r0, [pc, #44]	; (8004b40 <LoopForever+0xa>)
	ldr	r3, =_edata
 8004b12:	4b0c      	ldr	r3, [pc, #48]	; (8004b44 <LoopForever+0xe>)
	adds	r2, r0, r1
 8004b14:	1842      	adds	r2, r0, r1
	cmp	r2, r3
 8004b16:	429a      	cmp	r2, r3
	bcc	CopyDataInit
 8004b18:	d3f6      	bcc.n	8004b08 <CopyDataInit>
	ldr	r2, =_sbss
 8004b1a:	4a0b      	ldr	r2, [pc, #44]	; (8004b48 <LoopForever+0x12>)
	b	LoopFillZerobss
 8004b1c:	e002      	b.n	8004b24 <LoopFillZerobss>

08004b1e <FillZerobss>:
/* Zero fill the bss segment. */
FillZerobss:
	movs	r3, #0
 8004b1e:	2300      	movs	r3, #0
	str	r3, [r2], #4
 8004b20:	f842 3b04 	str.w	r3, [r2], #4

08004b24 <LoopFillZerobss>:

LoopFillZerobss:
	ldr	r3, = _ebss
 8004b24:	4b09      	ldr	r3, [pc, #36]	; (8004b4c <LoopForever+0x16>)
	cmp	r2, r3
 8004b26:	429a      	cmp	r2, r3
	bcc	FillZerobss
 8004b28:	d3f9      	bcc.n	8004b1e <FillZerobss>

/* Call the clock system intitialization function.*/
    bl  SystemInit
 8004b2a:	f7ff fc3f 	bl	80043ac <SystemInit>
/* Call static constructors */
    bl __libc_init_array
 8004b2e:	f000 f819 	bl	8004b64 <__libc_init_array>
/* Call the application's entry point.*/
	bl	main
 8004b32:	f7ff f869 	bl	8003c08 <main>

08004b36 <LoopForever>:

LoopForever:
    b LoopForever
 8004b36:	e7fe      	b.n	8004b36 <LoopForever>
  ldr   sp, =_estack    /* Atollic update: set stack pointer */
 8004b38:	20003000 	.word	0x20003000
	ldr	r3, =_sidata
 8004b3c:	080057f0 	.word	0x080057f0
	ldr	r0, =_sdata
 8004b40:	20000000 	.word	0x20000000
	ldr	r3, =_edata
 8004b44:	20000098 	.word	0x20000098
	ldr	r2, =_sbss
 8004b48:	20000098 	.word	0x20000098
	ldr	r3, = _ebss
 8004b4c:	20000338 	.word	0x20000338

08004b50 <ADC1_2_IRQHandler>:
 * @retval : None
*/
    .section	.text.Default_Handler,"ax",%progbits
Default_Handler:
Infinite_Loop:
	b	Infinite_Loop
 8004b50:	e7fe      	b.n	8004b50 <ADC1_2_IRQHandler>
	...

08004b54 <calloc>:
 8004b54:	4b02      	ldr	r3, [pc, #8]	; (8004b60 <calloc+0xc>)
 8004b56:	460a      	mov	r2, r1
 8004b58:	4601      	mov	r1, r0
 8004b5a:	6818      	ldr	r0, [r3, #0]
 8004b5c:	f000 b841 	b.w	8004be2 <_calloc_r>
 8004b60:	20000030 	.word	0x20000030

08004b64 <__libc_init_array>:
 8004b64:	b570      	push	{r4, r5, r6, lr}
 8004b66:	4e0d      	ldr	r6, [pc, #52]	; (8004b9c <__libc_init_array+0x38>)
 8004b68:	4c0d      	ldr	r4, [pc, #52]	; (8004ba0 <__libc_init_array+0x3c>)
 8004b6a:	1ba4      	subs	r4, r4, r6
 8004b6c:	10a4      	asrs	r4, r4, #2
 8004b6e:	2500      	movs	r5, #0
 8004b70:	42a5      	cmp	r5, r4
 8004b72:	d109      	bne.n	8004b88 <__libc_init_array+0x24>
 8004b74:	4e0b      	ldr	r6, [pc, #44]	; (8004ba4 <__libc_init_array+0x40>)
 8004b76:	4c0c      	ldr	r4, [pc, #48]	; (8004ba8 <__libc_init_array+0x44>)
 8004b78:	f000 fdc6 	bl	8005708 <_init>
 8004b7c:	1ba4      	subs	r4, r4, r6
 8004b7e:	10a4      	asrs	r4, r4, #2
 8004b80:	2500      	movs	r5, #0
 8004b82:	42a5      	cmp	r5, r4
 8004b84:	d105      	bne.n	8004b92 <__libc_init_array+0x2e>
 8004b86:	bd70      	pop	{r4, r5, r6, pc}
 8004b88:	f856 3025 	ldr.w	r3, [r6, r5, lsl #2]
 8004b8c:	4798      	blx	r3
 8004b8e:	3501      	adds	r5, #1
 8004b90:	e7ee      	b.n	8004b70 <__libc_init_array+0xc>
 8004b92:	f856 3025 	ldr.w	r3, [r6, r5, lsl #2]
 8004b96:	4798      	blx	r3
 8004b98:	3501      	adds	r5, #1
 8004b9a:	e7f2      	b.n	8004b82 <__libc_init_array+0x1e>
 8004b9c:	080057e8 	.word	0x080057e8
 8004ba0:	080057e8 	.word	0x080057e8
 8004ba4:	080057e8 	.word	0x080057e8
 8004ba8:	080057ec 	.word	0x080057ec

08004bac <malloc>:
 8004bac:	4b02      	ldr	r3, [pc, #8]	; (8004bb8 <malloc+0xc>)
 8004bae:	4601      	mov	r1, r0
 8004bb0:	6818      	ldr	r0, [r3, #0]
 8004bb2:	f000 b873 	b.w	8004c9c <_malloc_r>
 8004bb6:	bf00      	nop
 8004bb8:	20000030 	.word	0x20000030

08004bbc <memcpy>:
 8004bbc:	b510      	push	{r4, lr}
 8004bbe:	1e43      	subs	r3, r0, #1
 8004bc0:	440a      	add	r2, r1
 8004bc2:	4291      	cmp	r1, r2
 8004bc4:	d100      	bne.n	8004bc8 <memcpy+0xc>
 8004bc6:	bd10      	pop	{r4, pc}
 8004bc8:	f811 4b01 	ldrb.w	r4, [r1], #1
 8004bcc:	f803 4f01 	strb.w	r4, [r3, #1]!
 8004bd0:	e7f7      	b.n	8004bc2 <memcpy+0x6>

08004bd2 <memset>:
 8004bd2:	4402      	add	r2, r0
 8004bd4:	4603      	mov	r3, r0
 8004bd6:	4293      	cmp	r3, r2
 8004bd8:	d100      	bne.n	8004bdc <memset+0xa>
 8004bda:	4770      	bx	lr
 8004bdc:	f803 1b01 	strb.w	r1, [r3], #1
 8004be0:	e7f9      	b.n	8004bd6 <memset+0x4>

08004be2 <_calloc_r>:
 8004be2:	b538      	push	{r3, r4, r5, lr}
 8004be4:	fb02 f401 	mul.w	r4, r2, r1
 8004be8:	4621      	mov	r1, r4
 8004bea:	f000 f857 	bl	8004c9c <_malloc_r>
 8004bee:	4605      	mov	r5, r0
 8004bf0:	b118      	cbz	r0, 8004bfa <_calloc_r+0x18>
 8004bf2:	4622      	mov	r2, r4
 8004bf4:	2100      	movs	r1, #0
 8004bf6:	f7ff ffec 	bl	8004bd2 <memset>
 8004bfa:	4628      	mov	r0, r5
 8004bfc:	bd38      	pop	{r3, r4, r5, pc}
	...

08004c00 <_free_r>:
 8004c00:	b538      	push	{r3, r4, r5, lr}
 8004c02:	4605      	mov	r5, r0
 8004c04:	2900      	cmp	r1, #0
 8004c06:	d045      	beq.n	8004c94 <_free_r+0x94>
 8004c08:	f851 3c04 	ldr.w	r3, [r1, #-4]
 8004c0c:	1f0c      	subs	r4, r1, #4
 8004c0e:	2b00      	cmp	r3, #0
 8004c10:	bfb8      	it	lt
 8004c12:	18e4      	addlt	r4, r4, r3
 8004c14:	f000 f927 	bl	8004e66 <__malloc_lock>
 8004c18:	4a1f      	ldr	r2, [pc, #124]	; (8004c98 <_free_r+0x98>)
 8004c1a:	6813      	ldr	r3, [r2, #0]
 8004c1c:	4610      	mov	r0, r2
 8004c1e:	b933      	cbnz	r3, 8004c2e <_free_r+0x2e>
 8004c20:	6063      	str	r3, [r4, #4]
 8004c22:	6014      	str	r4, [r2, #0]
 8004c24:	4628      	mov	r0, r5
 8004c26:	e8bd 4038 	ldmia.w	sp!, {r3, r4, r5, lr}
 8004c2a:	f000 b91d 	b.w	8004e68 <__malloc_unlock>
 8004c2e:	42a3      	cmp	r3, r4
 8004c30:	d90c      	bls.n	8004c4c <_free_r+0x4c>
 8004c32:	6821      	ldr	r1, [r4, #0]
 8004c34:	1862      	adds	r2, r4, r1
 8004c36:	4293      	cmp	r3, r2
 8004c38:	bf04      	itt	eq
 8004c3a:	681a      	ldreq	r2, [r3, #0]
 8004c3c:	685b      	ldreq	r3, [r3, #4]
 8004c3e:	6063      	str	r3, [r4, #4]
 8004c40:	bf04      	itt	eq
 8004c42:	1852      	addeq	r2, r2, r1
 8004c44:	6022      	streq	r2, [r4, #0]
 8004c46:	6004      	str	r4, [r0, #0]
 8004c48:	e7ec      	b.n	8004c24 <_free_r+0x24>
 8004c4a:	4613      	mov	r3, r2
 8004c4c:	685a      	ldr	r2, [r3, #4]
 8004c4e:	b10a      	cbz	r2, 8004c54 <_free_r+0x54>
 8004c50:	42a2      	cmp	r2, r4
 8004c52:	d9fa      	bls.n	8004c4a <_free_r+0x4a>
 8004c54:	6819      	ldr	r1, [r3, #0]
 8004c56:	1858      	adds	r0, r3, r1
 8004c58:	42a0      	cmp	r0, r4
 8004c5a:	d10b      	bne.n	8004c74 <_free_r+0x74>
 8004c5c:	6820      	ldr	r0, [r4, #0]
 8004c5e:	4401      	add	r1, r0
 8004c60:	1858      	adds	r0, r3, r1
 8004c62:	4282      	cmp	r2, r0
 8004c64:	6019      	str	r1, [r3, #0]
 8004c66:	d1dd      	bne.n	8004c24 <_free_r+0x24>
 8004c68:	6810      	ldr	r0, [r2, #0]
 8004c6a:	6852      	ldr	r2, [r2, #4]
 8004c6c:	605a      	str	r2, [r3, #4]
 8004c6e:	4401      	add	r1, r0
 8004c70:	6019      	str	r1, [r3, #0]
 8004c72:	e7d7      	b.n	8004c24 <_free_r+0x24>
 8004c74:	d902      	bls.n	8004c7c <_free_r+0x7c>
 8004c76:	230c      	movs	r3, #12
 8004c78:	602b      	str	r3, [r5, #0]
 8004c7a:	e7d3      	b.n	8004c24 <_free_r+0x24>
 8004c7c:	6820      	ldr	r0, [r4, #0]
 8004c7e:	1821      	adds	r1, r4, r0
 8004c80:	428a      	cmp	r2, r1
 8004c82:	bf04      	itt	eq
 8004c84:	6811      	ldreq	r1, [r2, #0]
 8004c86:	6852      	ldreq	r2, [r2, #4]
 8004c88:	6062      	str	r2, [r4, #4]
 8004c8a:	bf04      	itt	eq
 8004c8c:	1809      	addeq	r1, r1, r0
 8004c8e:	6021      	streq	r1, [r4, #0]
 8004c90:	605c      	str	r4, [r3, #4]
 8004c92:	e7c7      	b.n	8004c24 <_free_r+0x24>
 8004c94:	bd38      	pop	{r3, r4, r5, pc}
 8004c96:	bf00      	nop
 8004c98:	20000144 	.word	0x20000144

08004c9c <_malloc_r>:
 8004c9c:	b570      	push	{r4, r5, r6, lr}
 8004c9e:	1ccd      	adds	r5, r1, #3
 8004ca0:	f025 0503 	bic.w	r5, r5, #3
 8004ca4:	3508      	adds	r5, #8
 8004ca6:	2d0c      	cmp	r5, #12
 8004ca8:	bf38      	it	cc
 8004caa:	250c      	movcc	r5, #12
 8004cac:	2d00      	cmp	r5, #0
 8004cae:	4606      	mov	r6, r0
 8004cb0:	db01      	blt.n	8004cb6 <_malloc_r+0x1a>
 8004cb2:	42a9      	cmp	r1, r5
 8004cb4:	d903      	bls.n	8004cbe <_malloc_r+0x22>
 8004cb6:	230c      	movs	r3, #12
 8004cb8:	6033      	str	r3, [r6, #0]
 8004cba:	2000      	movs	r0, #0
 8004cbc:	bd70      	pop	{r4, r5, r6, pc}
 8004cbe:	f000 f8d2 	bl	8004e66 <__malloc_lock>
 8004cc2:	4a23      	ldr	r2, [pc, #140]	; (8004d50 <_malloc_r+0xb4>)
 8004cc4:	6814      	ldr	r4, [r2, #0]
 8004cc6:	4621      	mov	r1, r4
 8004cc8:	b991      	cbnz	r1, 8004cf0 <_malloc_r+0x54>
 8004cca:	4c22      	ldr	r4, [pc, #136]	; (8004d54 <_malloc_r+0xb8>)
 8004ccc:	6823      	ldr	r3, [r4, #0]
 8004cce:	b91b      	cbnz	r3, 8004cd8 <_malloc_r+0x3c>
 8004cd0:	4630      	mov	r0, r6
 8004cd2:	f000 f841 	bl	8004d58 <_sbrk_r>
 8004cd6:	6020      	str	r0, [r4, #0]
 8004cd8:	4629      	mov	r1, r5
 8004cda:	4630      	mov	r0, r6
 8004cdc:	f000 f83c 	bl	8004d58 <_sbrk_r>
 8004ce0:	1c43      	adds	r3, r0, #1
 8004ce2:	d126      	bne.n	8004d32 <_malloc_r+0x96>
 8004ce4:	230c      	movs	r3, #12
 8004ce6:	6033      	str	r3, [r6, #0]
 8004ce8:	4630      	mov	r0, r6
 8004cea:	f000 f8bd 	bl	8004e68 <__malloc_unlock>
 8004cee:	e7e4      	b.n	8004cba <_malloc_r+0x1e>
 8004cf0:	680b      	ldr	r3, [r1, #0]
 8004cf2:	1b5b      	subs	r3, r3, r5
 8004cf4:	d41a      	bmi.n	8004d2c <_malloc_r+0x90>
 8004cf6:	2b0b      	cmp	r3, #11
 8004cf8:	d90f      	bls.n	8004d1a <_malloc_r+0x7e>
 8004cfa:	600b      	str	r3, [r1, #0]
 8004cfc:	50cd      	str	r5, [r1, r3]
 8004cfe:	18cc      	adds	r4, r1, r3
 8004d00:	4630      	mov	r0, r6
 8004d02:	f000 f8b1 	bl	8004e68 <__malloc_unlock>
 8004d06:	f104 000b 	add.w	r0, r4, #11
 8004d0a:	1d23      	adds	r3, r4, #4
 8004d0c:	f020 0007 	bic.w	r0, r0, #7
 8004d10:	1ac3      	subs	r3, r0, r3
 8004d12:	d01b      	beq.n	8004d4c <_malloc_r+0xb0>
 8004d14:	425a      	negs	r2, r3
 8004d16:	50e2      	str	r2, [r4, r3]
 8004d18:	bd70      	pop	{r4, r5, r6, pc}
 8004d1a:	428c      	cmp	r4, r1
 8004d1c:	bf0d      	iteet	eq
 8004d1e:	6863      	ldreq	r3, [r4, #4]
 8004d20:	684b      	ldrne	r3, [r1, #4]
 8004d22:	6063      	strne	r3, [r4, #4]
 8004d24:	6013      	streq	r3, [r2, #0]
 8004d26:	bf18      	it	ne
 8004d28:	460c      	movne	r4, r1
 8004d2a:	e7e9      	b.n	8004d00 <_malloc_r+0x64>
 8004d2c:	460c      	mov	r4, r1
 8004d2e:	6849      	ldr	r1, [r1, #4]
 8004d30:	e7ca      	b.n	8004cc8 <_malloc_r+0x2c>
 8004d32:	1cc4      	adds	r4, r0, #3
 8004d34:	f024 0403 	bic.w	r4, r4, #3
 8004d38:	42a0      	cmp	r0, r4
 8004d3a:	d005      	beq.n	8004d48 <_malloc_r+0xac>
 8004d3c:	1a21      	subs	r1, r4, r0
 8004d3e:	4630      	mov	r0, r6
 8004d40:	f000 f80a 	bl	8004d58 <_sbrk_r>
 8004d44:	3001      	adds	r0, #1
 8004d46:	d0cd      	beq.n	8004ce4 <_malloc_r+0x48>
 8004d48:	6025      	str	r5, [r4, #0]
 8004d4a:	e7d9      	b.n	8004d00 <_malloc_r+0x64>
 8004d4c:	bd70      	pop	{r4, r5, r6, pc}
 8004d4e:	bf00      	nop
 8004d50:	20000144 	.word	0x20000144
 8004d54:	20000148 	.word	0x20000148

08004d58 <_sbrk_r>:
 8004d58:	b538      	push	{r3, r4, r5, lr}
 8004d5a:	4c06      	ldr	r4, [pc, #24]	; (8004d74 <_sbrk_r+0x1c>)
 8004d5c:	2300      	movs	r3, #0
 8004d5e:	4605      	mov	r5, r0
 8004d60:	4608      	mov	r0, r1
 8004d62:	6023      	str	r3, [r4, #0]
 8004d64:	f000 fcc2 	bl	80056ec <_sbrk>
 8004d68:	1c43      	adds	r3, r0, #1
 8004d6a:	d102      	bne.n	8004d72 <_sbrk_r+0x1a>
 8004d6c:	6823      	ldr	r3, [r4, #0]
 8004d6e:	b103      	cbz	r3, 8004d72 <_sbrk_r+0x1a>
 8004d70:	602b      	str	r3, [r5, #0]
 8004d72:	bd38      	pop	{r3, r4, r5, pc}
 8004d74:	20000334 	.word	0x20000334

08004d78 <siprintf>:
 8004d78:	b40e      	push	{r1, r2, r3}
 8004d7a:	b500      	push	{lr}
 8004d7c:	b09c      	sub	sp, #112	; 0x70
 8004d7e:	f44f 7102 	mov.w	r1, #520	; 0x208
 8004d82:	ab1d      	add	r3, sp, #116	; 0x74
 8004d84:	f8ad 1014 	strh.w	r1, [sp, #20]
 8004d88:	9002      	str	r0, [sp, #8]
 8004d8a:	9006      	str	r0, [sp, #24]
 8004d8c:	f06f 4100 	mvn.w	r1, #2147483648	; 0x80000000
 8004d90:	480a      	ldr	r0, [pc, #40]	; (8004dbc <siprintf+0x44>)
 8004d92:	9104      	str	r1, [sp, #16]
 8004d94:	9107      	str	r1, [sp, #28]
 8004d96:	f64f 71ff 	movw	r1, #65535	; 0xffff
 8004d9a:	f853 2b04 	ldr.w	r2, [r3], #4
 8004d9e:	f8ad 1016 	strh.w	r1, [sp, #22]
 8004da2:	6800      	ldr	r0, [r0, #0]
 8004da4:	9301      	str	r3, [sp, #4]
 8004da6:	a902      	add	r1, sp, #8
 8004da8:	f000 f8ba 	bl	8004f20 <_svfiprintf_r>
 8004dac:	9b02      	ldr	r3, [sp, #8]
 8004dae:	2200      	movs	r2, #0
 8004db0:	701a      	strb	r2, [r3, #0]
 8004db2:	b01c      	add	sp, #112	; 0x70
 8004db4:	f85d eb04 	ldr.w	lr, [sp], #4
 8004db8:	b003      	add	sp, #12
 8004dba:	4770      	bx	lr
 8004dbc:	20000030 	.word	0x20000030

08004dc0 <strtok>:
 8004dc0:	4b13      	ldr	r3, [pc, #76]	; (8004e10 <strtok+0x50>)
 8004dc2:	e92d 41f0 	stmdb	sp!, {r4, r5, r6, r7, r8, lr}
 8004dc6:	681d      	ldr	r5, [r3, #0]
 8004dc8:	6dac      	ldr	r4, [r5, #88]	; 0x58
 8004dca:	4606      	mov	r6, r0
 8004dcc:	460f      	mov	r7, r1
 8004dce:	b9b4      	cbnz	r4, 8004dfe <strtok+0x3e>
 8004dd0:	2050      	movs	r0, #80	; 0x50
 8004dd2:	f7ff feeb 	bl	8004bac <malloc>
 8004dd6:	65a8      	str	r0, [r5, #88]	; 0x58
 8004dd8:	6004      	str	r4, [r0, #0]
 8004dda:	6044      	str	r4, [r0, #4]
 8004ddc:	6084      	str	r4, [r0, #8]
 8004dde:	60c4      	str	r4, [r0, #12]
 8004de0:	6104      	str	r4, [r0, #16]
 8004de2:	6144      	str	r4, [r0, #20]
 8004de4:	6184      	str	r4, [r0, #24]
 8004de6:	6284      	str	r4, [r0, #40]	; 0x28
 8004de8:	62c4      	str	r4, [r0, #44]	; 0x2c
 8004dea:	6304      	str	r4, [r0, #48]	; 0x30
 8004dec:	6344      	str	r4, [r0, #52]	; 0x34
 8004dee:	6384      	str	r4, [r0, #56]	; 0x38
 8004df0:	63c4      	str	r4, [r0, #60]	; 0x3c
 8004df2:	6404      	str	r4, [r0, #64]	; 0x40
 8004df4:	6444      	str	r4, [r0, #68]	; 0x44
 8004df6:	6484      	str	r4, [r0, #72]	; 0x48
 8004df8:	64c4      	str	r4, [r0, #76]	; 0x4c
 8004dfa:	7704      	strb	r4, [r0, #28]
 8004dfc:	6244      	str	r4, [r0, #36]	; 0x24
 8004dfe:	6daa      	ldr	r2, [r5, #88]	; 0x58
 8004e00:	4639      	mov	r1, r7
 8004e02:	4630      	mov	r0, r6
 8004e04:	2301      	movs	r3, #1
 8004e06:	e8bd 41f0 	ldmia.w	sp!, {r4, r5, r6, r7, r8, lr}
 8004e0a:	f000 b803 	b.w	8004e14 <__strtok_r>
 8004e0e:	bf00      	nop
 8004e10:	20000030 	.word	0x20000030

08004e14 <__strtok_r>:
 8004e14:	b5f0      	push	{r4, r5, r6, r7, lr}
 8004e16:	b918      	cbnz	r0, 8004e20 <__strtok_r+0xc>
 8004e18:	6810      	ldr	r0, [r2, #0]
 8004e1a:	b908      	cbnz	r0, 8004e20 <__strtok_r+0xc>
 8004e1c:	bdf0      	pop	{r4, r5, r6, r7, pc}
 8004e1e:	4620      	mov	r0, r4
 8004e20:	4604      	mov	r4, r0
 8004e22:	460f      	mov	r7, r1
 8004e24:	f814 5b01 	ldrb.w	r5, [r4], #1
 8004e28:	f817 6b01 	ldrb.w	r6, [r7], #1
 8004e2c:	b91e      	cbnz	r6, 8004e36 <__strtok_r+0x22>
 8004e2e:	b965      	cbnz	r5, 8004e4a <__strtok_r+0x36>
 8004e30:	6015      	str	r5, [r2, #0]
 8004e32:	4628      	mov	r0, r5
 8004e34:	bdf0      	pop	{r4, r5, r6, r7, pc}
 8004e36:	42b5      	cmp	r5, r6
 8004e38:	d1f6      	bne.n	8004e28 <__strtok_r+0x14>
 8004e3a:	2b00      	cmp	r3, #0
 8004e3c:	d1ef      	bne.n	8004e1e <__strtok_r+0xa>
 8004e3e:	6014      	str	r4, [r2, #0]
 8004e40:	7003      	strb	r3, [r0, #0]
 8004e42:	bdf0      	pop	{r4, r5, r6, r7, pc}
 8004e44:	461c      	mov	r4, r3
 8004e46:	e00c      	b.n	8004e62 <__strtok_r+0x4e>
 8004e48:	b915      	cbnz	r5, 8004e50 <__strtok_r+0x3c>
 8004e4a:	f814 3b01 	ldrb.w	r3, [r4], #1
 8004e4e:	460e      	mov	r6, r1
 8004e50:	f816 5b01 	ldrb.w	r5, [r6], #1
 8004e54:	42ab      	cmp	r3, r5
 8004e56:	d1f7      	bne.n	8004e48 <__strtok_r+0x34>
 8004e58:	2b00      	cmp	r3, #0
 8004e5a:	d0f3      	beq.n	8004e44 <__strtok_r+0x30>
 8004e5c:	2300      	movs	r3, #0
 8004e5e:	f804 3c01 	strb.w	r3, [r4, #-1]
 8004e62:	6014      	str	r4, [r2, #0]
 8004e64:	bdf0      	pop	{r4, r5, r6, r7, pc}

08004e66 <__malloc_lock>:
 8004e66:	4770      	bx	lr

08004e68 <__malloc_unlock>:
 8004e68:	4770      	bx	lr

08004e6a <__ssputs_r>:
 8004e6a:	e92d 47f0 	stmdb	sp!, {r4, r5, r6, r7, r8, r9, sl, lr}
 8004e6e:	688e      	ldr	r6, [r1, #8]
 8004e70:	429e      	cmp	r6, r3
 8004e72:	4682      	mov	sl, r0
 8004e74:	460c      	mov	r4, r1
 8004e76:	4691      	mov	r9, r2
 8004e78:	4698      	mov	r8, r3
 8004e7a:	d835      	bhi.n	8004ee8 <__ssputs_r+0x7e>
 8004e7c:	898a      	ldrh	r2, [r1, #12]
 8004e7e:	f412 6f90 	tst.w	r2, #1152	; 0x480
 8004e82:	d031      	beq.n	8004ee8 <__ssputs_r+0x7e>
 8004e84:	6825      	ldr	r5, [r4, #0]
 8004e86:	6909      	ldr	r1, [r1, #16]
 8004e88:	1a6f      	subs	r7, r5, r1
 8004e8a:	6965      	ldr	r5, [r4, #20]
 8004e8c:	2302      	movs	r3, #2
 8004e8e:	eb05 0545 	add.w	r5, r5, r5, lsl #1
 8004e92:	fb95 f5f3 	sdiv	r5, r5, r3
 8004e96:	f108 0301 	add.w	r3, r8, #1
 8004e9a:	443b      	add	r3, r7
 8004e9c:	429d      	cmp	r5, r3
 8004e9e:	bf38      	it	cc
 8004ea0:	461d      	movcc	r5, r3
 8004ea2:	0553      	lsls	r3, r2, #21
 8004ea4:	d531      	bpl.n	8004f0a <__ssputs_r+0xa0>
 8004ea6:	4629      	mov	r1, r5
 8004ea8:	f7ff fef8 	bl	8004c9c <_malloc_r>
 8004eac:	4606      	mov	r6, r0
 8004eae:	b950      	cbnz	r0, 8004ec6 <__ssputs_r+0x5c>
 8004eb0:	230c      	movs	r3, #12
 8004eb2:	f8ca 3000 	str.w	r3, [sl]
 8004eb6:	89a3      	ldrh	r3, [r4, #12]
 8004eb8:	f043 0340 	orr.w	r3, r3, #64	; 0x40
 8004ebc:	81a3      	strh	r3, [r4, #12]
 8004ebe:	f04f 30ff 	mov.w	r0, #4294967295
 8004ec2:	e8bd 87f0 	ldmia.w	sp!, {r4, r5, r6, r7, r8, r9, sl, pc}
 8004ec6:	463a      	mov	r2, r7
 8004ec8:	6921      	ldr	r1, [r4, #16]
 8004eca:	f7ff fe77 	bl	8004bbc <memcpy>
 8004ece:	89a3      	ldrh	r3, [r4, #12]
 8004ed0:	f423 6390 	bic.w	r3, r3, #1152	; 0x480
 8004ed4:	f043 0380 	orr.w	r3, r3, #128	; 0x80
 8004ed8:	81a3      	strh	r3, [r4, #12]
 8004eda:	6126      	str	r6, [r4, #16]
 8004edc:	6165      	str	r5, [r4, #20]
 8004ede:	443e      	add	r6, r7
 8004ee0:	1bed      	subs	r5, r5, r7
 8004ee2:	6026      	str	r6, [r4, #0]
 8004ee4:	60a5      	str	r5, [r4, #8]
 8004ee6:	4646      	mov	r6, r8
 8004ee8:	4546      	cmp	r6, r8
 8004eea:	bf28      	it	cs
 8004eec:	4646      	movcs	r6, r8
 8004eee:	4632      	mov	r2, r6
 8004ef0:	4649      	mov	r1, r9
 8004ef2:	6820      	ldr	r0, [r4, #0]
 8004ef4:	f000 fa9e 	bl	8005434 <memmove>
 8004ef8:	68a3      	ldr	r3, [r4, #8]
 8004efa:	1b9b      	subs	r3, r3, r6
 8004efc:	60a3      	str	r3, [r4, #8]
 8004efe:	6823      	ldr	r3, [r4, #0]
 8004f00:	441e      	add	r6, r3
 8004f02:	6026      	str	r6, [r4, #0]
 8004f04:	2000      	movs	r0, #0
 8004f06:	e8bd 87f0 	ldmia.w	sp!, {r4, r5, r6, r7, r8, r9, sl, pc}
 8004f0a:	462a      	mov	r2, r5
 8004f0c:	f000 faac 	bl	8005468 <_realloc_r>
 8004f10:	4606      	mov	r6, r0
 8004f12:	2800      	cmp	r0, #0
 8004f14:	d1e1      	bne.n	8004eda <__ssputs_r+0x70>
 8004f16:	6921      	ldr	r1, [r4, #16]
 8004f18:	4650      	mov	r0, sl
 8004f1a:	f7ff fe71 	bl	8004c00 <_free_r>
 8004f1e:	e7c7      	b.n	8004eb0 <__ssputs_r+0x46>

08004f20 <_svfiprintf_r>:
 8004f20:	e92d 4ff0 	stmdb	sp!, {r4, r5, r6, r7, r8, r9, sl, fp, lr}
 8004f24:	b09d      	sub	sp, #116	; 0x74
 8004f26:	4680      	mov	r8, r0
 8004f28:	9303      	str	r3, [sp, #12]
 8004f2a:	898b      	ldrh	r3, [r1, #12]
 8004f2c:	061c      	lsls	r4, r3, #24
 8004f2e:	460d      	mov	r5, r1
 8004f30:	4616      	mov	r6, r2
 8004f32:	d50f      	bpl.n	8004f54 <_svfiprintf_r+0x34>
 8004f34:	690b      	ldr	r3, [r1, #16]
 8004f36:	b96b      	cbnz	r3, 8004f54 <_svfiprintf_r+0x34>
 8004f38:	2140      	movs	r1, #64	; 0x40
 8004f3a:	f7ff feaf 	bl	8004c9c <_malloc_r>
 8004f3e:	6028      	str	r0, [r5, #0]
 8004f40:	6128      	str	r0, [r5, #16]
 8004f42:	b928      	cbnz	r0, 8004f50 <_svfiprintf_r+0x30>
 8004f44:	230c      	movs	r3, #12
 8004f46:	f8c8 3000 	str.w	r3, [r8]
 8004f4a:	f04f 30ff 	mov.w	r0, #4294967295
 8004f4e:	e0c5      	b.n	80050dc <_svfiprintf_r+0x1bc>
 8004f50:	2340      	movs	r3, #64	; 0x40
 8004f52:	616b      	str	r3, [r5, #20]
 8004f54:	2300      	movs	r3, #0
 8004f56:	9309      	str	r3, [sp, #36]	; 0x24
 8004f58:	2320      	movs	r3, #32
 8004f5a:	f88d 3029 	strb.w	r3, [sp, #41]	; 0x29
 8004f5e:	2330      	movs	r3, #48	; 0x30
 8004f60:	f88d 302a 	strb.w	r3, [sp, #42]	; 0x2a
 8004f64:	f04f 0b01 	mov.w	fp, #1
 8004f68:	4637      	mov	r7, r6
 8004f6a:	463c      	mov	r4, r7
 8004f6c:	f814 3b01 	ldrb.w	r3, [r4], #1
 8004f70:	2b00      	cmp	r3, #0
 8004f72:	d13c      	bne.n	8004fee <_svfiprintf_r+0xce>
 8004f74:	ebb7 0a06 	subs.w	sl, r7, r6
 8004f78:	d00b      	beq.n	8004f92 <_svfiprintf_r+0x72>
 8004f7a:	4653      	mov	r3, sl
 8004f7c:	4632      	mov	r2, r6
 8004f7e:	4629      	mov	r1, r5
 8004f80:	4640      	mov	r0, r8
 8004f82:	f7ff ff72 	bl	8004e6a <__ssputs_r>
 8004f86:	3001      	adds	r0, #1
 8004f88:	f000 80a3 	beq.w	80050d2 <_svfiprintf_r+0x1b2>
 8004f8c:	9b09      	ldr	r3, [sp, #36]	; 0x24
 8004f8e:	4453      	add	r3, sl
 8004f90:	9309      	str	r3, [sp, #36]	; 0x24
 8004f92:	783b      	ldrb	r3, [r7, #0]
 8004f94:	2b00      	cmp	r3, #0
 8004f96:	f000 809c 	beq.w	80050d2 <_svfiprintf_r+0x1b2>
 8004f9a:	2300      	movs	r3, #0
 8004f9c:	f04f 32ff 	mov.w	r2, #4294967295
 8004fa0:	9304      	str	r3, [sp, #16]
 8004fa2:	9307      	str	r3, [sp, #28]
 8004fa4:	9205      	str	r2, [sp, #20]
 8004fa6:	9306      	str	r3, [sp, #24]
 8004fa8:	f88d 3053 	strb.w	r3, [sp, #83]	; 0x53
 8004fac:	931a      	str	r3, [sp, #104]	; 0x68
 8004fae:	2205      	movs	r2, #5
 8004fb0:	7821      	ldrb	r1, [r4, #0]
 8004fb2:	4850      	ldr	r0, [pc, #320]	; (80050f4 <_svfiprintf_r+0x1d4>)
 8004fb4:	f7fb f914 	bl	80001e0 <memchr>
 8004fb8:	1c67      	adds	r7, r4, #1
 8004fba:	9b04      	ldr	r3, [sp, #16]
 8004fbc:	b9d8      	cbnz	r0, 8004ff6 <_svfiprintf_r+0xd6>
 8004fbe:	06d9      	lsls	r1, r3, #27
 8004fc0:	bf44      	itt	mi
 8004fc2:	2220      	movmi	r2, #32
 8004fc4:	f88d 2053 	strbmi.w	r2, [sp, #83]	; 0x53
 8004fc8:	071a      	lsls	r2, r3, #28
 8004fca:	bf44      	itt	mi
 8004fcc:	222b      	movmi	r2, #43	; 0x2b
 8004fce:	f88d 2053 	strbmi.w	r2, [sp, #83]	; 0x53
 8004fd2:	7822      	ldrb	r2, [r4, #0]
 8004fd4:	2a2a      	cmp	r2, #42	; 0x2a
 8004fd6:	d016      	beq.n	8005006 <_svfiprintf_r+0xe6>
 8004fd8:	9a07      	ldr	r2, [sp, #28]
 8004fda:	2100      	movs	r1, #0
 8004fdc:	200a      	movs	r0, #10
 8004fde:	4627      	mov	r7, r4
 8004fe0:	3401      	adds	r4, #1
 8004fe2:	783b      	ldrb	r3, [r7, #0]
 8004fe4:	3b30      	subs	r3, #48	; 0x30
 8004fe6:	2b09      	cmp	r3, #9
 8004fe8:	d951      	bls.n	800508e <_svfiprintf_r+0x16e>
 8004fea:	b1c9      	cbz	r1, 8005020 <_svfiprintf_r+0x100>
 8004fec:	e011      	b.n	8005012 <_svfiprintf_r+0xf2>
 8004fee:	2b25      	cmp	r3, #37	; 0x25
 8004ff0:	d0c0      	beq.n	8004f74 <_svfiprintf_r+0x54>
 8004ff2:	4627      	mov	r7, r4
 8004ff4:	e7b9      	b.n	8004f6a <_svfiprintf_r+0x4a>
 8004ff6:	4a3f      	ldr	r2, [pc, #252]	; (80050f4 <_svfiprintf_r+0x1d4>)
 8004ff8:	1a80      	subs	r0, r0, r2
 8004ffa:	fa0b f000 	lsl.w	r0, fp, r0
 8004ffe:	4318      	orrs	r0, r3
 8005000:	9004      	str	r0, [sp, #16]
 8005002:	463c      	mov	r4, r7
 8005004:	e7d3      	b.n	8004fae <_svfiprintf_r+0x8e>
 8005006:	9a03      	ldr	r2, [sp, #12]
 8005008:	1d11      	adds	r1, r2, #4
 800500a:	6812      	ldr	r2, [r2, #0]
 800500c:	9103      	str	r1, [sp, #12]
 800500e:	2a00      	cmp	r2, #0
 8005010:	db01      	blt.n	8005016 <_svfiprintf_r+0xf6>
 8005012:	9207      	str	r2, [sp, #28]
 8005014:	e004      	b.n	8005020 <_svfiprintf_r+0x100>
 8005016:	4252      	negs	r2, r2
 8005018:	f043 0302 	orr.w	r3, r3, #2
 800501c:	9207      	str	r2, [sp, #28]
 800501e:	9304      	str	r3, [sp, #16]
 8005020:	783b      	ldrb	r3, [r7, #0]
 8005022:	2b2e      	cmp	r3, #46	; 0x2e
 8005024:	d10e      	bne.n	8005044 <_svfiprintf_r+0x124>
 8005026:	787b      	ldrb	r3, [r7, #1]
 8005028:	2b2a      	cmp	r3, #42	; 0x2a
 800502a:	f107 0101 	add.w	r1, r7, #1
 800502e:	d132      	bne.n	8005096 <_svfiprintf_r+0x176>
 8005030:	9b03      	ldr	r3, [sp, #12]
 8005032:	1d1a      	adds	r2, r3, #4
 8005034:	681b      	ldr	r3, [r3, #0]
 8005036:	9203      	str	r2, [sp, #12]
 8005038:	2b00      	cmp	r3, #0
 800503a:	bfb8      	it	lt
 800503c:	f04f 33ff 	movlt.w	r3, #4294967295
 8005040:	3702      	adds	r7, #2
 8005042:	9305      	str	r3, [sp, #20]
 8005044:	4c2c      	ldr	r4, [pc, #176]	; (80050f8 <_svfiprintf_r+0x1d8>)
 8005046:	7839      	ldrb	r1, [r7, #0]
 8005048:	2203      	movs	r2, #3
 800504a:	4620      	mov	r0, r4
 800504c:	f7fb f8c8 	bl	80001e0 <memchr>
 8005050:	b138      	cbz	r0, 8005062 <_svfiprintf_r+0x142>
 8005052:	2340      	movs	r3, #64	; 0x40
 8005054:	1b00      	subs	r0, r0, r4
 8005056:	fa03 f000 	lsl.w	r0, r3, r0
 800505a:	9b04      	ldr	r3, [sp, #16]
 800505c:	4303      	orrs	r3, r0
 800505e:	9304      	str	r3, [sp, #16]
 8005060:	3701      	adds	r7, #1
 8005062:	7839      	ldrb	r1, [r7, #0]
 8005064:	4825      	ldr	r0, [pc, #148]	; (80050fc <_svfiprintf_r+0x1dc>)
 8005066:	f88d 1028 	strb.w	r1, [sp, #40]	; 0x28
 800506a:	2206      	movs	r2, #6
 800506c:	1c7e      	adds	r6, r7, #1
 800506e:	f7fb f8b7 	bl	80001e0 <memchr>
 8005072:	2800      	cmp	r0, #0
 8005074:	d035      	beq.n	80050e2 <_svfiprintf_r+0x1c2>
 8005076:	4b22      	ldr	r3, [pc, #136]	; (8005100 <_svfiprintf_r+0x1e0>)
 8005078:	b9fb      	cbnz	r3, 80050ba <_svfiprintf_r+0x19a>
 800507a:	9b03      	ldr	r3, [sp, #12]
 800507c:	3307      	adds	r3, #7
 800507e:	f023 0307 	bic.w	r3, r3, #7
 8005082:	3308      	adds	r3, #8
 8005084:	9303      	str	r3, [sp, #12]
 8005086:	9b09      	ldr	r3, [sp, #36]	; 0x24
 8005088:	444b      	add	r3, r9
 800508a:	9309      	str	r3, [sp, #36]	; 0x24
 800508c:	e76c      	b.n	8004f68 <_svfiprintf_r+0x48>
 800508e:	fb00 3202 	mla	r2, r0, r2, r3
 8005092:	2101      	movs	r1, #1
 8005094:	e7a3      	b.n	8004fde <_svfiprintf_r+0xbe>
 8005096:	2300      	movs	r3, #0
 8005098:	9305      	str	r3, [sp, #20]
 800509a:	4618      	mov	r0, r3
 800509c:	240a      	movs	r4, #10
 800509e:	460f      	mov	r7, r1
 80050a0:	3101      	adds	r1, #1
 80050a2:	783a      	ldrb	r2, [r7, #0]
 80050a4:	3a30      	subs	r2, #48	; 0x30
 80050a6:	2a09      	cmp	r2, #9
 80050a8:	d903      	bls.n	80050b2 <_svfiprintf_r+0x192>
 80050aa:	2b00      	cmp	r3, #0
 80050ac:	d0ca      	beq.n	8005044 <_svfiprintf_r+0x124>
 80050ae:	9005      	str	r0, [sp, #20]
 80050b0:	e7c8      	b.n	8005044 <_svfiprintf_r+0x124>
 80050b2:	fb04 2000 	mla	r0, r4, r0, r2
 80050b6:	2301      	movs	r3, #1
 80050b8:	e7f1      	b.n	800509e <_svfiprintf_r+0x17e>
 80050ba:	ab03      	add	r3, sp, #12
 80050bc:	9300      	str	r3, [sp, #0]
 80050be:	462a      	mov	r2, r5
 80050c0:	4b10      	ldr	r3, [pc, #64]	; (8005104 <_svfiprintf_r+0x1e4>)
 80050c2:	a904      	add	r1, sp, #16
 80050c4:	4640      	mov	r0, r8
 80050c6:	f3af 8000 	nop.w
 80050ca:	f1b0 3fff 	cmp.w	r0, #4294967295
 80050ce:	4681      	mov	r9, r0
 80050d0:	d1d9      	bne.n	8005086 <_svfiprintf_r+0x166>
 80050d2:	89ab      	ldrh	r3, [r5, #12]
 80050d4:	065b      	lsls	r3, r3, #25
 80050d6:	f53f af38 	bmi.w	8004f4a <_svfiprintf_r+0x2a>
 80050da:	9809      	ldr	r0, [sp, #36]	; 0x24
 80050dc:	b01d      	add	sp, #116	; 0x74
 80050de:	e8bd 8ff0 	ldmia.w	sp!, {r4, r5, r6, r7, r8, r9, sl, fp, pc}
 80050e2:	ab03      	add	r3, sp, #12
 80050e4:	9300      	str	r3, [sp, #0]
 80050e6:	462a      	mov	r2, r5
 80050e8:	4b06      	ldr	r3, [pc, #24]	; (8005104 <_svfiprintf_r+0x1e4>)
 80050ea:	a904      	add	r1, sp, #16
 80050ec:	4640      	mov	r0, r8
 80050ee:	f000 f881 	bl	80051f4 <_printf_i>
 80050f2:	e7ea      	b.n	80050ca <_svfiprintf_r+0x1aa>
 80050f4:	080057a8 	.word	0x080057a8
 80050f8:	080057ae 	.word	0x080057ae
 80050fc:	080057b2 	.word	0x080057b2
 8005100:	00000000 	.word	0x00000000
 8005104:	08004e6b 	.word	0x08004e6b

08005108 <_printf_common>:
 8005108:	e92d 47f0 	stmdb	sp!, {r4, r5, r6, r7, r8, r9, sl, lr}
 800510c:	4691      	mov	r9, r2
 800510e:	461f      	mov	r7, r3
 8005110:	688a      	ldr	r2, [r1, #8]
 8005112:	690b      	ldr	r3, [r1, #16]
 8005114:	f8dd 8020 	ldr.w	r8, [sp, #32]
 8005118:	4293      	cmp	r3, r2
 800511a:	bfb8      	it	lt
 800511c:	4613      	movlt	r3, r2
 800511e:	f8c9 3000 	str.w	r3, [r9]
 8005122:	f891 2043 	ldrb.w	r2, [r1, #67]	; 0x43
 8005126:	4606      	mov	r6, r0
 8005128:	460c      	mov	r4, r1
 800512a:	b112      	cbz	r2, 8005132 <_printf_common+0x2a>
 800512c:	3301      	adds	r3, #1
 800512e:	f8c9 3000 	str.w	r3, [r9]
 8005132:	6823      	ldr	r3, [r4, #0]
 8005134:	0699      	lsls	r1, r3, #26
 8005136:	bf42      	ittt	mi
 8005138:	f8d9 3000 	ldrmi.w	r3, [r9]
 800513c:	3302      	addmi	r3, #2
 800513e:	f8c9 3000 	strmi.w	r3, [r9]
 8005142:	6825      	ldr	r5, [r4, #0]
 8005144:	f015 0506 	ands.w	r5, r5, #6
 8005148:	d107      	bne.n	800515a <_printf_common+0x52>
 800514a:	f104 0a19 	add.w	sl, r4, #25
 800514e:	68e3      	ldr	r3, [r4, #12]
 8005150:	f8d9 2000 	ldr.w	r2, [r9]
 8005154:	1a9b      	subs	r3, r3, r2
 8005156:	429d      	cmp	r5, r3
 8005158:	db29      	blt.n	80051ae <_printf_common+0xa6>
 800515a:	f894 3043 	ldrb.w	r3, [r4, #67]	; 0x43
 800515e:	6822      	ldr	r2, [r4, #0]
 8005160:	3300      	adds	r3, #0
 8005162:	bf18      	it	ne
 8005164:	2301      	movne	r3, #1
 8005166:	0692      	lsls	r2, r2, #26
 8005168:	d42e      	bmi.n	80051c8 <_printf_common+0xc0>
 800516a:	f104 0243 	add.w	r2, r4, #67	; 0x43
 800516e:	4639      	mov	r1, r7
 8005170:	4630      	mov	r0, r6
 8005172:	47c0      	blx	r8
 8005174:	3001      	adds	r0, #1
 8005176:	d021      	beq.n	80051bc <_printf_common+0xb4>
 8005178:	6823      	ldr	r3, [r4, #0]
 800517a:	68e5      	ldr	r5, [r4, #12]
 800517c:	f8d9 2000 	ldr.w	r2, [r9]
 8005180:	f003 0306 	and.w	r3, r3, #6
 8005184:	2b04      	cmp	r3, #4
 8005186:	bf08      	it	eq
 8005188:	1aad      	subeq	r5, r5, r2
 800518a:	68a3      	ldr	r3, [r4, #8]
 800518c:	6922      	ldr	r2, [r4, #16]
 800518e:	bf0c      	ite	eq
 8005190:	ea25 75e5 	biceq.w	r5, r5, r5, asr #31
 8005194:	2500      	movne	r5, #0
 8005196:	4293      	cmp	r3, r2
 8005198:	bfc4      	itt	gt
 800519a:	1a9b      	subgt	r3, r3, r2
 800519c:	18ed      	addgt	r5, r5, r3
 800519e:	f04f 0900 	mov.w	r9, #0
 80051a2:	341a      	adds	r4, #26
 80051a4:	454d      	cmp	r5, r9
 80051a6:	d11b      	bne.n	80051e0 <_printf_common+0xd8>
 80051a8:	2000      	movs	r0, #0
 80051aa:	e8bd 87f0 	ldmia.w	sp!, {r4, r5, r6, r7, r8, r9, sl, pc}
 80051ae:	2301      	movs	r3, #1
 80051b0:	4652      	mov	r2, sl
 80051b2:	4639      	mov	r1, r7
 80051b4:	4630      	mov	r0, r6
 80051b6:	47c0      	blx	r8
 80051b8:	3001      	adds	r0, #1
 80051ba:	d103      	bne.n	80051c4 <_printf_common+0xbc>
 80051bc:	f04f 30ff 	mov.w	r0, #4294967295
 80051c0:	e8bd 87f0 	ldmia.w	sp!, {r4, r5, r6, r7, r8, r9, sl, pc}
 80051c4:	3501      	adds	r5, #1
 80051c6:	e7c2      	b.n	800514e <_printf_common+0x46>
 80051c8:	18e1      	adds	r1, r4, r3
 80051ca:	1c5a      	adds	r2, r3, #1
 80051cc:	2030      	movs	r0, #48	; 0x30
 80051ce:	f881 0043 	strb.w	r0, [r1, #67]	; 0x43
 80051d2:	4422      	add	r2, r4
 80051d4:	f894 1045 	ldrb.w	r1, [r4, #69]	; 0x45
 80051d8:	f882 1043 	strb.w	r1, [r2, #67]	; 0x43
 80051dc:	3302      	adds	r3, #2
 80051de:	e7c4      	b.n	800516a <_printf_common+0x62>
 80051e0:	2301      	movs	r3, #1
 80051e2:	4622      	mov	r2, r4
 80051e4:	4639      	mov	r1, r7
 80051e6:	4630      	mov	r0, r6
 80051e8:	47c0      	blx	r8
 80051ea:	3001      	adds	r0, #1
 80051ec:	d0e6      	beq.n	80051bc <_printf_common+0xb4>
 80051ee:	f109 0901 	add.w	r9, r9, #1
 80051f2:	e7d7      	b.n	80051a4 <_printf_common+0x9c>

080051f4 <_printf_i>:
 80051f4:	e92d 43f0 	stmdb	sp!, {r4, r5, r6, r7, r8, r9, lr}
 80051f8:	4617      	mov	r7, r2
 80051fa:	7e0a      	ldrb	r2, [r1, #24]
 80051fc:	b085      	sub	sp, #20
 80051fe:	2a6e      	cmp	r2, #110	; 0x6e
 8005200:	4698      	mov	r8, r3
 8005202:	4606      	mov	r6, r0
 8005204:	460c      	mov	r4, r1
 8005206:	9b0c      	ldr	r3, [sp, #48]	; 0x30
 8005208:	f101 0e43 	add.w	lr, r1, #67	; 0x43
 800520c:	f000 80bc 	beq.w	8005388 <_printf_i+0x194>
 8005210:	d81a      	bhi.n	8005248 <_printf_i+0x54>
 8005212:	2a63      	cmp	r2, #99	; 0x63
 8005214:	d02e      	beq.n	8005274 <_printf_i+0x80>
 8005216:	d80a      	bhi.n	800522e <_printf_i+0x3a>
 8005218:	2a00      	cmp	r2, #0
 800521a:	f000 80c8 	beq.w	80053ae <_printf_i+0x1ba>
 800521e:	2a58      	cmp	r2, #88	; 0x58
 8005220:	f000 808a 	beq.w	8005338 <_printf_i+0x144>
 8005224:	f104 0542 	add.w	r5, r4, #66	; 0x42
 8005228:	f884 2042 	strb.w	r2, [r4, #66]	; 0x42
 800522c:	e02a      	b.n	8005284 <_printf_i+0x90>
 800522e:	2a64      	cmp	r2, #100	; 0x64
 8005230:	d001      	beq.n	8005236 <_printf_i+0x42>
 8005232:	2a69      	cmp	r2, #105	; 0x69
 8005234:	d1f6      	bne.n	8005224 <_printf_i+0x30>
 8005236:	6821      	ldr	r1, [r4, #0]
 8005238:	681a      	ldr	r2, [r3, #0]
 800523a:	f011 0f80 	tst.w	r1, #128	; 0x80
 800523e:	d023      	beq.n	8005288 <_printf_i+0x94>
 8005240:	1d11      	adds	r1, r2, #4
 8005242:	6019      	str	r1, [r3, #0]
 8005244:	6813      	ldr	r3, [r2, #0]
 8005246:	e027      	b.n	8005298 <_printf_i+0xa4>
 8005248:	2a73      	cmp	r2, #115	; 0x73
 800524a:	f000 80b4 	beq.w	80053b6 <_printf_i+0x1c2>
 800524e:	d808      	bhi.n	8005262 <_printf_i+0x6e>
 8005250:	2a6f      	cmp	r2, #111	; 0x6f
 8005252:	d02a      	beq.n	80052aa <_printf_i+0xb6>
 8005254:	2a70      	cmp	r2, #112	; 0x70
 8005256:	d1e5      	bne.n	8005224 <_printf_i+0x30>
 8005258:	680a      	ldr	r2, [r1, #0]
 800525a:	f042 0220 	orr.w	r2, r2, #32
 800525e:	600a      	str	r2, [r1, #0]
 8005260:	e003      	b.n	800526a <_printf_i+0x76>
 8005262:	2a75      	cmp	r2, #117	; 0x75
 8005264:	d021      	beq.n	80052aa <_printf_i+0xb6>
 8005266:	2a78      	cmp	r2, #120	; 0x78
 8005268:	d1dc      	bne.n	8005224 <_printf_i+0x30>
 800526a:	2278      	movs	r2, #120	; 0x78
 800526c:	f884 2045 	strb.w	r2, [r4, #69]	; 0x45
 8005270:	496e      	ldr	r1, [pc, #440]	; (800542c <_printf_i+0x238>)
 8005272:	e064      	b.n	800533e <_printf_i+0x14a>
 8005274:	681a      	ldr	r2, [r3, #0]
 8005276:	f101 0542 	add.w	r5, r1, #66	; 0x42
 800527a:	1d11      	adds	r1, r2, #4
 800527c:	6019      	str	r1, [r3, #0]
 800527e:	6813      	ldr	r3, [r2, #0]
 8005280:	f884 3042 	strb.w	r3, [r4, #66]	; 0x42
 8005284:	2301      	movs	r3, #1
 8005286:	e0a3      	b.n	80053d0 <_printf_i+0x1dc>
 8005288:	f011 0f40 	tst.w	r1, #64	; 0x40
 800528c:	f102 0104 	add.w	r1, r2, #4
 8005290:	6019      	str	r1, [r3, #0]
 8005292:	d0d7      	beq.n	8005244 <_printf_i+0x50>
 8005294:	f9b2 3000 	ldrsh.w	r3, [r2]
 8005298:	2b00      	cmp	r3, #0
 800529a:	da03      	bge.n	80052a4 <_printf_i+0xb0>
 800529c:	222d      	movs	r2, #45	; 0x2d
 800529e:	425b      	negs	r3, r3
 80052a0:	f884 2043 	strb.w	r2, [r4, #67]	; 0x43
 80052a4:	4962      	ldr	r1, [pc, #392]	; (8005430 <_printf_i+0x23c>)
 80052a6:	220a      	movs	r2, #10
 80052a8:	e017      	b.n	80052da <_printf_i+0xe6>
 80052aa:	6820      	ldr	r0, [r4, #0]
 80052ac:	6819      	ldr	r1, [r3, #0]
 80052ae:	f010 0f80 	tst.w	r0, #128	; 0x80
 80052b2:	d003      	beq.n	80052bc <_printf_i+0xc8>
 80052b4:	1d08      	adds	r0, r1, #4
 80052b6:	6018      	str	r0, [r3, #0]
 80052b8:	680b      	ldr	r3, [r1, #0]
 80052ba:	e006      	b.n	80052ca <_printf_i+0xd6>
 80052bc:	f010 0f40 	tst.w	r0, #64	; 0x40
 80052c0:	f101 0004 	add.w	r0, r1, #4
 80052c4:	6018      	str	r0, [r3, #0]
 80052c6:	d0f7      	beq.n	80052b8 <_printf_i+0xc4>
 80052c8:	880b      	ldrh	r3, [r1, #0]
 80052ca:	4959      	ldr	r1, [pc, #356]	; (8005430 <_printf_i+0x23c>)
 80052cc:	2a6f      	cmp	r2, #111	; 0x6f
 80052ce:	bf14      	ite	ne
 80052d0:	220a      	movne	r2, #10
 80052d2:	2208      	moveq	r2, #8
 80052d4:	2000      	movs	r0, #0
 80052d6:	f884 0043 	strb.w	r0, [r4, #67]	; 0x43
 80052da:	6865      	ldr	r5, [r4, #4]
 80052dc:	60a5      	str	r5, [r4, #8]
 80052de:	2d00      	cmp	r5, #0
 80052e0:	f2c0 809c 	blt.w	800541c <_printf_i+0x228>
 80052e4:	6820      	ldr	r0, [r4, #0]
 80052e6:	f020 0004 	bic.w	r0, r0, #4
 80052ea:	6020      	str	r0, [r4, #0]
 80052ec:	2b00      	cmp	r3, #0
 80052ee:	d13f      	bne.n	8005370 <_printf_i+0x17c>
 80052f0:	2d00      	cmp	r5, #0
 80052f2:	f040 8095 	bne.w	8005420 <_printf_i+0x22c>
 80052f6:	4675      	mov	r5, lr
 80052f8:	2a08      	cmp	r2, #8
 80052fa:	d10b      	bne.n	8005314 <_printf_i+0x120>
 80052fc:	6823      	ldr	r3, [r4, #0]
 80052fe:	07da      	lsls	r2, r3, #31
 8005300:	d508      	bpl.n	8005314 <_printf_i+0x120>
 8005302:	6923      	ldr	r3, [r4, #16]
 8005304:	6862      	ldr	r2, [r4, #4]
 8005306:	429a      	cmp	r2, r3
 8005308:	bfde      	ittt	le
 800530a:	2330      	movle	r3, #48	; 0x30
 800530c:	f805 3c01 	strble.w	r3, [r5, #-1]
 8005310:	f105 35ff 	addle.w	r5, r5, #4294967295
 8005314:	ebae 0305 	sub.w	r3, lr, r5
 8005318:	6123      	str	r3, [r4, #16]
 800531a:	f8cd 8000 	str.w	r8, [sp]
 800531e:	463b      	mov	r3, r7
 8005320:	aa03      	add	r2, sp, #12
 8005322:	4621      	mov	r1, r4
 8005324:	4630      	mov	r0, r6
 8005326:	f7ff feef 	bl	8005108 <_printf_common>
 800532a:	3001      	adds	r0, #1
 800532c:	d155      	bne.n	80053da <_printf_i+0x1e6>
 800532e:	f04f 30ff 	mov.w	r0, #4294967295
 8005332:	b005      	add	sp, #20
 8005334:	e8bd 83f0 	ldmia.w	sp!, {r4, r5, r6, r7, r8, r9, pc}
 8005338:	f881 2045 	strb.w	r2, [r1, #69]	; 0x45
 800533c:	493c      	ldr	r1, [pc, #240]	; (8005430 <_printf_i+0x23c>)
 800533e:	6822      	ldr	r2, [r4, #0]
 8005340:	6818      	ldr	r0, [r3, #0]
 8005342:	f012 0f80 	tst.w	r2, #128	; 0x80
 8005346:	f100 0504 	add.w	r5, r0, #4
 800534a:	601d      	str	r5, [r3, #0]
 800534c:	d001      	beq.n	8005352 <_printf_i+0x15e>
 800534e:	6803      	ldr	r3, [r0, #0]
 8005350:	e002      	b.n	8005358 <_printf_i+0x164>
 8005352:	0655      	lsls	r5, r2, #25
 8005354:	d5fb      	bpl.n	800534e <_printf_i+0x15a>
 8005356:	8803      	ldrh	r3, [r0, #0]
 8005358:	07d0      	lsls	r0, r2, #31
 800535a:	bf44      	itt	mi
 800535c:	f042 0220 	orrmi.w	r2, r2, #32
 8005360:	6022      	strmi	r2, [r4, #0]
 8005362:	b91b      	cbnz	r3, 800536c <_printf_i+0x178>
 8005364:	6822      	ldr	r2, [r4, #0]
 8005366:	f022 0220 	bic.w	r2, r2, #32
 800536a:	6022      	str	r2, [r4, #0]
 800536c:	2210      	movs	r2, #16
 800536e:	e7b1      	b.n	80052d4 <_printf_i+0xe0>
 8005370:	4675      	mov	r5, lr
 8005372:	fbb3 f0f2 	udiv	r0, r3, r2
 8005376:	fb02 3310 	mls	r3, r2, r0, r3
 800537a:	5ccb      	ldrb	r3, [r1, r3]
 800537c:	f805 3d01 	strb.w	r3, [r5, #-1]!
 8005380:	4603      	mov	r3, r0
 8005382:	2800      	cmp	r0, #0
 8005384:	d1f5      	bne.n	8005372 <_printf_i+0x17e>
 8005386:	e7b7      	b.n	80052f8 <_printf_i+0x104>
 8005388:	6808      	ldr	r0, [r1, #0]
 800538a:	681a      	ldr	r2, [r3, #0]
 800538c:	6949      	ldr	r1, [r1, #20]
 800538e:	f010 0f80 	tst.w	r0, #128	; 0x80
 8005392:	d004      	beq.n	800539e <_printf_i+0x1aa>
 8005394:	1d10      	adds	r0, r2, #4
 8005396:	6018      	str	r0, [r3, #0]
 8005398:	6813      	ldr	r3, [r2, #0]
 800539a:	6019      	str	r1, [r3, #0]
 800539c:	e007      	b.n	80053ae <_printf_i+0x1ba>
 800539e:	f010 0f40 	tst.w	r0, #64	; 0x40
 80053a2:	f102 0004 	add.w	r0, r2, #4
 80053a6:	6018      	str	r0, [r3, #0]
 80053a8:	6813      	ldr	r3, [r2, #0]
 80053aa:	d0f6      	beq.n	800539a <_printf_i+0x1a6>
 80053ac:	8019      	strh	r1, [r3, #0]
 80053ae:	2300      	movs	r3, #0
 80053b0:	6123      	str	r3, [r4, #16]
 80053b2:	4675      	mov	r5, lr
 80053b4:	e7b1      	b.n	800531a <_printf_i+0x126>
 80053b6:	681a      	ldr	r2, [r3, #0]
 80053b8:	1d11      	adds	r1, r2, #4
 80053ba:	6019      	str	r1, [r3, #0]
 80053bc:	6815      	ldr	r5, [r2, #0]
 80053be:	6862      	ldr	r2, [r4, #4]
 80053c0:	2100      	movs	r1, #0
 80053c2:	4628      	mov	r0, r5
 80053c4:	f7fa ff0c 	bl	80001e0 <memchr>
 80053c8:	b108      	cbz	r0, 80053ce <_printf_i+0x1da>
 80053ca:	1b40      	subs	r0, r0, r5
 80053cc:	6060      	str	r0, [r4, #4]
 80053ce:	6863      	ldr	r3, [r4, #4]
 80053d0:	6123      	str	r3, [r4, #16]
 80053d2:	2300      	movs	r3, #0
 80053d4:	f884 3043 	strb.w	r3, [r4, #67]	; 0x43
 80053d8:	e79f      	b.n	800531a <_printf_i+0x126>
 80053da:	6923      	ldr	r3, [r4, #16]
 80053dc:	462a      	mov	r2, r5
 80053de:	4639      	mov	r1, r7
 80053e0:	4630      	mov	r0, r6
 80053e2:	47c0      	blx	r8
 80053e4:	3001      	adds	r0, #1
 80053e6:	d0a2      	beq.n	800532e <_printf_i+0x13a>
 80053e8:	6823      	ldr	r3, [r4, #0]
 80053ea:	079b      	lsls	r3, r3, #30
 80053ec:	d507      	bpl.n	80053fe <_printf_i+0x20a>
 80053ee:	2500      	movs	r5, #0
 80053f0:	f104 0919 	add.w	r9, r4, #25
 80053f4:	68e3      	ldr	r3, [r4, #12]
 80053f6:	9a03      	ldr	r2, [sp, #12]
 80053f8:	1a9b      	subs	r3, r3, r2
 80053fa:	429d      	cmp	r5, r3
 80053fc:	db05      	blt.n	800540a <_printf_i+0x216>
 80053fe:	68e0      	ldr	r0, [r4, #12]
 8005400:	9b03      	ldr	r3, [sp, #12]
 8005402:	4298      	cmp	r0, r3
 8005404:	bfb8      	it	lt
 8005406:	4618      	movlt	r0, r3
 8005408:	e793      	b.n	8005332 <_printf_i+0x13e>
 800540a:	2301      	movs	r3, #1
 800540c:	464a      	mov	r2, r9
 800540e:	4639      	mov	r1, r7
 8005410:	4630      	mov	r0, r6
 8005412:	47c0      	blx	r8
 8005414:	3001      	adds	r0, #1
 8005416:	d08a      	beq.n	800532e <_printf_i+0x13a>
 8005418:	3501      	adds	r5, #1
 800541a:	e7eb      	b.n	80053f4 <_printf_i+0x200>
 800541c:	2b00      	cmp	r3, #0
 800541e:	d1a7      	bne.n	8005370 <_printf_i+0x17c>
 8005420:	780b      	ldrb	r3, [r1, #0]
 8005422:	f884 3042 	strb.w	r3, [r4, #66]	; 0x42
 8005426:	f104 0542 	add.w	r5, r4, #66	; 0x42
 800542a:	e765      	b.n	80052f8 <_printf_i+0x104>
 800542c:	080057ca 	.word	0x080057ca
 8005430:	080057b9 	.word	0x080057b9

08005434 <memmove>:
 8005434:	4288      	cmp	r0, r1
 8005436:	b510      	push	{r4, lr}
 8005438:	eb01 0302 	add.w	r3, r1, r2
 800543c:	d803      	bhi.n	8005446 <memmove+0x12>
 800543e:	1e42      	subs	r2, r0, #1
 8005440:	4299      	cmp	r1, r3
 8005442:	d10c      	bne.n	800545e <memmove+0x2a>
 8005444:	bd10      	pop	{r4, pc}
 8005446:	4298      	cmp	r0, r3
 8005448:	d2f9      	bcs.n	800543e <memmove+0xa>
 800544a:	1881      	adds	r1, r0, r2
 800544c:	1ad2      	subs	r2, r2, r3
 800544e:	42d3      	cmn	r3, r2
 8005450:	d100      	bne.n	8005454 <memmove+0x20>
 8005452:	bd10      	pop	{r4, pc}
 8005454:	f813 4d01 	ldrb.w	r4, [r3, #-1]!
 8005458:	f801 4d01 	strb.w	r4, [r1, #-1]!
 800545c:	e7f7      	b.n	800544e <memmove+0x1a>
 800545e:	f811 4b01 	ldrb.w	r4, [r1], #1
 8005462:	f802 4f01 	strb.w	r4, [r2, #1]!
 8005466:	e7eb      	b.n	8005440 <memmove+0xc>

08005468 <_realloc_r>:
 8005468:	b5f8      	push	{r3, r4, r5, r6, r7, lr}
 800546a:	4607      	mov	r7, r0
 800546c:	4614      	mov	r4, r2
 800546e:	460e      	mov	r6, r1
 8005470:	b921      	cbnz	r1, 800547c <_realloc_r+0x14>
 8005472:	4611      	mov	r1, r2
 8005474:	e8bd 40f8 	ldmia.w	sp!, {r3, r4, r5, r6, r7, lr}
 8005478:	f7ff bc10 	b.w	8004c9c <_malloc_r>
 800547c:	b922      	cbnz	r2, 8005488 <_realloc_r+0x20>
 800547e:	f7ff fbbf 	bl	8004c00 <_free_r>
 8005482:	4625      	mov	r5, r4
 8005484:	4628      	mov	r0, r5
 8005486:	bdf8      	pop	{r3, r4, r5, r6, r7, pc}
 8005488:	f000 f814 	bl	80054b4 <_malloc_usable_size_r>
 800548c:	4284      	cmp	r4, r0
 800548e:	d90f      	bls.n	80054b0 <_realloc_r+0x48>
 8005490:	4621      	mov	r1, r4
 8005492:	4638      	mov	r0, r7
 8005494:	f7ff fc02 	bl	8004c9c <_malloc_r>
 8005498:	4605      	mov	r5, r0
 800549a:	2800      	cmp	r0, #0
 800549c:	d0f2      	beq.n	8005484 <_realloc_r+0x1c>
 800549e:	4631      	mov	r1, r6
 80054a0:	4622      	mov	r2, r4
 80054a2:	f7ff fb8b 	bl	8004bbc <memcpy>
 80054a6:	4631      	mov	r1, r6
 80054a8:	4638      	mov	r0, r7
 80054aa:	f7ff fba9 	bl	8004c00 <_free_r>
 80054ae:	e7e9      	b.n	8005484 <_realloc_r+0x1c>
 80054b0:	4635      	mov	r5, r6
 80054b2:	e7e7      	b.n	8005484 <_realloc_r+0x1c>

080054b4 <_malloc_usable_size_r>:
 80054b4:	f851 0c04 	ldr.w	r0, [r1, #-4]
 80054b8:	2800      	cmp	r0, #0
 80054ba:	f1a0 0004 	sub.w	r0, r0, #4
 80054be:	bfbc      	itt	lt
 80054c0:	580b      	ldrlt	r3, [r1, r0]
 80054c2:	18c0      	addlt	r0, r0, r3
 80054c4:	4770      	bx	lr
	...

080054c8 <sqrt>:
 80054c8:	e92d 43f0 	stmdb	sp!, {r4, r5, r6, r7, r8, r9, lr}
 80054cc:	ed2d 8b02 	vpush	{d8}
 80054d0:	b08b      	sub	sp, #44	; 0x2c
 80054d2:	ec55 4b10 	vmov	r4, r5, d0
 80054d6:	f000 f851 	bl	800557c <__ieee754_sqrt>
 80054da:	4b26      	ldr	r3, [pc, #152]	; (8005574 <sqrt+0xac>)
 80054dc:	eeb0 8a40 	vmov.f32	s16, s0
 80054e0:	eef0 8a60 	vmov.f32	s17, s1
 80054e4:	f993 6000 	ldrsb.w	r6, [r3]
 80054e8:	1c73      	adds	r3, r6, #1
 80054ea:	d02a      	beq.n	8005542 <sqrt+0x7a>
 80054ec:	4622      	mov	r2, r4
 80054ee:	462b      	mov	r3, r5
 80054f0:	4620      	mov	r0, r4
 80054f2:	4629      	mov	r1, r5
 80054f4:	f7fb fb16 	bl	8000b24 <__aeabi_dcmpun>
 80054f8:	4607      	mov	r7, r0
 80054fa:	bb10      	cbnz	r0, 8005542 <sqrt+0x7a>
 80054fc:	f04f 0800 	mov.w	r8, #0
 8005500:	f04f 0900 	mov.w	r9, #0
 8005504:	4642      	mov	r2, r8
 8005506:	464b      	mov	r3, r9
 8005508:	4620      	mov	r0, r4
 800550a:	4629      	mov	r1, r5
 800550c:	f7fb fae2 	bl	8000ad4 <__aeabi_dcmplt>
 8005510:	b1b8      	cbz	r0, 8005542 <sqrt+0x7a>
 8005512:	2301      	movs	r3, #1
 8005514:	9300      	str	r3, [sp, #0]
 8005516:	4b18      	ldr	r3, [pc, #96]	; (8005578 <sqrt+0xb0>)
 8005518:	9301      	str	r3, [sp, #4]
 800551a:	9708      	str	r7, [sp, #32]
 800551c:	e9cd 4504 	strd	r4, r5, [sp, #16]
 8005520:	e9cd 4502 	strd	r4, r5, [sp, #8]
 8005524:	b9b6      	cbnz	r6, 8005554 <sqrt+0x8c>
 8005526:	e9cd 8906 	strd	r8, r9, [sp, #24]
 800552a:	4668      	mov	r0, sp
 800552c:	f000 f8d6 	bl	80056dc <matherr>
 8005530:	b1d0      	cbz	r0, 8005568 <sqrt+0xa0>
 8005532:	9b08      	ldr	r3, [sp, #32]
 8005534:	b11b      	cbz	r3, 800553e <sqrt+0x76>
 8005536:	f000 f8d3 	bl	80056e0 <__errno>
 800553a:	9b08      	ldr	r3, [sp, #32]
 800553c:	6003      	str	r3, [r0, #0]
 800553e:	ed9d 8b06 	vldr	d8, [sp, #24]
 8005542:	eeb0 0a48 	vmov.f32	s0, s16
 8005546:	eef0 0a68 	vmov.f32	s1, s17
 800554a:	b00b      	add	sp, #44	; 0x2c
 800554c:	ecbd 8b02 	vpop	{d8}
 8005550:	e8bd 83f0 	ldmia.w	sp!, {r4, r5, r6, r7, r8, r9, pc}
 8005554:	4642      	mov	r2, r8
 8005556:	464b      	mov	r3, r9
 8005558:	4640      	mov	r0, r8
 800555a:	4649      	mov	r1, r9
 800555c:	f7fb f972 	bl	8000844 <__aeabi_ddiv>
 8005560:	2e02      	cmp	r6, #2
 8005562:	e9cd 0106 	strd	r0, r1, [sp, #24]
 8005566:	d1e0      	bne.n	800552a <sqrt+0x62>
 8005568:	f000 f8ba 	bl	80056e0 <__errno>
 800556c:	2321      	movs	r3, #33	; 0x21
 800556e:	6003      	str	r3, [r0, #0]
 8005570:	e7df      	b.n	8005532 <sqrt+0x6a>
 8005572:	bf00      	nop
 8005574:	20000094 	.word	0x20000094
 8005578:	080057db 	.word	0x080057db

0800557c <__ieee754_sqrt>:
 800557c:	e92d 41f0 	stmdb	sp!, {r4, r5, r6, r7, r8, lr}
 8005580:	ec55 4b10 	vmov	r4, r5, d0
 8005584:	4e54      	ldr	r6, [pc, #336]	; (80056d8 <__ieee754_sqrt+0x15c>)
 8005586:	43ae      	bics	r6, r5
 8005588:	ee10 0a10 	vmov	r0, s0
 800558c:	462b      	mov	r3, r5
 800558e:	462a      	mov	r2, r5
 8005590:	4621      	mov	r1, r4
 8005592:	d113      	bne.n	80055bc <__ieee754_sqrt+0x40>
 8005594:	ee10 2a10 	vmov	r2, s0
 8005598:	462b      	mov	r3, r5
 800559a:	ee10 0a10 	vmov	r0, s0
 800559e:	4629      	mov	r1, r5
 80055a0:	f7fb f826 	bl	80005f0 <__aeabi_dmul>
 80055a4:	4602      	mov	r2, r0
 80055a6:	460b      	mov	r3, r1
 80055a8:	4620      	mov	r0, r4
 80055aa:	4629      	mov	r1, r5
 80055ac:	f7fa fe6e 	bl	800028c <__adddf3>
 80055b0:	4604      	mov	r4, r0
 80055b2:	460d      	mov	r5, r1
 80055b4:	ec45 4b10 	vmov	d0, r4, r5
 80055b8:	e8bd 81f0 	ldmia.w	sp!, {r4, r5, r6, r7, r8, pc}
 80055bc:	2d00      	cmp	r5, #0
 80055be:	dc10      	bgt.n	80055e2 <__ieee754_sqrt+0x66>
 80055c0:	f025 4600 	bic.w	r6, r5, #2147483648	; 0x80000000
 80055c4:	4330      	orrs	r0, r6
 80055c6:	d0f5      	beq.n	80055b4 <__ieee754_sqrt+0x38>
 80055c8:	b15d      	cbz	r5, 80055e2 <__ieee754_sqrt+0x66>
 80055ca:	ee10 2a10 	vmov	r2, s0
 80055ce:	462b      	mov	r3, r5
 80055d0:	4620      	mov	r0, r4
 80055d2:	4629      	mov	r1, r5
 80055d4:	f7fa fe58 	bl	8000288 <__aeabi_dsub>
 80055d8:	4602      	mov	r2, r0
 80055da:	460b      	mov	r3, r1
 80055dc:	f7fb f932 	bl	8000844 <__aeabi_ddiv>
 80055e0:	e7e6      	b.n	80055b0 <__ieee754_sqrt+0x34>
 80055e2:	151b      	asrs	r3, r3, #20
 80055e4:	d10c      	bne.n	8005600 <__ieee754_sqrt+0x84>
 80055e6:	2a00      	cmp	r2, #0
 80055e8:	d06d      	beq.n	80056c6 <__ieee754_sqrt+0x14a>
 80055ea:	2000      	movs	r0, #0
 80055ec:	02d6      	lsls	r6, r2, #11
 80055ee:	d56e      	bpl.n	80056ce <__ieee754_sqrt+0x152>
 80055f0:	1e44      	subs	r4, r0, #1
 80055f2:	1b1b      	subs	r3, r3, r4
 80055f4:	f1c0 0420 	rsb	r4, r0, #32
 80055f8:	fa21 f404 	lsr.w	r4, r1, r4
 80055fc:	4322      	orrs	r2, r4
 80055fe:	4081      	lsls	r1, r0
 8005600:	f2a3 33ff 	subw	r3, r3, #1023	; 0x3ff
 8005604:	f3c2 0213 	ubfx	r2, r2, #0, #20
 8005608:	07dd      	lsls	r5, r3, #31
 800560a:	f442 1280 	orr.w	r2, r2, #1048576	; 0x100000
 800560e:	bf42      	ittt	mi
 8005610:	0052      	lslmi	r2, r2, #1
 8005612:	eb02 72d1 	addmi.w	r2, r2, r1, lsr #31
 8005616:	0049      	lslmi	r1, r1, #1
 8005618:	1058      	asrs	r0, r3, #1
 800561a:	2500      	movs	r5, #0
 800561c:	eb02 73d1 	add.w	r3, r2, r1, lsr #31
 8005620:	441a      	add	r2, r3
 8005622:	0049      	lsls	r1, r1, #1
 8005624:	2316      	movs	r3, #22
 8005626:	462c      	mov	r4, r5
 8005628:	f44f 1600 	mov.w	r6, #2097152	; 0x200000
 800562c:	19a7      	adds	r7, r4, r6
 800562e:	4297      	cmp	r7, r2
 8005630:	bfde      	ittt	le
 8005632:	1bd2      	suble	r2, r2, r7
 8005634:	19bc      	addle	r4, r7, r6
 8005636:	19ad      	addle	r5, r5, r6
 8005638:	0052      	lsls	r2, r2, #1
 800563a:	3b01      	subs	r3, #1
 800563c:	eb02 72d1 	add.w	r2, r2, r1, lsr #31
 8005640:	ea4f 0656 	mov.w	r6, r6, lsr #1
 8005644:	ea4f 0141 	mov.w	r1, r1, lsl #1
 8005648:	d1f0      	bne.n	800562c <__ieee754_sqrt+0xb0>
 800564a:	f04f 0e20 	mov.w	lr, #32
 800564e:	469c      	mov	ip, r3
 8005650:	f04f 4600 	mov.w	r6, #2147483648	; 0x80000000
 8005654:	42a2      	cmp	r2, r4
 8005656:	eb06 070c 	add.w	r7, r6, ip
 800565a:	dc02      	bgt.n	8005662 <__ieee754_sqrt+0xe6>
 800565c:	d112      	bne.n	8005684 <__ieee754_sqrt+0x108>
 800565e:	428f      	cmp	r7, r1
 8005660:	d810      	bhi.n	8005684 <__ieee754_sqrt+0x108>
 8005662:	2f00      	cmp	r7, #0
 8005664:	eb07 0c06 	add.w	ip, r7, r6
 8005668:	da34      	bge.n	80056d4 <__ieee754_sqrt+0x158>
 800566a:	f1bc 0f00 	cmp.w	ip, #0
 800566e:	db31      	blt.n	80056d4 <__ieee754_sqrt+0x158>
 8005670:	f104 0801 	add.w	r8, r4, #1
 8005674:	1b12      	subs	r2, r2, r4
 8005676:	428f      	cmp	r7, r1
 8005678:	bf88      	it	hi
 800567a:	f102 32ff 	addhi.w	r2, r2, #4294967295
 800567e:	1bc9      	subs	r1, r1, r7
 8005680:	4433      	add	r3, r6
 8005682:	4644      	mov	r4, r8
 8005684:	eb02 77d1 	add.w	r7, r2, r1, lsr #31
 8005688:	f1be 0e01 	subs.w	lr, lr, #1
 800568c:	443a      	add	r2, r7
 800568e:	ea4f 0141 	mov.w	r1, r1, lsl #1
 8005692:	ea4f 0656 	mov.w	r6, r6, lsr #1
 8005696:	d1dd      	bne.n	8005654 <__ieee754_sqrt+0xd8>
 8005698:	430a      	orrs	r2, r1
 800569a:	d006      	beq.n	80056aa <__ieee754_sqrt+0x12e>
 800569c:	1c5c      	adds	r4, r3, #1
 800569e:	bf13      	iteet	ne
 80056a0:	3301      	addne	r3, #1
 80056a2:	3501      	addeq	r5, #1
 80056a4:	4673      	moveq	r3, lr
 80056a6:	f023 0301 	bicne.w	r3, r3, #1
 80056aa:	106a      	asrs	r2, r5, #1
 80056ac:	085b      	lsrs	r3, r3, #1
 80056ae:	07e9      	lsls	r1, r5, #31
 80056b0:	f102 527f 	add.w	r2, r2, #1069547520	; 0x3fc00000
 80056b4:	f502 1200 	add.w	r2, r2, #2097152	; 0x200000
 80056b8:	bf48      	it	mi
 80056ba:	f043 4300 	orrmi.w	r3, r3, #2147483648	; 0x80000000
 80056be:	eb02 5500 	add.w	r5, r2, r0, lsl #20
 80056c2:	461c      	mov	r4, r3
 80056c4:	e776      	b.n	80055b4 <__ieee754_sqrt+0x38>
 80056c6:	0aca      	lsrs	r2, r1, #11
 80056c8:	3b15      	subs	r3, #21
 80056ca:	0549      	lsls	r1, r1, #21
 80056cc:	e78b      	b.n	80055e6 <__ieee754_sqrt+0x6a>
 80056ce:	0052      	lsls	r2, r2, #1
 80056d0:	3001      	adds	r0, #1
 80056d2:	e78b      	b.n	80055ec <__ieee754_sqrt+0x70>
 80056d4:	46a0      	mov	r8, r4
 80056d6:	e7cd      	b.n	8005674 <__ieee754_sqrt+0xf8>
 80056d8:	7ff00000 	.word	0x7ff00000

080056dc <matherr>:
 80056dc:	2000      	movs	r0, #0
 80056de:	4770      	bx	lr

080056e0 <__errno>:
 80056e0:	4b01      	ldr	r3, [pc, #4]	; (80056e8 <__errno+0x8>)
 80056e2:	6818      	ldr	r0, [r3, #0]
 80056e4:	4770      	bx	lr
 80056e6:	bf00      	nop
 80056e8:	20000030 	.word	0x20000030

080056ec <_sbrk>:
 80056ec:	4b04      	ldr	r3, [pc, #16]	; (8005700 <_sbrk+0x14>)
 80056ee:	6819      	ldr	r1, [r3, #0]
 80056f0:	4602      	mov	r2, r0
 80056f2:	b909      	cbnz	r1, 80056f8 <_sbrk+0xc>
 80056f4:	4903      	ldr	r1, [pc, #12]	; (8005704 <_sbrk+0x18>)
 80056f6:	6019      	str	r1, [r3, #0]
 80056f8:	6818      	ldr	r0, [r3, #0]
 80056fa:	4402      	add	r2, r0
 80056fc:	601a      	str	r2, [r3, #0]
 80056fe:	4770      	bx	lr
 8005700:	2000014c 	.word	0x2000014c
 8005704:	20000338 	.word	0x20000338

08005708 <_init>:
 8005708:	b5f8      	push	{r3, r4, r5, r6, r7, lr}
 800570a:	bf00      	nop
 800570c:	bcf8      	pop	{r3, r4, r5, r6, r7}
 800570e:	bc08      	pop	{r3}
 8005710:	469e      	mov	lr, r3
 8005712:	4770      	bx	lr

08005714 <_fini>:
 8005714:	b5f8      	push	{r3, r4, r5, r6, r7, lr}
 8005716:	bf00      	nop
 8005718:	bcf8      	pop	{r3, r4, r5, r6, r7}
 800571a:	bc08      	pop	{r3}
 800571c:	469e      	mov	lr, r3
 800571e:	4770      	bx	lr
